ARM GAS  C:\Users\JCEM\AppData\Local\Temp\ccfPjpIa.s 			page 1


   1              		.cpu cortex-m3
   2              		.eabi_attribute 20, 1
   3              		.eabi_attribute 21, 1
   4              		.eabi_attribute 23, 3
   5              		.eabi_attribute 24, 1
   6              		.eabi_attribute 25, 1
   7              		.eabi_attribute 26, 1
   8              		.eabi_attribute 30, 1
   9              		.eabi_attribute 34, 1
  10              		.eabi_attribute 18, 4
  11              		.file	"kinematics_cartesian.c"
  12              		.text
  13              	.Ltext0:
  14              		.cfi_sections	.debug_frame
  15              		.global	__aeabi_fmul
  16              		.section	.text.kinematics_apply_inverse,"ax",%progbits
  17              		.align	1
  18              		.global	kinematics_apply_inverse
  19              		.arch armv7-m
  20              		.syntax unified
  21              		.thumb
  22              		.thumb_func
  23              		.fpu softvfp
  25              	kinematics_apply_inverse:
  26              	.LVL0:
  27              	.LFB68:
  28              		.file 1 "../../kinematics_cartesian.c"
   1:../../kinematics_cartesian.c **** /*
   2:../../kinematics_cartesian.c **** 	Name: kinematics_cartesian_xyz.c
   3:../../kinematics_cartesian.c **** 	Description: Implements all kinematics math equations to translate the motion of a cartesian XYZ m
   4:../../kinematics_cartesian.c **** 		Also implements the homing motion for this type of machine.
   5:../../kinematics_cartesian.c **** 
   6:../../kinematics_cartesian.c **** 	Copyright: Copyright (c) João Martins
   7:../../kinematics_cartesian.c **** 	Author: João Martins
   8:../../kinematics_cartesian.c **** 	Date: 26/09/2019
   9:../../kinematics_cartesian.c **** 
  10:../../kinematics_cartesian.c **** 	µCNC is free software: you can redistribute it and/or modify
  11:../../kinematics_cartesian.c **** 	it under the terms of the GNU General Public License as published by
  12:../../kinematics_cartesian.c **** 	the Free Software Foundation, either version 3 of the License, or
  13:../../kinematics_cartesian.c **** 	(at your option) any later version. Please see <http://www.gnu.org/licenses/>
  14:../../kinematics_cartesian.c **** 
  15:../../kinematics_cartesian.c **** 	µCNC is distributed WITHOUT ANY WARRANTY;
  16:../../kinematics_cartesian.c **** 	Also without the implied warranty of	MERCHANTABILITY or FITNESS FOR A PARTICULAR PURPOSE.
  17:../../kinematics_cartesian.c **** 	See the	GNU General Public License for more details.
  18:../../kinematics_cartesian.c **** */
  19:../../kinematics_cartesian.c **** 
  20:../../kinematics_cartesian.c **** #include "config.h"
  21:../../kinematics_cartesian.c **** 
  22:../../kinematics_cartesian.c **** #if(MACHINE_KINEMATICS==MACHINE_CARTESIAN)
  23:../../kinematics_cartesian.c **** #include <stdio.h>
  24:../../kinematics_cartesian.c **** #include <math.h>
  25:../../kinematics_cartesian.c **** #include "mcu.h"
  26:../../kinematics_cartesian.c **** #include "settings.h"
  27:../../kinematics_cartesian.c **** #include "kinematics.h"
  28:../../kinematics_cartesian.c **** #include "io_control.h"
  29:../../kinematics_cartesian.c **** #include "motion_control.h"
  30:../../kinematics_cartesian.c **** #include "grbl_interface.h"
ARM GAS  C:\Users\JCEM\AppData\Local\Temp\ccfPjpIa.s 			page 2


  31:../../kinematics_cartesian.c **** 
  32:../../kinematics_cartesian.c **** void kinematics_apply_inverse(float* axis, uint32_t* steps)
  33:../../kinematics_cartesian.c **** {
  29              		.loc 1 33 1 view -0
  30              		.cfi_startproc
  31              		@ args = 0, pretend = 0, frame = 0
  32              		@ frame_needed = 0, uses_anonymous_args = 0
  33              		.loc 1 33 1 is_stmt 0 view .LVU1
  34 0000 70B5     		push	{r4, r5, r6, lr}
  35              	.LCFI0:
  36              		.cfi_def_cfa_offset 16
  37              		.cfi_offset 4, -16
  38              		.cfi_offset 5, -12
  39              		.cfi_offset 6, -8
  40              		.cfi_offset 14, -4
  41 0002 0546     		mov	r5, r0
  42 0004 0C46     		mov	r4, r1
  34:../../kinematics_cartesian.c **** 	#ifdef AXIS_X
  35:../../kinematics_cartesian.c ****     steps[AXIS_X] = (uint32_t)lroundf(g_settings.step_per_mm[AXIS_X] * axis[AXIS_X]);
  43              		.loc 1 35 5 is_stmt 1 view .LVU2
  44              		.loc 1 35 61 is_stmt 0 view .LVU3
  45 0006 0B4E     		ldr	r6, .L3
  46              		.loc 1 35 31 view .LVU4
  47 0008 0168     		ldr	r1, [r0]	@ float
  48              	.LVL1:
  49              		.loc 1 35 31 view .LVU5
  50 000a 306B     		ldr	r0, [r6, #48]	@ float
  51              	.LVL2:
  52              		.loc 1 35 31 view .LVU6
  53 000c FFF7FEFF 		bl	__aeabi_fmul
  54              	.LVL3:
  55 0010 FFF7FEFF 		bl	lroundf
  56              	.LVL4:
  57              		.loc 1 35 19 view .LVU7
  58 0014 2060     		str	r0, [r4]
  36:../../kinematics_cartesian.c ****     #endif
  37:../../kinematics_cartesian.c ****     #ifdef AXIS_Y
  38:../../kinematics_cartesian.c ****     steps[AXIS_Y] = (uint32_t)lroundf(g_settings.step_per_mm[AXIS_Y] * axis[AXIS_Y]);
  59              		.loc 1 38 5 is_stmt 1 view .LVU8
  60              		.loc 1 38 31 is_stmt 0 view .LVU9
  61 0016 6968     		ldr	r1, [r5, #4]	@ float
  62 0018 706B     		ldr	r0, [r6, #52]	@ float
  63 001a FFF7FEFF 		bl	__aeabi_fmul
  64              	.LVL5:
  65 001e FFF7FEFF 		bl	lroundf
  66              	.LVL6:
  67              		.loc 1 38 19 view .LVU10
  68 0022 6060     		str	r0, [r4, #4]
  39:../../kinematics_cartesian.c ****     #endif
  40:../../kinematics_cartesian.c ****     #ifdef AXIS_Z
  41:../../kinematics_cartesian.c ****     steps[AXIS_Z] = (uint32_t)lroundf(g_settings.step_per_mm[AXIS_Z] * axis[AXIS_Z]);
  69              		.loc 1 41 5 is_stmt 1 view .LVU11
  70              		.loc 1 41 31 is_stmt 0 view .LVU12
  71 0024 A968     		ldr	r1, [r5, #8]	@ float
  72 0026 B06B     		ldr	r0, [r6, #56]	@ float
  73 0028 FFF7FEFF 		bl	__aeabi_fmul
  74              	.LVL7:
ARM GAS  C:\Users\JCEM\AppData\Local\Temp\ccfPjpIa.s 			page 3


  75 002c FFF7FEFF 		bl	lroundf
  76              	.LVL8:
  77              		.loc 1 41 19 view .LVU13
  78 0030 A060     		str	r0, [r4, #8]
  42:../../kinematics_cartesian.c ****     #endif
  43:../../kinematics_cartesian.c ****     #ifdef AXIS_A
  44:../../kinematics_cartesian.c ****     steps[AXIS_A] = (uint32_t)lroundf(g_settings.step_per_mm[AXIS_A] * axis[AXIS_A]);
  45:../../kinematics_cartesian.c ****     #endif
  46:../../kinematics_cartesian.c ****     #ifdef AXIS_B
  47:../../kinematics_cartesian.c ****     steps[AXIS_B] = (uint32_t)lroundf(g_settings.step_per_mm[AXIS_B] * axis[AXIS_B]);
  48:../../kinematics_cartesian.c ****     #endif
  49:../../kinematics_cartesian.c ****     #ifdef AXIS_C
  50:../../kinematics_cartesian.c ****     steps[AXIS_C] = (uint32_t)lroundf(g_settings.step_per_mm[AXIS_C] * axis[AXIS_C]);
  51:../../kinematics_cartesian.c ****     #endif
  52:../../kinematics_cartesian.c **** }
  79              		.loc 1 52 1 view .LVU14
  80 0032 70BD     		pop	{r4, r5, r6, pc}
  81              	.LVL9:
  82              	.L4:
  83              		.loc 1 52 1 view .LVU15
  84              		.align	2
  85              	.L3:
  86 0034 00000000 		.word	g_settings
  87              		.cfi_endproc
  88              	.LFE68:
  90              		.global	__aeabi_i2f
  91              		.global	__aeabi_fdiv
  92              		.section	.text.kinematics_apply_forward,"ax",%progbits
  93              		.align	1
  94              		.global	kinematics_apply_forward
  95              		.syntax unified
  96              		.thumb
  97              		.thumb_func
  98              		.fpu softvfp
 100              	kinematics_apply_forward:
 101              	.LVL10:
 102              	.LFB69:
  53:../../kinematics_cartesian.c **** 
  54:../../kinematics_cartesian.c **** void kinematics_apply_forward(uint32_t* steps, float* axis)
  55:../../kinematics_cartesian.c **** {
 103              		.loc 1 55 1 is_stmt 1 view -0
 104              		.cfi_startproc
 105              		@ args = 0, pretend = 0, frame = 0
 106              		@ frame_needed = 0, uses_anonymous_args = 0
 107              		.loc 1 55 1 is_stmt 0 view .LVU17
 108 0000 F8B5     		push	{r3, r4, r5, r6, r7, lr}
 109              	.LCFI1:
 110              		.cfi_def_cfa_offset 24
 111              		.cfi_offset 3, -24
 112              		.cfi_offset 4, -20
 113              		.cfi_offset 5, -16
 114              		.cfi_offset 6, -12
 115              		.cfi_offset 7, -8
 116              		.cfi_offset 14, -4
 117 0002 0546     		mov	r5, r0
 118 0004 0C46     		mov	r4, r1
  56:../../kinematics_cartesian.c **** 	#ifdef AXIS_X
ARM GAS  C:\Users\JCEM\AppData\Local\Temp\ccfPjpIa.s 			page 4


  57:../../kinematics_cartesian.c ****     axis[AXIS_X] = (float)(((int32_t)steps[AXIS_X]) / g_settings.step_per_mm[AXIS_X]);
 119              		.loc 1 57 5 is_stmt 1 view .LVU18
 120              		.loc 1 57 77 is_stmt 0 view .LVU19
 121 0006 0D4E     		ldr	r6, .L7
 122 0008 376B     		ldr	r7, [r6, #48]	@ float
 123              		.loc 1 57 20 view .LVU20
 124 000a 0068     		ldr	r0, [r0]
 125              	.LVL11:
 126              		.loc 1 57 20 view .LVU21
 127 000c FFF7FEFF 		bl	__aeabi_i2f
 128              	.LVL12:
 129              		.loc 1 57 20 view .LVU22
 130 0010 3946     		mov	r1, r7
 131 0012 FFF7FEFF 		bl	__aeabi_fdiv
 132              	.LVL13:
 133              		.loc 1 57 18 view .LVU23
 134 0016 2060     		str	r0, [r4]	@ float
  58:../../kinematics_cartesian.c ****     #endif
  59:../../kinematics_cartesian.c ****     #ifdef AXIS_Y
  60:../../kinematics_cartesian.c ****     axis[AXIS_Y] = (float)(((int32_t)steps[AXIS_Y]) / g_settings.step_per_mm[AXIS_Y]);
 135              		.loc 1 60 5 is_stmt 1 view .LVU24
 136              		.loc 1 60 77 is_stmt 0 view .LVU25
 137 0018 776B     		ldr	r7, [r6, #52]	@ float
 138              		.loc 1 60 20 view .LVU26
 139 001a 6868     		ldr	r0, [r5, #4]
 140 001c FFF7FEFF 		bl	__aeabi_i2f
 141              	.LVL14:
 142 0020 3946     		mov	r1, r7
 143 0022 FFF7FEFF 		bl	__aeabi_fdiv
 144              	.LVL15:
 145              		.loc 1 60 18 view .LVU27
 146 0026 6060     		str	r0, [r4, #4]	@ float
  61:../../kinematics_cartesian.c ****     #endif
  62:../../kinematics_cartesian.c ****     #ifdef AXIS_Z
  63:../../kinematics_cartesian.c ****     axis[AXIS_Z] = (float)(((int32_t)steps[AXIS_Z]) / g_settings.step_per_mm[AXIS_Z]);
 147              		.loc 1 63 5 is_stmt 1 view .LVU28
 148              		.loc 1 63 77 is_stmt 0 view .LVU29
 149 0028 B66B     		ldr	r6, [r6, #56]	@ float
 150              		.loc 1 63 20 view .LVU30
 151 002a A868     		ldr	r0, [r5, #8]
 152 002c FFF7FEFF 		bl	__aeabi_i2f
 153              	.LVL16:
 154 0030 3146     		mov	r1, r6
 155 0032 FFF7FEFF 		bl	__aeabi_fdiv
 156              	.LVL17:
 157              		.loc 1 63 18 view .LVU31
 158 0036 A060     		str	r0, [r4, #8]	@ float
  64:../../kinematics_cartesian.c ****     #endif
  65:../../kinematics_cartesian.c ****     #ifdef AXIS_A
  66:../../kinematics_cartesian.c ****     axis[AXIS_A] = (float)(((int32_t)steps[AXIS_A]) / g_settings.step_per_mm[AXIS_A]);
  67:../../kinematics_cartesian.c ****     #endif
  68:../../kinematics_cartesian.c ****     #ifdef AXIS_B
  69:../../kinematics_cartesian.c ****     axis[AXIS_B] = (float)(((int32_t)steps[AXIS_B]) / g_settings.step_per_mm[AXIS_B]);
  70:../../kinematics_cartesian.c ****     #endif
  71:../../kinematics_cartesian.c ****     #ifdef AXIS_C
  72:../../kinematics_cartesian.c ****     axis[AXIS_C] = (float)(((int32_t)steps[AXIS_C]) / g_settings.step_per_mm[AXIS_C]);
  73:../../kinematics_cartesian.c ****     #endif
ARM GAS  C:\Users\JCEM\AppData\Local\Temp\ccfPjpIa.s 			page 5


  74:../../kinematics_cartesian.c **** }
 159              		.loc 1 74 1 view .LVU32
 160 0038 F8BD     		pop	{r3, r4, r5, r6, r7, pc}
 161              	.LVL18:
 162              	.L8:
 163              		.loc 1 74 1 view .LVU33
 164 003a 00BF     		.align	2
 165              	.L7:
 166 003c 00000000 		.word	g_settings
 167              		.cfi_endproc
 168              	.LFE69:
 170              		.section	.text.kinematics_home,"ax",%progbits
 171              		.align	1
 172              		.global	kinematics_home
 173              		.syntax unified
 174              		.thumb
 175              		.thumb_func
 176              		.fpu softvfp
 178              	kinematics_home:
 179              	.LFB70:
  75:../../kinematics_cartesian.c **** 
  76:../../kinematics_cartesian.c **** uint8_t kinematics_home(void)
  77:../../kinematics_cartesian.c **** {
 180              		.loc 1 77 1 is_stmt 1 view -0
 181              		.cfi_startproc
 182              		@ args = 0, pretend = 0, frame = 0
 183              		@ frame_needed = 0, uses_anonymous_args = 0
 184 0000 08B5     		push	{r3, lr}
 185              	.LCFI2:
 186              		.cfi_def_cfa_offset 8
 187              		.cfi_offset 3, -8
 188              		.cfi_offset 14, -4
  78:../../kinematics_cartesian.c ****     uint8_t result = 0;
 189              		.loc 1 78 5 view .LVU35
 190              	.LVL19:
  79:../../kinematics_cartesian.c ****     
  80:../../kinematics_cartesian.c ****     #ifdef AXIS_Z
  81:../../kinematics_cartesian.c ****     result = mc_home_axis(AXIS_Z, LIMIT_Z_MASK);
 191              		.loc 1 81 5 view .LVU36
 192              		.loc 1 81 14 is_stmt 0 view .LVU37
 193 0002 0421     		movs	r1, #4
 194 0004 0220     		movs	r0, #2
 195 0006 FFF7FEFF 		bl	mc_home_axis
 196              	.LVL20:
  82:../../kinematics_cartesian.c ****     if(result != 0)
 197              		.loc 1 82 5 is_stmt 1 view .LVU38
 198              		.loc 1 82 7 is_stmt 0 view .LVU39
 199 000a 0346     		mov	r3, r0
 200 000c 08B1     		cbz	r0, .L12
 201              	.LVL21:
 202              	.L10:
  83:../../kinematics_cartesian.c ****     {
  84:../../kinematics_cartesian.c ****         return result;
  85:../../kinematics_cartesian.c ****     }
  86:../../kinematics_cartesian.c **** 	#endif
  87:../../kinematics_cartesian.c **** 	#ifdef AXIS_X
  88:../../kinematics_cartesian.c ****     result = mc_home_axis(AXIS_X, LIMIT_X_MASK);
ARM GAS  C:\Users\JCEM\AppData\Local\Temp\ccfPjpIa.s 			page 6


  89:../../kinematics_cartesian.c ****     if(result != 0)
  90:../../kinematics_cartesian.c ****     {
  91:../../kinematics_cartesian.c ****         return result;
  92:../../kinematics_cartesian.c ****     }
  93:../../kinematics_cartesian.c **** 	#endif
  94:../../kinematics_cartesian.c **** 	#ifdef AXIS_Y
  95:../../kinematics_cartesian.c ****     result = mc_home_axis(AXIS_Y, LIMIT_Y_MASK);
  96:../../kinematics_cartesian.c ****     if(result != 0)
  97:../../kinematics_cartesian.c ****     {
  98:../../kinematics_cartesian.c ****         return result;
  99:../../kinematics_cartesian.c ****     }
 100:../../kinematics_cartesian.c **** 	#endif
 101:../../kinematics_cartesian.c **** 	
 102:../../kinematics_cartesian.c **** 	#ifdef AXIS_A
 103:../../kinematics_cartesian.c ****     result = mc_home_axis(AXIS_A, LIMIT_A_MASK);
 104:../../kinematics_cartesian.c ****     if(result != 0)
 105:../../kinematics_cartesian.c ****     {
 106:../../kinematics_cartesian.c ****         return result;
 107:../../kinematics_cartesian.c ****     }
 108:../../kinematics_cartesian.c **** 	#endif
 109:../../kinematics_cartesian.c **** 	#ifdef AXIS_B
 110:../../kinematics_cartesian.c ****     result = mc_home_axis(AXIS_B, LIMIT_B_MASK);
 111:../../kinematics_cartesian.c ****     if(result != 0)
 112:../../kinematics_cartesian.c ****     {
 113:../../kinematics_cartesian.c ****         return result;
 114:../../kinematics_cartesian.c ****     }
 115:../../kinematics_cartesian.c **** 	#endif
 116:../../kinematics_cartesian.c **** 	#ifdef AXIS_C
 117:../../kinematics_cartesian.c ****     result = mc_home_axis(AXIS_C, LIMIT_C_MASK);
 118:../../kinematics_cartesian.c ****     if(result != 0)
 119:../../kinematics_cartesian.c ****     {
 120:../../kinematics_cartesian.c ****         return result;
 121:../../kinematics_cartesian.c ****     }
 122:../../kinematics_cartesian.c **** 	#endif
 123:../../kinematics_cartesian.c **** 	
 124:../../kinematics_cartesian.c ****     return STATUS_OK;
 125:../../kinematics_cartesian.c **** }
 203              		.loc 1 125 1 view .LVU40
 204 000e 1846     		mov	r0, r3
 205 0010 08BD     		pop	{r3, pc}
 206              	.LVL22:
 207              	.L12:
  88:../../kinematics_cartesian.c ****     if(result != 0)
 208              		.loc 1 88 5 is_stmt 1 view .LVU41
  88:../../kinematics_cartesian.c ****     if(result != 0)
 209              		.loc 1 88 14 is_stmt 0 view .LVU42
 210 0012 0121     		movs	r1, #1
 211 0014 FFF7FEFF 		bl	mc_home_axis
 212              	.LVL23:
  89:../../kinematics_cartesian.c ****     {
 213              		.loc 1 89 5 is_stmt 1 view .LVU43
  89:../../kinematics_cartesian.c ****     {
 214              		.loc 1 89 7 is_stmt 0 view .LVU44
 215 0018 0346     		mov	r3, r0
 216 001a 0028     		cmp	r0, #0
 217 001c F7D1     		bne	.L10
  95:../../kinematics_cartesian.c ****     if(result != 0)
ARM GAS  C:\Users\JCEM\AppData\Local\Temp\ccfPjpIa.s 			page 7


 218              		.loc 1 95 5 is_stmt 1 view .LVU45
  95:../../kinematics_cartesian.c ****     if(result != 0)
 219              		.loc 1 95 14 is_stmt 0 view .LVU46
 220 001e 0221     		movs	r1, #2
 221 0020 0120     		movs	r0, #1
 222              	.LVL24:
  95:../../kinematics_cartesian.c ****     if(result != 0)
 223              		.loc 1 95 14 view .LVU47
 224 0022 FFF7FEFF 		bl	mc_home_axis
 225              	.LVL25:
 226 0026 0346     		mov	r3, r0
 227              	.LVL26:
  96:../../kinematics_cartesian.c ****     {
 228              		.loc 1 96 5 is_stmt 1 view .LVU48
 229 0028 F1E7     		b	.L10
 230              		.cfi_endproc
 231              	.LFE70:
 233              		.section	.text.kinematics_lock_step,"ax",%progbits
 234              		.align	1
 235              		.global	kinematics_lock_step
 236              		.syntax unified
 237              		.thumb
 238              		.thumb_func
 239              		.fpu softvfp
 241              	kinematics_lock_step:
 242              	.LVL27:
 243              	.LFB71:
 126:../../kinematics_cartesian.c **** 
 127:../../kinematics_cartesian.c **** void kinematics_lock_step(uint8_t limits_mask)
 128:../../kinematics_cartesian.c **** {
 244              		.loc 1 128 1 view -0
 245              		.cfi_startproc
 246              		@ args = 0, pretend = 0, frame = 0
 247              		@ frame_needed = 0, uses_anonymous_args = 0
 248              		@ link register save eliminated.
 129:../../kinematics_cartesian.c ****     // do nothing
 130:../../kinematics_cartesian.c **** }
 249              		.loc 1 130 1 view .LVU50
 250 0000 7047     		bx	lr
 251              		.cfi_endproc
 252              	.LFE71:
 254              		.section	.text.kinematics_apply_transform,"ax",%progbits
 255              		.align	1
 256              		.global	kinematics_apply_transform
 257              		.syntax unified
 258              		.thumb
 259              		.thumb_func
 260              		.fpu softvfp
 262              	kinematics_apply_transform:
 263              	.LVL28:
 264              	.LFB72:
 131:../../kinematics_cartesian.c **** 
 132:../../kinematics_cartesian.c **** void kinematics_apply_transform(float* axis)
 133:../../kinematics_cartesian.c **** {
 265              		.loc 1 133 1 view -0
 266              		.cfi_startproc
 267              		@ args = 0, pretend = 0, frame = 0
ARM GAS  C:\Users\JCEM\AppData\Local\Temp\ccfPjpIa.s 			page 8


 268              		@ frame_needed = 0, uses_anonymous_args = 0
 269              		@ link register save eliminated.
 134:../../kinematics_cartesian.c ****     /*
 135:../../kinematics_cartesian.c **** 	Define your custom transform
 136:../../kinematics_cartesian.c ****     */
 137:../../kinematics_cartesian.c **** }
 270              		.loc 1 137 1 view .LVU52
 271 0000 7047     		bx	lr
 272              		.cfi_endproc
 273              	.LFE72:
 275              		.section	.text.kinematics_apply_reverse_transform,"ax",%progbits
 276              		.align	1
 277              		.global	kinematics_apply_reverse_transform
 278              		.syntax unified
 279              		.thumb
 280              		.thumb_func
 281              		.fpu softvfp
 283              	kinematics_apply_reverse_transform:
 284              	.LVL29:
 285              	.LFB73:
 138:../../kinematics_cartesian.c **** 
 139:../../kinematics_cartesian.c **** void kinematics_apply_reverse_transform(float* axis)
 140:../../kinematics_cartesian.c **** {
 286              		.loc 1 140 1 view -0
 287              		.cfi_startproc
 288              		@ args = 0, pretend = 0, frame = 0
 289              		@ frame_needed = 0, uses_anonymous_args = 0
 290              		@ link register save eliminated.
 141:../../kinematics_cartesian.c ****     /*
 142:../../kinematics_cartesian.c **** 	Define your custom transform inverse operation
 143:../../kinematics_cartesian.c ****     */
 144:../../kinematics_cartesian.c **** }
 291              		.loc 1 144 1 view .LVU54
 292 0000 7047     		bx	lr
 293              		.cfi_endproc
 294              	.LFE73:
 296              		.text
 297              	.Letext0:
 298              		.file 2 "c:\\program files (x86)\\gnu arm embedded toolchain\\9 2020-q2-update\\arm-none-eabi\\inc
 299              		.file 3 "c:\\program files (x86)\\gnu arm embedded toolchain\\9 2020-q2-update\\arm-none-eabi\\inc
 300              		.file 4 "Drivers/CMSIS/Include/core_cm3.h"
 301              		.file 5 "Drivers/CMSIS/Device/ST/STM32F1xx/Include/system_stm32f1xx.h"
 302              		.file 6 "Drivers/STM32F1xx_HAL_Driver/Inc/stm32f1xx_hal.h"
 303              		.file 7 "c:\\program files (x86)\\gnu arm embedded toolchain\\9 2020-q2-update\\lib\\gcc\\arm-none
 304              		.file 8 "c:\\program files (x86)\\gnu arm embedded toolchain\\9 2020-q2-update\\arm-none-eabi\\inc
 305              		.file 9 "c:\\program files (x86)\\gnu arm embedded toolchain\\9 2020-q2-update\\arm-none-eabi\\inc
 306              		.file 10 "c:\\program files (x86)\\gnu arm embedded toolchain\\9 2020-q2-update\\arm-none-eabi\\in
 307              		.file 11 "c:\\program files (x86)\\gnu arm embedded toolchain\\9 2020-q2-update\\arm-none-eabi\\in
 308              		.file 12 "../../settings.h"
 309              		.file 13 "../../motion_control.h"
ARM GAS  C:\Users\JCEM\AppData\Local\Temp\ccfPjpIa.s 			page 9

