ARM GAS  C:\Users\JCEM\AppData\Local\Temp\cczytyPE.s 			page 1


   1              		.cpu cortex-m3
   2              		.eabi_attribute 20, 1
   3              		.eabi_attribute 21, 1
   4              		.eabi_attribute 23, 3
   5              		.eabi_attribute 24, 1
   6              		.eabi_attribute 25, 1
   7              		.eabi_attribute 26, 1
   8              		.eabi_attribute 30, 1
   9              		.eabi_attribute 34, 1
  10              		.eabi_attribute 18, 4
  11              		.file	"usbd_core.c"
  12              		.text
  13              	.Ltext0:
  14              		.cfi_sections	.debug_frame
  15              		.section	.text.USBD_Init,"ax",%progbits
  16              		.align	1
  17              		.global	USBD_Init
  18              		.arch armv7-m
  19              		.syntax unified
  20              		.thumb
  21              		.thumb_func
  22              		.fpu softvfp
  24              	USBD_Init:
  25              	.LVL0:
  26              	.LFB68:
  27              		.file 1 "Middlewares/ST/STM32_USB_Device_Library/Core/Src/usbd_core.c"
   1:Middlewares/ST/STM32_USB_Device_Library/Core/Src/usbd_core.c **** /**
   2:Middlewares/ST/STM32_USB_Device_Library/Core/Src/usbd_core.c ****   ******************************************************************************
   3:Middlewares/ST/STM32_USB_Device_Library/Core/Src/usbd_core.c ****   * @file    usbd_core.c
   4:Middlewares/ST/STM32_USB_Device_Library/Core/Src/usbd_core.c ****   * @author  MCD Application Team
   5:Middlewares/ST/STM32_USB_Device_Library/Core/Src/usbd_core.c ****   * @brief   This file provides all the USBD core functions.
   6:Middlewares/ST/STM32_USB_Device_Library/Core/Src/usbd_core.c ****   ******************************************************************************
   7:Middlewares/ST/STM32_USB_Device_Library/Core/Src/usbd_core.c ****   * @attention
   8:Middlewares/ST/STM32_USB_Device_Library/Core/Src/usbd_core.c ****   *
   9:Middlewares/ST/STM32_USB_Device_Library/Core/Src/usbd_core.c ****   * <h2><center>&copy; Copyright (c) 2015 STMicroelectronics.
  10:Middlewares/ST/STM32_USB_Device_Library/Core/Src/usbd_core.c ****   * All rights reserved.</center></h2>
  11:Middlewares/ST/STM32_USB_Device_Library/Core/Src/usbd_core.c ****   *
  12:Middlewares/ST/STM32_USB_Device_Library/Core/Src/usbd_core.c ****   * This software component is licensed by ST under Ultimate Liberty license
  13:Middlewares/ST/STM32_USB_Device_Library/Core/Src/usbd_core.c ****   * SLA0044, the "License"; You may not use this file except in compliance with
  14:Middlewares/ST/STM32_USB_Device_Library/Core/Src/usbd_core.c ****   * the License. You may obtain a copy of the License at:
  15:Middlewares/ST/STM32_USB_Device_Library/Core/Src/usbd_core.c ****   *                      www.st.com/SLA0044
  16:Middlewares/ST/STM32_USB_Device_Library/Core/Src/usbd_core.c ****   *
  17:Middlewares/ST/STM32_USB_Device_Library/Core/Src/usbd_core.c ****   ******************************************************************************
  18:Middlewares/ST/STM32_USB_Device_Library/Core/Src/usbd_core.c ****   */
  19:Middlewares/ST/STM32_USB_Device_Library/Core/Src/usbd_core.c **** 
  20:Middlewares/ST/STM32_USB_Device_Library/Core/Src/usbd_core.c **** /* Includes ------------------------------------------------------------------*/
  21:Middlewares/ST/STM32_USB_Device_Library/Core/Src/usbd_core.c **** #include "usbd_core.h"
  22:Middlewares/ST/STM32_USB_Device_Library/Core/Src/usbd_core.c **** 
  23:Middlewares/ST/STM32_USB_Device_Library/Core/Src/usbd_core.c **** /** @addtogroup STM32_USBD_DEVICE_LIBRARY
  24:Middlewares/ST/STM32_USB_Device_Library/Core/Src/usbd_core.c **** * @{
  25:Middlewares/ST/STM32_USB_Device_Library/Core/Src/usbd_core.c **** */
  26:Middlewares/ST/STM32_USB_Device_Library/Core/Src/usbd_core.c **** 
  27:Middlewares/ST/STM32_USB_Device_Library/Core/Src/usbd_core.c **** 
  28:Middlewares/ST/STM32_USB_Device_Library/Core/Src/usbd_core.c **** /** @defgroup USBD_CORE
  29:Middlewares/ST/STM32_USB_Device_Library/Core/Src/usbd_core.c **** * @brief usbd core module
  30:Middlewares/ST/STM32_USB_Device_Library/Core/Src/usbd_core.c **** * @{
  31:Middlewares/ST/STM32_USB_Device_Library/Core/Src/usbd_core.c **** */
ARM GAS  C:\Users\JCEM\AppData\Local\Temp\cczytyPE.s 			page 2


  32:Middlewares/ST/STM32_USB_Device_Library/Core/Src/usbd_core.c **** 
  33:Middlewares/ST/STM32_USB_Device_Library/Core/Src/usbd_core.c **** /** @defgroup USBD_CORE_Private_TypesDefinitions
  34:Middlewares/ST/STM32_USB_Device_Library/Core/Src/usbd_core.c **** * @{
  35:Middlewares/ST/STM32_USB_Device_Library/Core/Src/usbd_core.c **** */
  36:Middlewares/ST/STM32_USB_Device_Library/Core/Src/usbd_core.c **** 
  37:Middlewares/ST/STM32_USB_Device_Library/Core/Src/usbd_core.c **** /**
  38:Middlewares/ST/STM32_USB_Device_Library/Core/Src/usbd_core.c **** * @}
  39:Middlewares/ST/STM32_USB_Device_Library/Core/Src/usbd_core.c **** */
  40:Middlewares/ST/STM32_USB_Device_Library/Core/Src/usbd_core.c **** 
  41:Middlewares/ST/STM32_USB_Device_Library/Core/Src/usbd_core.c **** 
  42:Middlewares/ST/STM32_USB_Device_Library/Core/Src/usbd_core.c **** /** @defgroup USBD_CORE_Private_Defines
  43:Middlewares/ST/STM32_USB_Device_Library/Core/Src/usbd_core.c **** * @{
  44:Middlewares/ST/STM32_USB_Device_Library/Core/Src/usbd_core.c **** */
  45:Middlewares/ST/STM32_USB_Device_Library/Core/Src/usbd_core.c **** 
  46:Middlewares/ST/STM32_USB_Device_Library/Core/Src/usbd_core.c **** /**
  47:Middlewares/ST/STM32_USB_Device_Library/Core/Src/usbd_core.c **** * @}
  48:Middlewares/ST/STM32_USB_Device_Library/Core/Src/usbd_core.c **** */
  49:Middlewares/ST/STM32_USB_Device_Library/Core/Src/usbd_core.c **** 
  50:Middlewares/ST/STM32_USB_Device_Library/Core/Src/usbd_core.c **** 
  51:Middlewares/ST/STM32_USB_Device_Library/Core/Src/usbd_core.c **** /** @defgroup USBD_CORE_Private_Macros
  52:Middlewares/ST/STM32_USB_Device_Library/Core/Src/usbd_core.c **** * @{
  53:Middlewares/ST/STM32_USB_Device_Library/Core/Src/usbd_core.c **** */
  54:Middlewares/ST/STM32_USB_Device_Library/Core/Src/usbd_core.c **** 
  55:Middlewares/ST/STM32_USB_Device_Library/Core/Src/usbd_core.c **** /**
  56:Middlewares/ST/STM32_USB_Device_Library/Core/Src/usbd_core.c **** * @}
  57:Middlewares/ST/STM32_USB_Device_Library/Core/Src/usbd_core.c **** */
  58:Middlewares/ST/STM32_USB_Device_Library/Core/Src/usbd_core.c **** 
  59:Middlewares/ST/STM32_USB_Device_Library/Core/Src/usbd_core.c **** 
  60:Middlewares/ST/STM32_USB_Device_Library/Core/Src/usbd_core.c **** /** @defgroup USBD_CORE_Private_FunctionPrototypes
  61:Middlewares/ST/STM32_USB_Device_Library/Core/Src/usbd_core.c **** * @{
  62:Middlewares/ST/STM32_USB_Device_Library/Core/Src/usbd_core.c **** */
  63:Middlewares/ST/STM32_USB_Device_Library/Core/Src/usbd_core.c **** 
  64:Middlewares/ST/STM32_USB_Device_Library/Core/Src/usbd_core.c **** /**
  65:Middlewares/ST/STM32_USB_Device_Library/Core/Src/usbd_core.c **** * @}
  66:Middlewares/ST/STM32_USB_Device_Library/Core/Src/usbd_core.c **** */
  67:Middlewares/ST/STM32_USB_Device_Library/Core/Src/usbd_core.c **** 
  68:Middlewares/ST/STM32_USB_Device_Library/Core/Src/usbd_core.c **** /** @defgroup USBD_CORE_Private_Variables
  69:Middlewares/ST/STM32_USB_Device_Library/Core/Src/usbd_core.c **** * @{
  70:Middlewares/ST/STM32_USB_Device_Library/Core/Src/usbd_core.c **** */
  71:Middlewares/ST/STM32_USB_Device_Library/Core/Src/usbd_core.c **** 
  72:Middlewares/ST/STM32_USB_Device_Library/Core/Src/usbd_core.c **** /**
  73:Middlewares/ST/STM32_USB_Device_Library/Core/Src/usbd_core.c **** * @}
  74:Middlewares/ST/STM32_USB_Device_Library/Core/Src/usbd_core.c **** */
  75:Middlewares/ST/STM32_USB_Device_Library/Core/Src/usbd_core.c **** 
  76:Middlewares/ST/STM32_USB_Device_Library/Core/Src/usbd_core.c **** 
  77:Middlewares/ST/STM32_USB_Device_Library/Core/Src/usbd_core.c **** /** @defgroup USBD_CORE_Private_Functions
  78:Middlewares/ST/STM32_USB_Device_Library/Core/Src/usbd_core.c **** * @{
  79:Middlewares/ST/STM32_USB_Device_Library/Core/Src/usbd_core.c **** */
  80:Middlewares/ST/STM32_USB_Device_Library/Core/Src/usbd_core.c **** 
  81:Middlewares/ST/STM32_USB_Device_Library/Core/Src/usbd_core.c **** /**
  82:Middlewares/ST/STM32_USB_Device_Library/Core/Src/usbd_core.c **** * @brief  USBD_Init
  83:Middlewares/ST/STM32_USB_Device_Library/Core/Src/usbd_core.c **** *         Initializes the device stack and load the class driver
  84:Middlewares/ST/STM32_USB_Device_Library/Core/Src/usbd_core.c **** * @param  pdev: device instance
  85:Middlewares/ST/STM32_USB_Device_Library/Core/Src/usbd_core.c **** * @param  pdesc: Descriptor structure address
  86:Middlewares/ST/STM32_USB_Device_Library/Core/Src/usbd_core.c **** * @param  id: Low level core index
  87:Middlewares/ST/STM32_USB_Device_Library/Core/Src/usbd_core.c **** * @retval None
  88:Middlewares/ST/STM32_USB_Device_Library/Core/Src/usbd_core.c **** */
ARM GAS  C:\Users\JCEM\AppData\Local\Temp\cczytyPE.s 			page 3


  89:Middlewares/ST/STM32_USB_Device_Library/Core/Src/usbd_core.c **** USBD_StatusTypeDef USBD_Init(USBD_HandleTypeDef *pdev,
  90:Middlewares/ST/STM32_USB_Device_Library/Core/Src/usbd_core.c ****                              USBD_DescriptorsTypeDef *pdesc, uint8_t id)
  91:Middlewares/ST/STM32_USB_Device_Library/Core/Src/usbd_core.c **** {
  28              		.loc 1 91 1 view -0
  29              		.cfi_startproc
  30              		@ args = 0, pretend = 0, frame = 0
  31              		@ frame_needed = 0, uses_anonymous_args = 0
  92:Middlewares/ST/STM32_USB_Device_Library/Core/Src/usbd_core.c ****   /* Check whether the USB Host handle is valid */
  93:Middlewares/ST/STM32_USB_Device_Library/Core/Src/usbd_core.c ****   if (pdev == NULL)
  32              		.loc 1 93 3 view .LVU1
  33              		.loc 1 93 6 is_stmt 0 view .LVU2
  34 0000 98B1     		cbz	r0, .L5
  91:Middlewares/ST/STM32_USB_Device_Library/Core/Src/usbd_core.c ****   /* Check whether the USB Host handle is valid */
  35              		.loc 1 91 1 view .LVU3
  36 0002 08B5     		push	{r3, lr}
  37              	.LCFI0:
  38              		.cfi_def_cfa_offset 8
  39              		.cfi_offset 3, -8
  40              		.cfi_offset 14, -4
  41 0004 0346     		mov	r3, r0
  94:Middlewares/ST/STM32_USB_Device_Library/Core/Src/usbd_core.c ****   {
  95:Middlewares/ST/STM32_USB_Device_Library/Core/Src/usbd_core.c **** #if (USBD_DEBUG_LEVEL > 1U)
  96:Middlewares/ST/STM32_USB_Device_Library/Core/Src/usbd_core.c ****     USBD_ErrLog("Invalid Device handle");
  97:Middlewares/ST/STM32_USB_Device_Library/Core/Src/usbd_core.c **** #endif
  98:Middlewares/ST/STM32_USB_Device_Library/Core/Src/usbd_core.c ****     return USBD_FAIL;
  99:Middlewares/ST/STM32_USB_Device_Library/Core/Src/usbd_core.c ****   }
 100:Middlewares/ST/STM32_USB_Device_Library/Core/Src/usbd_core.c **** 
 101:Middlewares/ST/STM32_USB_Device_Library/Core/Src/usbd_core.c ****   /* Unlink previous class*/
 102:Middlewares/ST/STM32_USB_Device_Library/Core/Src/usbd_core.c ****   if (pdev->pClass != NULL)
  42              		.loc 1 102 3 is_stmt 1 view .LVU4
  43              		.loc 1 102 11 is_stmt 0 view .LVU5
  44 0006 D0F8B402 		ldr	r0, [r0, #692]
  45              	.LVL1:
  46              		.loc 1 102 6 view .LVU6
  47 000a 10B1     		cbz	r0, .L3
 103:Middlewares/ST/STM32_USB_Device_Library/Core/Src/usbd_core.c ****   {
 104:Middlewares/ST/STM32_USB_Device_Library/Core/Src/usbd_core.c ****     pdev->pClass = NULL;
  48              		.loc 1 104 5 is_stmt 1 view .LVU7
  49              		.loc 1 104 18 is_stmt 0 view .LVU8
  50 000c 0020     		movs	r0, #0
  51 000e C3F8B402 		str	r0, [r3, #692]
  52              	.L3:
 105:Middlewares/ST/STM32_USB_Device_Library/Core/Src/usbd_core.c ****   }
 106:Middlewares/ST/STM32_USB_Device_Library/Core/Src/usbd_core.c **** 
 107:Middlewares/ST/STM32_USB_Device_Library/Core/Src/usbd_core.c ****   /* Assign USBD Descriptors */
 108:Middlewares/ST/STM32_USB_Device_Library/Core/Src/usbd_core.c ****   if (pdesc != NULL)
  53              		.loc 1 108 3 is_stmt 1 view .LVU9
  54              		.loc 1 108 6 is_stmt 0 view .LVU10
  55 0012 09B1     		cbz	r1, .L4
 109:Middlewares/ST/STM32_USB_Device_Library/Core/Src/usbd_core.c ****   {
 110:Middlewares/ST/STM32_USB_Device_Library/Core/Src/usbd_core.c ****     pdev->pDesc = pdesc;
  56              		.loc 1 110 5 is_stmt 1 view .LVU11
  57              		.loc 1 110 17 is_stmt 0 view .LVU12
  58 0014 C3F8B012 		str	r1, [r3, #688]
  59              	.L4:
 111:Middlewares/ST/STM32_USB_Device_Library/Core/Src/usbd_core.c ****   }
 112:Middlewares/ST/STM32_USB_Device_Library/Core/Src/usbd_core.c **** 
ARM GAS  C:\Users\JCEM\AppData\Local\Temp\cczytyPE.s 			page 4


 113:Middlewares/ST/STM32_USB_Device_Library/Core/Src/usbd_core.c ****   /* Set Device initial State */
 114:Middlewares/ST/STM32_USB_Device_Library/Core/Src/usbd_core.c ****   pdev->dev_state = USBD_STATE_DEFAULT;
  60              		.loc 1 114 3 is_stmt 1 view .LVU13
  61              		.loc 1 114 19 is_stmt 0 view .LVU14
  62 0018 0121     		movs	r1, #1
  63              	.LVL2:
  64              		.loc 1 114 19 view .LVU15
  65 001a 83F89C12 		strb	r1, [r3, #668]
 115:Middlewares/ST/STM32_USB_Device_Library/Core/Src/usbd_core.c ****   pdev->id = id;
  66              		.loc 1 115 3 is_stmt 1 view .LVU16
  67              		.loc 1 115 12 is_stmt 0 view .LVU17
  68 001e 1A70     		strb	r2, [r3]
 116:Middlewares/ST/STM32_USB_Device_Library/Core/Src/usbd_core.c ****   /* Initialize low level driver */
 117:Middlewares/ST/STM32_USB_Device_Library/Core/Src/usbd_core.c ****   USBD_LL_Init(pdev);
  69              		.loc 1 117 3 is_stmt 1 view .LVU18
  70 0020 1846     		mov	r0, r3
  71 0022 FFF7FEFF 		bl	USBD_LL_Init
  72              	.LVL3:
 118:Middlewares/ST/STM32_USB_Device_Library/Core/Src/usbd_core.c **** 
 119:Middlewares/ST/STM32_USB_Device_Library/Core/Src/usbd_core.c ****   return USBD_OK;
  73              		.loc 1 119 3 view .LVU19
  74              		.loc 1 119 10 is_stmt 0 view .LVU20
  75 0026 0020     		movs	r0, #0
 120:Middlewares/ST/STM32_USB_Device_Library/Core/Src/usbd_core.c **** }
  76              		.loc 1 120 1 view .LVU21
  77 0028 08BD     		pop	{r3, pc}
  78              	.LVL4:
  79              	.L5:
  80              	.LCFI1:
  81              		.cfi_def_cfa_offset 0
  82              		.cfi_restore 3
  83              		.cfi_restore 14
  98:Middlewares/ST/STM32_USB_Device_Library/Core/Src/usbd_core.c ****   }
  84              		.loc 1 98 12 view .LVU22
  85 002a 0220     		movs	r0, #2
  86              	.LVL5:
  87              		.loc 1 120 1 view .LVU23
  88 002c 7047     		bx	lr
  89              		.cfi_endproc
  90              	.LFE68:
  92              		.section	.text.USBD_DeInit,"ax",%progbits
  93              		.align	1
  94              		.global	USBD_DeInit
  95              		.syntax unified
  96              		.thumb
  97              		.thumb_func
  98              		.fpu softvfp
 100              	USBD_DeInit:
 101              	.LVL6:
 102              	.LFB69:
 121:Middlewares/ST/STM32_USB_Device_Library/Core/Src/usbd_core.c **** 
 122:Middlewares/ST/STM32_USB_Device_Library/Core/Src/usbd_core.c **** /**
 123:Middlewares/ST/STM32_USB_Device_Library/Core/Src/usbd_core.c **** * @brief  USBD_DeInit
 124:Middlewares/ST/STM32_USB_Device_Library/Core/Src/usbd_core.c **** *         Re-Initialize th device library
 125:Middlewares/ST/STM32_USB_Device_Library/Core/Src/usbd_core.c **** * @param  pdev: device instance
 126:Middlewares/ST/STM32_USB_Device_Library/Core/Src/usbd_core.c **** * @retval status: status
 127:Middlewares/ST/STM32_USB_Device_Library/Core/Src/usbd_core.c **** */
ARM GAS  C:\Users\JCEM\AppData\Local\Temp\cczytyPE.s 			page 5


 128:Middlewares/ST/STM32_USB_Device_Library/Core/Src/usbd_core.c **** USBD_StatusTypeDef USBD_DeInit(USBD_HandleTypeDef *pdev)
 129:Middlewares/ST/STM32_USB_Device_Library/Core/Src/usbd_core.c **** {
 103              		.loc 1 129 1 is_stmt 1 view -0
 104              		.cfi_startproc
 105              		@ args = 0, pretend = 0, frame = 0
 106              		@ frame_needed = 0, uses_anonymous_args = 0
 107              		.loc 1 129 1 is_stmt 0 view .LVU25
 108 0000 10B5     		push	{r4, lr}
 109              	.LCFI2:
 110              		.cfi_def_cfa_offset 8
 111              		.cfi_offset 4, -8
 112              		.cfi_offset 14, -4
 113 0002 0446     		mov	r4, r0
 130:Middlewares/ST/STM32_USB_Device_Library/Core/Src/usbd_core.c ****   /* Set Default State */
 131:Middlewares/ST/STM32_USB_Device_Library/Core/Src/usbd_core.c ****   pdev->dev_state = USBD_STATE_DEFAULT;
 114              		.loc 1 131 3 is_stmt 1 view .LVU26
 115              		.loc 1 131 19 is_stmt 0 view .LVU27
 116 0004 0123     		movs	r3, #1
 117 0006 80F89C32 		strb	r3, [r0, #668]
 132:Middlewares/ST/STM32_USB_Device_Library/Core/Src/usbd_core.c **** 
 133:Middlewares/ST/STM32_USB_Device_Library/Core/Src/usbd_core.c ****   /* Free Class Resources */
 134:Middlewares/ST/STM32_USB_Device_Library/Core/Src/usbd_core.c ****   pdev->pClass->DeInit(pdev, (uint8_t)pdev->dev_config);
 118              		.loc 1 134 3 is_stmt 1 view .LVU28
 119              		.loc 1 134 7 is_stmt 0 view .LVU29
 120 000a D0F8B432 		ldr	r3, [r0, #692]
 121              		.loc 1 134 15 view .LVU30
 122 000e 5B68     		ldr	r3, [r3, #4]
 123              		.loc 1 134 3 view .LVU31
 124 0010 0179     		ldrb	r1, [r0, #4]	@ zero_extendqisi2
 125 0012 9847     		blx	r3
 126              	.LVL7:
 135:Middlewares/ST/STM32_USB_Device_Library/Core/Src/usbd_core.c **** 
 136:Middlewares/ST/STM32_USB_Device_Library/Core/Src/usbd_core.c ****   /* Stop the low level driver  */
 137:Middlewares/ST/STM32_USB_Device_Library/Core/Src/usbd_core.c ****   USBD_LL_Stop(pdev);
 127              		.loc 1 137 3 is_stmt 1 view .LVU32
 128 0014 2046     		mov	r0, r4
 129 0016 FFF7FEFF 		bl	USBD_LL_Stop
 130              	.LVL8:
 138:Middlewares/ST/STM32_USB_Device_Library/Core/Src/usbd_core.c **** 
 139:Middlewares/ST/STM32_USB_Device_Library/Core/Src/usbd_core.c ****   /* Initialize low level driver */
 140:Middlewares/ST/STM32_USB_Device_Library/Core/Src/usbd_core.c ****   USBD_LL_DeInit(pdev);
 131              		.loc 1 140 3 view .LVU33
 132 001a 2046     		mov	r0, r4
 133 001c FFF7FEFF 		bl	USBD_LL_DeInit
 134              	.LVL9:
 141:Middlewares/ST/STM32_USB_Device_Library/Core/Src/usbd_core.c **** 
 142:Middlewares/ST/STM32_USB_Device_Library/Core/Src/usbd_core.c ****   return USBD_OK;
 135              		.loc 1 142 3 view .LVU34
 143:Middlewares/ST/STM32_USB_Device_Library/Core/Src/usbd_core.c **** }
 136              		.loc 1 143 1 is_stmt 0 view .LVU35
 137 0020 0020     		movs	r0, #0
 138 0022 10BD     		pop	{r4, pc}
 139              		.loc 1 143 1 view .LVU36
 140              		.cfi_endproc
 141              	.LFE69:
 143              		.section	.text.USBD_RegisterClass,"ax",%progbits
 144              		.align	1
ARM GAS  C:\Users\JCEM\AppData\Local\Temp\cczytyPE.s 			page 6


 145              		.global	USBD_RegisterClass
 146              		.syntax unified
 147              		.thumb
 148              		.thumb_func
 149              		.fpu softvfp
 151              	USBD_RegisterClass:
 152              	.LVL10:
 153              	.LFB70:
 144:Middlewares/ST/STM32_USB_Device_Library/Core/Src/usbd_core.c **** 
 145:Middlewares/ST/STM32_USB_Device_Library/Core/Src/usbd_core.c **** /**
 146:Middlewares/ST/STM32_USB_Device_Library/Core/Src/usbd_core.c ****   * @brief  USBD_RegisterClass
 147:Middlewares/ST/STM32_USB_Device_Library/Core/Src/usbd_core.c ****   *         Link class driver to Device Core.
 148:Middlewares/ST/STM32_USB_Device_Library/Core/Src/usbd_core.c ****   * @param  pDevice : Device Handle
 149:Middlewares/ST/STM32_USB_Device_Library/Core/Src/usbd_core.c ****   * @param  pclass: Class handle
 150:Middlewares/ST/STM32_USB_Device_Library/Core/Src/usbd_core.c ****   * @retval USBD Status
 151:Middlewares/ST/STM32_USB_Device_Library/Core/Src/usbd_core.c ****   */
 152:Middlewares/ST/STM32_USB_Device_Library/Core/Src/usbd_core.c **** USBD_StatusTypeDef  USBD_RegisterClass(USBD_HandleTypeDef *pdev, USBD_ClassTypeDef *pclass)
 153:Middlewares/ST/STM32_USB_Device_Library/Core/Src/usbd_core.c **** {
 154              		.loc 1 153 1 is_stmt 1 view -0
 155              		.cfi_startproc
 156              		@ args = 0, pretend = 0, frame = 0
 157              		@ frame_needed = 0, uses_anonymous_args = 0
 158              		@ link register save eliminated.
 154:Middlewares/ST/STM32_USB_Device_Library/Core/Src/usbd_core.c ****   USBD_StatusTypeDef status = USBD_OK;
 159              		.loc 1 154 3 view .LVU38
 155:Middlewares/ST/STM32_USB_Device_Library/Core/Src/usbd_core.c ****   if (pclass != NULL)
 160              		.loc 1 155 3 view .LVU39
 161              		.loc 1 155 6 is_stmt 0 view .LVU40
 162 0000 19B1     		cbz	r1, .L14
 156:Middlewares/ST/STM32_USB_Device_Library/Core/Src/usbd_core.c ****   {
 157:Middlewares/ST/STM32_USB_Device_Library/Core/Src/usbd_core.c ****     /* link the class to the USB Device handle */
 158:Middlewares/ST/STM32_USB_Device_Library/Core/Src/usbd_core.c ****     pdev->pClass = pclass;
 163              		.loc 1 158 5 is_stmt 1 view .LVU41
 164              		.loc 1 158 18 is_stmt 0 view .LVU42
 165 0002 C0F8B412 		str	r1, [r0, #692]
 159:Middlewares/ST/STM32_USB_Device_Library/Core/Src/usbd_core.c ****     status = USBD_OK;
 166              		.loc 1 159 5 is_stmt 1 view .LVU43
 167              		.loc 1 159 12 is_stmt 0 view .LVU44
 168 0006 0020     		movs	r0, #0
 169              	.LVL11:
 170              		.loc 1 159 12 view .LVU45
 171 0008 7047     		bx	lr
 172              	.LVL12:
 173              	.L14:
 160:Middlewares/ST/STM32_USB_Device_Library/Core/Src/usbd_core.c ****   }
 161:Middlewares/ST/STM32_USB_Device_Library/Core/Src/usbd_core.c ****   else
 162:Middlewares/ST/STM32_USB_Device_Library/Core/Src/usbd_core.c ****   {
 163:Middlewares/ST/STM32_USB_Device_Library/Core/Src/usbd_core.c **** #if (USBD_DEBUG_LEVEL > 1U)
 164:Middlewares/ST/STM32_USB_Device_Library/Core/Src/usbd_core.c ****     USBD_ErrLog("Invalid Class handle");
 165:Middlewares/ST/STM32_USB_Device_Library/Core/Src/usbd_core.c **** #endif
 166:Middlewares/ST/STM32_USB_Device_Library/Core/Src/usbd_core.c ****     status = USBD_FAIL;
 174              		.loc 1 166 12 view .LVU46
 175 000a 0220     		movs	r0, #2
 176              	.LVL13:
 167:Middlewares/ST/STM32_USB_Device_Library/Core/Src/usbd_core.c ****   }
 168:Middlewares/ST/STM32_USB_Device_Library/Core/Src/usbd_core.c **** 
 169:Middlewares/ST/STM32_USB_Device_Library/Core/Src/usbd_core.c ****   return status;
ARM GAS  C:\Users\JCEM\AppData\Local\Temp\cczytyPE.s 			page 7


 177              		.loc 1 169 3 is_stmt 1 view .LVU47
 170:Middlewares/ST/STM32_USB_Device_Library/Core/Src/usbd_core.c **** }
 178              		.loc 1 170 1 is_stmt 0 view .LVU48
 179 000c 7047     		bx	lr
 180              		.cfi_endproc
 181              	.LFE70:
 183              		.section	.text.USBD_Start,"ax",%progbits
 184              		.align	1
 185              		.global	USBD_Start
 186              		.syntax unified
 187              		.thumb
 188              		.thumb_func
 189              		.fpu softvfp
 191              	USBD_Start:
 192              	.LVL14:
 193              	.LFB71:
 171:Middlewares/ST/STM32_USB_Device_Library/Core/Src/usbd_core.c **** 
 172:Middlewares/ST/STM32_USB_Device_Library/Core/Src/usbd_core.c **** /**
 173:Middlewares/ST/STM32_USB_Device_Library/Core/Src/usbd_core.c ****   * @brief  USBD_Start
 174:Middlewares/ST/STM32_USB_Device_Library/Core/Src/usbd_core.c ****   *         Start the USB Device Core.
 175:Middlewares/ST/STM32_USB_Device_Library/Core/Src/usbd_core.c ****   * @param  pdev: Device Handle
 176:Middlewares/ST/STM32_USB_Device_Library/Core/Src/usbd_core.c ****   * @retval USBD Status
 177:Middlewares/ST/STM32_USB_Device_Library/Core/Src/usbd_core.c ****   */
 178:Middlewares/ST/STM32_USB_Device_Library/Core/Src/usbd_core.c **** USBD_StatusTypeDef  USBD_Start(USBD_HandleTypeDef *pdev)
 179:Middlewares/ST/STM32_USB_Device_Library/Core/Src/usbd_core.c **** {
 194              		.loc 1 179 1 is_stmt 1 view -0
 195              		.cfi_startproc
 196              		@ args = 0, pretend = 0, frame = 0
 197              		@ frame_needed = 0, uses_anonymous_args = 0
 198              		.loc 1 179 1 is_stmt 0 view .LVU50
 199 0000 08B5     		push	{r3, lr}
 200              	.LCFI3:
 201              		.cfi_def_cfa_offset 8
 202              		.cfi_offset 3, -8
 203              		.cfi_offset 14, -4
 180:Middlewares/ST/STM32_USB_Device_Library/Core/Src/usbd_core.c ****   /* Start the low level driver  */
 181:Middlewares/ST/STM32_USB_Device_Library/Core/Src/usbd_core.c ****   USBD_LL_Start(pdev);
 204              		.loc 1 181 3 is_stmt 1 view .LVU51
 205 0002 FFF7FEFF 		bl	USBD_LL_Start
 206              	.LVL15:
 182:Middlewares/ST/STM32_USB_Device_Library/Core/Src/usbd_core.c **** 
 183:Middlewares/ST/STM32_USB_Device_Library/Core/Src/usbd_core.c ****   return USBD_OK;
 207              		.loc 1 183 3 view .LVU52
 184:Middlewares/ST/STM32_USB_Device_Library/Core/Src/usbd_core.c **** }
 208              		.loc 1 184 1 is_stmt 0 view .LVU53
 209 0006 0020     		movs	r0, #0
 210 0008 08BD     		pop	{r3, pc}
 211              		.cfi_endproc
 212              	.LFE71:
 214              		.section	.text.USBD_Stop,"ax",%progbits
 215              		.align	1
 216              		.global	USBD_Stop
 217              		.syntax unified
 218              		.thumb
 219              		.thumb_func
 220              		.fpu softvfp
 222              	USBD_Stop:
ARM GAS  C:\Users\JCEM\AppData\Local\Temp\cczytyPE.s 			page 8


 223              	.LVL16:
 224              	.LFB72:
 185:Middlewares/ST/STM32_USB_Device_Library/Core/Src/usbd_core.c **** 
 186:Middlewares/ST/STM32_USB_Device_Library/Core/Src/usbd_core.c **** /**
 187:Middlewares/ST/STM32_USB_Device_Library/Core/Src/usbd_core.c ****   * @brief  USBD_Stop
 188:Middlewares/ST/STM32_USB_Device_Library/Core/Src/usbd_core.c ****   *         Stop the USB Device Core.
 189:Middlewares/ST/STM32_USB_Device_Library/Core/Src/usbd_core.c ****   * @param  pdev: Device Handle
 190:Middlewares/ST/STM32_USB_Device_Library/Core/Src/usbd_core.c ****   * @retval USBD Status
 191:Middlewares/ST/STM32_USB_Device_Library/Core/Src/usbd_core.c ****   */
 192:Middlewares/ST/STM32_USB_Device_Library/Core/Src/usbd_core.c **** USBD_StatusTypeDef  USBD_Stop(USBD_HandleTypeDef *pdev)
 193:Middlewares/ST/STM32_USB_Device_Library/Core/Src/usbd_core.c **** {
 225              		.loc 1 193 1 is_stmt 1 view -0
 226              		.cfi_startproc
 227              		@ args = 0, pretend = 0, frame = 0
 228              		@ frame_needed = 0, uses_anonymous_args = 0
 229              		.loc 1 193 1 is_stmt 0 view .LVU55
 230 0000 10B5     		push	{r4, lr}
 231              	.LCFI4:
 232              		.cfi_def_cfa_offset 8
 233              		.cfi_offset 4, -8
 234              		.cfi_offset 14, -4
 235 0002 0446     		mov	r4, r0
 194:Middlewares/ST/STM32_USB_Device_Library/Core/Src/usbd_core.c ****   /* Free Class Resources */
 195:Middlewares/ST/STM32_USB_Device_Library/Core/Src/usbd_core.c ****   pdev->pClass->DeInit(pdev, (uint8_t)pdev->dev_config);
 236              		.loc 1 195 3 is_stmt 1 view .LVU56
 237              		.loc 1 195 7 is_stmt 0 view .LVU57
 238 0004 D0F8B432 		ldr	r3, [r0, #692]
 239              		.loc 1 195 15 view .LVU58
 240 0008 5B68     		ldr	r3, [r3, #4]
 241              		.loc 1 195 3 view .LVU59
 242 000a 0179     		ldrb	r1, [r0, #4]	@ zero_extendqisi2
 243 000c 9847     		blx	r3
 244              	.LVL17:
 196:Middlewares/ST/STM32_USB_Device_Library/Core/Src/usbd_core.c **** 
 197:Middlewares/ST/STM32_USB_Device_Library/Core/Src/usbd_core.c ****   /* Stop the low level driver */
 198:Middlewares/ST/STM32_USB_Device_Library/Core/Src/usbd_core.c ****   USBD_LL_Stop(pdev);
 245              		.loc 1 198 3 is_stmt 1 view .LVU60
 246 000e 2046     		mov	r0, r4
 247 0010 FFF7FEFF 		bl	USBD_LL_Stop
 248              	.LVL18:
 199:Middlewares/ST/STM32_USB_Device_Library/Core/Src/usbd_core.c **** 
 200:Middlewares/ST/STM32_USB_Device_Library/Core/Src/usbd_core.c ****   return USBD_OK;
 249              		.loc 1 200 3 view .LVU61
 201:Middlewares/ST/STM32_USB_Device_Library/Core/Src/usbd_core.c **** }
 250              		.loc 1 201 1 is_stmt 0 view .LVU62
 251 0014 0020     		movs	r0, #0
 252 0016 10BD     		pop	{r4, pc}
 253              		.loc 1 201 1 view .LVU63
 254              		.cfi_endproc
 255              	.LFE72:
 257              		.section	.text.USBD_RunTestMode,"ax",%progbits
 258              		.align	1
 259              		.global	USBD_RunTestMode
 260              		.syntax unified
 261              		.thumb
 262              		.thumb_func
 263              		.fpu softvfp
ARM GAS  C:\Users\JCEM\AppData\Local\Temp\cczytyPE.s 			page 9


 265              	USBD_RunTestMode:
 266              	.LVL19:
 267              	.LFB73:
 202:Middlewares/ST/STM32_USB_Device_Library/Core/Src/usbd_core.c **** 
 203:Middlewares/ST/STM32_USB_Device_Library/Core/Src/usbd_core.c **** /**
 204:Middlewares/ST/STM32_USB_Device_Library/Core/Src/usbd_core.c **** * @brief  USBD_RunTestMode
 205:Middlewares/ST/STM32_USB_Device_Library/Core/Src/usbd_core.c **** *         Launch test mode process
 206:Middlewares/ST/STM32_USB_Device_Library/Core/Src/usbd_core.c **** * @param  pdev: device instance
 207:Middlewares/ST/STM32_USB_Device_Library/Core/Src/usbd_core.c **** * @retval status
 208:Middlewares/ST/STM32_USB_Device_Library/Core/Src/usbd_core.c **** */
 209:Middlewares/ST/STM32_USB_Device_Library/Core/Src/usbd_core.c **** USBD_StatusTypeDef  USBD_RunTestMode(USBD_HandleTypeDef  *pdev)
 210:Middlewares/ST/STM32_USB_Device_Library/Core/Src/usbd_core.c **** {
 268              		.loc 1 210 1 is_stmt 1 view -0
 269              		.cfi_startproc
 270              		@ args = 0, pretend = 0, frame = 0
 271              		@ frame_needed = 0, uses_anonymous_args = 0
 272              		@ link register save eliminated.
 211:Middlewares/ST/STM32_USB_Device_Library/Core/Src/usbd_core.c ****   /* Prevent unused argument compilation warning */
 212:Middlewares/ST/STM32_USB_Device_Library/Core/Src/usbd_core.c ****   UNUSED(pdev);
 273              		.loc 1 212 3 view .LVU65
 213:Middlewares/ST/STM32_USB_Device_Library/Core/Src/usbd_core.c **** 
 214:Middlewares/ST/STM32_USB_Device_Library/Core/Src/usbd_core.c ****   return USBD_OK;
 274              		.loc 1 214 3 view .LVU66
 215:Middlewares/ST/STM32_USB_Device_Library/Core/Src/usbd_core.c **** }
 275              		.loc 1 215 1 is_stmt 0 view .LVU67
 276 0000 0020     		movs	r0, #0
 277              	.LVL20:
 278              		.loc 1 215 1 view .LVU68
 279 0002 7047     		bx	lr
 280              		.cfi_endproc
 281              	.LFE73:
 283              		.section	.text.USBD_SetClassConfig,"ax",%progbits
 284              		.align	1
 285              		.global	USBD_SetClassConfig
 286              		.syntax unified
 287              		.thumb
 288              		.thumb_func
 289              		.fpu softvfp
 291              	USBD_SetClassConfig:
 292              	.LVL21:
 293              	.LFB74:
 216:Middlewares/ST/STM32_USB_Device_Library/Core/Src/usbd_core.c **** 
 217:Middlewares/ST/STM32_USB_Device_Library/Core/Src/usbd_core.c **** /**
 218:Middlewares/ST/STM32_USB_Device_Library/Core/Src/usbd_core.c **** * @brief  USBD_SetClassConfig
 219:Middlewares/ST/STM32_USB_Device_Library/Core/Src/usbd_core.c **** *        Configure device and start the interface
 220:Middlewares/ST/STM32_USB_Device_Library/Core/Src/usbd_core.c **** * @param  pdev: device instance
 221:Middlewares/ST/STM32_USB_Device_Library/Core/Src/usbd_core.c **** * @param  cfgidx: configuration index
 222:Middlewares/ST/STM32_USB_Device_Library/Core/Src/usbd_core.c **** * @retval status
 223:Middlewares/ST/STM32_USB_Device_Library/Core/Src/usbd_core.c **** */
 224:Middlewares/ST/STM32_USB_Device_Library/Core/Src/usbd_core.c **** 
 225:Middlewares/ST/STM32_USB_Device_Library/Core/Src/usbd_core.c **** USBD_StatusTypeDef USBD_SetClassConfig(USBD_HandleTypeDef  *pdev, uint8_t cfgidx)
 226:Middlewares/ST/STM32_USB_Device_Library/Core/Src/usbd_core.c **** {
 294              		.loc 1 226 1 is_stmt 1 view -0
 295              		.cfi_startproc
 296              		@ args = 0, pretend = 0, frame = 0
 297              		@ frame_needed = 0, uses_anonymous_args = 0
 298              		.loc 1 226 1 is_stmt 0 view .LVU70
ARM GAS  C:\Users\JCEM\AppData\Local\Temp\cczytyPE.s 			page 10


 299 0000 08B5     		push	{r3, lr}
 300              	.LCFI5:
 301              		.cfi_def_cfa_offset 8
 302              		.cfi_offset 3, -8
 303              		.cfi_offset 14, -4
 227:Middlewares/ST/STM32_USB_Device_Library/Core/Src/usbd_core.c ****   USBD_StatusTypeDef ret = USBD_FAIL;
 304              		.loc 1 227 3 is_stmt 1 view .LVU71
 305              	.LVL22:
 228:Middlewares/ST/STM32_USB_Device_Library/Core/Src/usbd_core.c **** 
 229:Middlewares/ST/STM32_USB_Device_Library/Core/Src/usbd_core.c ****   if (pdev->pClass != NULL)
 306              		.loc 1 229 3 view .LVU72
 307              		.loc 1 229 11 is_stmt 0 view .LVU73
 308 0002 D0F8B432 		ldr	r3, [r0, #692]
 309              		.loc 1 229 6 view .LVU74
 310 0006 2BB1     		cbz	r3, .L22
 230:Middlewares/ST/STM32_USB_Device_Library/Core/Src/usbd_core.c ****   {
 231:Middlewares/ST/STM32_USB_Device_Library/Core/Src/usbd_core.c ****     /* Set configuration  and Start the Class*/
 232:Middlewares/ST/STM32_USB_Device_Library/Core/Src/usbd_core.c ****     if (pdev->pClass->Init(pdev, cfgidx) == 0U)
 311              		.loc 1 232 5 is_stmt 1 view .LVU75
 312              		.loc 1 232 21 is_stmt 0 view .LVU76
 313 0008 1B68     		ldr	r3, [r3]
 314              		.loc 1 232 9 view .LVU77
 315 000a 9847     		blx	r3
 316              	.LVL23:
 317              		.loc 1 232 8 view .LVU78
 318 000c 00B9     		cbnz	r0, .L24
 319              	.L21:
 320              	.LVL24:
 233:Middlewares/ST/STM32_USB_Device_Library/Core/Src/usbd_core.c ****     {
 234:Middlewares/ST/STM32_USB_Device_Library/Core/Src/usbd_core.c ****       ret = USBD_OK;
 235:Middlewares/ST/STM32_USB_Device_Library/Core/Src/usbd_core.c ****     }
 236:Middlewares/ST/STM32_USB_Device_Library/Core/Src/usbd_core.c ****   }
 237:Middlewares/ST/STM32_USB_Device_Library/Core/Src/usbd_core.c **** 
 238:Middlewares/ST/STM32_USB_Device_Library/Core/Src/usbd_core.c ****   return ret;
 321              		.loc 1 238 3 is_stmt 1 view .LVU79
 239:Middlewares/ST/STM32_USB_Device_Library/Core/Src/usbd_core.c **** }
 322              		.loc 1 239 1 is_stmt 0 view .LVU80
 323 000e 08BD     		pop	{r3, pc}
 324              	.LVL25:
 325              	.L24:
 227:Middlewares/ST/STM32_USB_Device_Library/Core/Src/usbd_core.c **** 
 326              		.loc 1 227 22 view .LVU81
 327 0010 0220     		movs	r0, #2
 328 0012 FCE7     		b	.L21
 329              	.LVL26:
 330              	.L22:
 227:Middlewares/ST/STM32_USB_Device_Library/Core/Src/usbd_core.c **** 
 331              		.loc 1 227 22 view .LVU82
 332 0014 0220     		movs	r0, #2
 333              	.LVL27:
 227:Middlewares/ST/STM32_USB_Device_Library/Core/Src/usbd_core.c **** 
 334              		.loc 1 227 22 view .LVU83
 335 0016 FAE7     		b	.L21
 336              		.cfi_endproc
 337              	.LFE74:
 339              		.section	.text.USBD_ClrClassConfig,"ax",%progbits
 340              		.align	1
ARM GAS  C:\Users\JCEM\AppData\Local\Temp\cczytyPE.s 			page 11


 341              		.global	USBD_ClrClassConfig
 342              		.syntax unified
 343              		.thumb
 344              		.thumb_func
 345              		.fpu softvfp
 347              	USBD_ClrClassConfig:
 348              	.LVL28:
 349              	.LFB75:
 240:Middlewares/ST/STM32_USB_Device_Library/Core/Src/usbd_core.c **** 
 241:Middlewares/ST/STM32_USB_Device_Library/Core/Src/usbd_core.c **** /**
 242:Middlewares/ST/STM32_USB_Device_Library/Core/Src/usbd_core.c **** * @brief  USBD_ClrClassConfig
 243:Middlewares/ST/STM32_USB_Device_Library/Core/Src/usbd_core.c **** *         Clear current configuration
 244:Middlewares/ST/STM32_USB_Device_Library/Core/Src/usbd_core.c **** * @param  pdev: device instance
 245:Middlewares/ST/STM32_USB_Device_Library/Core/Src/usbd_core.c **** * @param  cfgidx: configuration index
 246:Middlewares/ST/STM32_USB_Device_Library/Core/Src/usbd_core.c **** * @retval status: USBD_StatusTypeDef
 247:Middlewares/ST/STM32_USB_Device_Library/Core/Src/usbd_core.c **** */
 248:Middlewares/ST/STM32_USB_Device_Library/Core/Src/usbd_core.c **** USBD_StatusTypeDef USBD_ClrClassConfig(USBD_HandleTypeDef  *pdev, uint8_t cfgidx)
 249:Middlewares/ST/STM32_USB_Device_Library/Core/Src/usbd_core.c **** {
 350              		.loc 1 249 1 is_stmt 1 view -0
 351              		.cfi_startproc
 352              		@ args = 0, pretend = 0, frame = 0
 353              		@ frame_needed = 0, uses_anonymous_args = 0
 354              		.loc 1 249 1 is_stmt 0 view .LVU85
 355 0000 08B5     		push	{r3, lr}
 356              	.LCFI6:
 357              		.cfi_def_cfa_offset 8
 358              		.cfi_offset 3, -8
 359              		.cfi_offset 14, -4
 250:Middlewares/ST/STM32_USB_Device_Library/Core/Src/usbd_core.c ****   /* Clear configuration  and De-initialize the Class process*/
 251:Middlewares/ST/STM32_USB_Device_Library/Core/Src/usbd_core.c ****   pdev->pClass->DeInit(pdev, cfgidx);
 360              		.loc 1 251 3 is_stmt 1 view .LVU86
 361              		.loc 1 251 7 is_stmt 0 view .LVU87
 362 0002 D0F8B432 		ldr	r3, [r0, #692]
 363              		.loc 1 251 15 view .LVU88
 364 0006 5B68     		ldr	r3, [r3, #4]
 365              		.loc 1 251 3 view .LVU89
 366 0008 9847     		blx	r3
 367              	.LVL29:
 252:Middlewares/ST/STM32_USB_Device_Library/Core/Src/usbd_core.c **** 
 253:Middlewares/ST/STM32_USB_Device_Library/Core/Src/usbd_core.c ****   return USBD_OK;
 368              		.loc 1 253 3 is_stmt 1 view .LVU90
 254:Middlewares/ST/STM32_USB_Device_Library/Core/Src/usbd_core.c **** }
 369              		.loc 1 254 1 is_stmt 0 view .LVU91
 370 000a 0020     		movs	r0, #0
 371 000c 08BD     		pop	{r3, pc}
 372              		.cfi_endproc
 373              	.LFE75:
 375              		.section	.text.USBD_LL_SetupStage,"ax",%progbits
 376              		.align	1
 377              		.global	USBD_LL_SetupStage
 378              		.syntax unified
 379              		.thumb
 380              		.thumb_func
 381              		.fpu softvfp
 383              	USBD_LL_SetupStage:
 384              	.LVL30:
 385              	.LFB76:
ARM GAS  C:\Users\JCEM\AppData\Local\Temp\cczytyPE.s 			page 12


 255:Middlewares/ST/STM32_USB_Device_Library/Core/Src/usbd_core.c **** 
 256:Middlewares/ST/STM32_USB_Device_Library/Core/Src/usbd_core.c **** 
 257:Middlewares/ST/STM32_USB_Device_Library/Core/Src/usbd_core.c **** /**
 258:Middlewares/ST/STM32_USB_Device_Library/Core/Src/usbd_core.c **** * @brief  USBD_SetupStage
 259:Middlewares/ST/STM32_USB_Device_Library/Core/Src/usbd_core.c **** *         Handle the setup stage
 260:Middlewares/ST/STM32_USB_Device_Library/Core/Src/usbd_core.c **** * @param  pdev: device instance
 261:Middlewares/ST/STM32_USB_Device_Library/Core/Src/usbd_core.c **** * @retval status
 262:Middlewares/ST/STM32_USB_Device_Library/Core/Src/usbd_core.c **** */
 263:Middlewares/ST/STM32_USB_Device_Library/Core/Src/usbd_core.c **** USBD_StatusTypeDef USBD_LL_SetupStage(USBD_HandleTypeDef *pdev, uint8_t *psetup)
 264:Middlewares/ST/STM32_USB_Device_Library/Core/Src/usbd_core.c **** {
 386              		.loc 1 264 1 is_stmt 1 view -0
 387              		.cfi_startproc
 388              		@ args = 0, pretend = 0, frame = 0
 389              		@ frame_needed = 0, uses_anonymous_args = 0
 390              		.loc 1 264 1 is_stmt 0 view .LVU93
 391 0000 38B5     		push	{r3, r4, r5, lr}
 392              	.LCFI7:
 393              		.cfi_def_cfa_offset 16
 394              		.cfi_offset 3, -16
 395              		.cfi_offset 4, -12
 396              		.cfi_offset 5, -8
 397              		.cfi_offset 14, -4
 398 0002 0446     		mov	r4, r0
 265:Middlewares/ST/STM32_USB_Device_Library/Core/Src/usbd_core.c ****   USBD_ParseSetupRequest(&pdev->request, psetup);
 399              		.loc 1 265 3 is_stmt 1 view .LVU94
 400 0004 00F52A75 		add	r5, r0, #680
 401 0008 2846     		mov	r0, r5
 402              	.LVL31:
 403              		.loc 1 265 3 is_stmt 0 view .LVU95
 404 000a FFF7FEFF 		bl	USBD_ParseSetupRequest
 405              	.LVL32:
 266:Middlewares/ST/STM32_USB_Device_Library/Core/Src/usbd_core.c **** 
 267:Middlewares/ST/STM32_USB_Device_Library/Core/Src/usbd_core.c ****   pdev->ep0_state = USBD_EP0_SETUP;
 406              		.loc 1 267 3 is_stmt 1 view .LVU96
 407              		.loc 1 267 19 is_stmt 0 view .LVU97
 408 000e 0123     		movs	r3, #1
 409 0010 C4F89432 		str	r3, [r4, #660]
 268:Middlewares/ST/STM32_USB_Device_Library/Core/Src/usbd_core.c **** 
 269:Middlewares/ST/STM32_USB_Device_Library/Core/Src/usbd_core.c ****   pdev->ep0_data_len = pdev->request.wLength;
 410              		.loc 1 269 3 is_stmt 1 view .LVU98
 411              		.loc 1 269 37 is_stmt 0 view .LVU99
 412 0014 B4F8AE32 		ldrh	r3, [r4, #686]
 413              		.loc 1 269 22 view .LVU100
 414 0018 C4F89832 		str	r3, [r4, #664]
 270:Middlewares/ST/STM32_USB_Device_Library/Core/Src/usbd_core.c **** 
 271:Middlewares/ST/STM32_USB_Device_Library/Core/Src/usbd_core.c ****   switch (pdev->request.bmRequest & 0x1FU)
 415              		.loc 1 271 3 is_stmt 1 view .LVU101
 416              		.loc 1 271 24 is_stmt 0 view .LVU102
 417 001c 94F8A812 		ldrb	r1, [r4, #680]	@ zero_extendqisi2
 418 0020 01F01F03 		and	r3, r1, #31
 419              		.loc 1 271 3 view .LVU103
 420 0024 012B     		cmp	r3, #1
 421 0026 0ED0     		beq	.L28
 422 0028 022B     		cmp	r3, #2
 423 002a 11D0     		beq	.L29
 424 002c 2BB1     		cbz	r3, .L33
 272:Middlewares/ST/STM32_USB_Device_Library/Core/Src/usbd_core.c ****   {
ARM GAS  C:\Users\JCEM\AppData\Local\Temp\cczytyPE.s 			page 13


 273:Middlewares/ST/STM32_USB_Device_Library/Core/Src/usbd_core.c ****     case USB_REQ_RECIPIENT_DEVICE:
 274:Middlewares/ST/STM32_USB_Device_Library/Core/Src/usbd_core.c ****       USBD_StdDevReq(pdev, &pdev->request);
 275:Middlewares/ST/STM32_USB_Device_Library/Core/Src/usbd_core.c ****       break;
 276:Middlewares/ST/STM32_USB_Device_Library/Core/Src/usbd_core.c **** 
 277:Middlewares/ST/STM32_USB_Device_Library/Core/Src/usbd_core.c ****     case USB_REQ_RECIPIENT_INTERFACE:
 278:Middlewares/ST/STM32_USB_Device_Library/Core/Src/usbd_core.c ****       USBD_StdItfReq(pdev, &pdev->request);
 279:Middlewares/ST/STM32_USB_Device_Library/Core/Src/usbd_core.c ****       break;
 280:Middlewares/ST/STM32_USB_Device_Library/Core/Src/usbd_core.c **** 
 281:Middlewares/ST/STM32_USB_Device_Library/Core/Src/usbd_core.c ****     case USB_REQ_RECIPIENT_ENDPOINT:
 282:Middlewares/ST/STM32_USB_Device_Library/Core/Src/usbd_core.c ****       USBD_StdEPReq(pdev, &pdev->request);
 283:Middlewares/ST/STM32_USB_Device_Library/Core/Src/usbd_core.c ****       break;
 284:Middlewares/ST/STM32_USB_Device_Library/Core/Src/usbd_core.c **** 
 285:Middlewares/ST/STM32_USB_Device_Library/Core/Src/usbd_core.c ****     default:
 286:Middlewares/ST/STM32_USB_Device_Library/Core/Src/usbd_core.c ****       USBD_LL_StallEP(pdev, (pdev->request.bmRequest & 0x80U));
 425              		.loc 1 286 7 is_stmt 1 view .LVU104
 426 002e 01F08001 		and	r1, r1, #128
 427 0032 2046     		mov	r0, r4
 428 0034 FFF7FEFF 		bl	USBD_LL_StallEP
 429              	.LVL33:
 287:Middlewares/ST/STM32_USB_Device_Library/Core/Src/usbd_core.c ****       break;
 430              		.loc 1 287 7 view .LVU105
 431 0038 03E0     		b	.L31
 432              	.L33:
 274:Middlewares/ST/STM32_USB_Device_Library/Core/Src/usbd_core.c ****       break;
 433              		.loc 1 274 7 view .LVU106
 434 003a 2946     		mov	r1, r5
 435 003c 2046     		mov	r0, r4
 436 003e FFF7FEFF 		bl	USBD_StdDevReq
 437              	.LVL34:
 275:Middlewares/ST/STM32_USB_Device_Library/Core/Src/usbd_core.c **** 
 438              		.loc 1 275 7 view .LVU107
 439              	.L31:
 288:Middlewares/ST/STM32_USB_Device_Library/Core/Src/usbd_core.c ****   }
 289:Middlewares/ST/STM32_USB_Device_Library/Core/Src/usbd_core.c **** 
 290:Middlewares/ST/STM32_USB_Device_Library/Core/Src/usbd_core.c ****   return USBD_OK;
 440              		.loc 1 290 3 view .LVU108
 291:Middlewares/ST/STM32_USB_Device_Library/Core/Src/usbd_core.c **** }
 441              		.loc 1 291 1 is_stmt 0 view .LVU109
 442 0042 0020     		movs	r0, #0
 443 0044 38BD     		pop	{r3, r4, r5, pc}
 444              	.LVL35:
 445              	.L28:
 278:Middlewares/ST/STM32_USB_Device_Library/Core/Src/usbd_core.c ****       break;
 446              		.loc 1 278 7 is_stmt 1 view .LVU110
 447 0046 2946     		mov	r1, r5
 448 0048 2046     		mov	r0, r4
 449 004a FFF7FEFF 		bl	USBD_StdItfReq
 450              	.LVL36:
 279:Middlewares/ST/STM32_USB_Device_Library/Core/Src/usbd_core.c **** 
 451              		.loc 1 279 7 view .LVU111
 452 004e F8E7     		b	.L31
 453              	.L29:
 282:Middlewares/ST/STM32_USB_Device_Library/Core/Src/usbd_core.c ****       break;
 454              		.loc 1 282 7 view .LVU112
 455 0050 2946     		mov	r1, r5
 456 0052 2046     		mov	r0, r4
 457 0054 FFF7FEFF 		bl	USBD_StdEPReq
ARM GAS  C:\Users\JCEM\AppData\Local\Temp\cczytyPE.s 			page 14


 458              	.LVL37:
 283:Middlewares/ST/STM32_USB_Device_Library/Core/Src/usbd_core.c **** 
 459              		.loc 1 283 7 view .LVU113
 460 0058 F3E7     		b	.L31
 461              		.cfi_endproc
 462              	.LFE76:
 464              		.section	.text.USBD_LL_DataOutStage,"ax",%progbits
 465              		.align	1
 466              		.global	USBD_LL_DataOutStage
 467              		.syntax unified
 468              		.thumb
 469              		.thumb_func
 470              		.fpu softvfp
 472              	USBD_LL_DataOutStage:
 473              	.LVL38:
 474              	.LFB77:
 292:Middlewares/ST/STM32_USB_Device_Library/Core/Src/usbd_core.c **** 
 293:Middlewares/ST/STM32_USB_Device_Library/Core/Src/usbd_core.c **** /**
 294:Middlewares/ST/STM32_USB_Device_Library/Core/Src/usbd_core.c **** * @brief  USBD_DataOutStage
 295:Middlewares/ST/STM32_USB_Device_Library/Core/Src/usbd_core.c **** *         Handle data OUT stage
 296:Middlewares/ST/STM32_USB_Device_Library/Core/Src/usbd_core.c **** * @param  pdev: device instance
 297:Middlewares/ST/STM32_USB_Device_Library/Core/Src/usbd_core.c **** * @param  epnum: endpoint index
 298:Middlewares/ST/STM32_USB_Device_Library/Core/Src/usbd_core.c **** * @retval status
 299:Middlewares/ST/STM32_USB_Device_Library/Core/Src/usbd_core.c **** */
 300:Middlewares/ST/STM32_USB_Device_Library/Core/Src/usbd_core.c **** USBD_StatusTypeDef USBD_LL_DataOutStage(USBD_HandleTypeDef *pdev,
 301:Middlewares/ST/STM32_USB_Device_Library/Core/Src/usbd_core.c ****                                         uint8_t epnum, uint8_t *pdata)
 302:Middlewares/ST/STM32_USB_Device_Library/Core/Src/usbd_core.c **** {
 475              		.loc 1 302 1 view -0
 476              		.cfi_startproc
 477              		@ args = 0, pretend = 0, frame = 0
 478              		@ frame_needed = 0, uses_anonymous_args = 0
 479              		.loc 1 302 1 is_stmt 0 view .LVU115
 480 0000 38B5     		push	{r3, r4, r5, lr}
 481              	.LCFI8:
 482              		.cfi_def_cfa_offset 16
 483              		.cfi_offset 3, -16
 484              		.cfi_offset 4, -12
 485              		.cfi_offset 5, -8
 486              		.cfi_offset 14, -4
 487 0002 0446     		mov	r4, r0
 303:Middlewares/ST/STM32_USB_Device_Library/Core/Src/usbd_core.c ****   USBD_EndpointTypeDef *pep;
 488              		.loc 1 303 3 is_stmt 1 view .LVU116
 304:Middlewares/ST/STM32_USB_Device_Library/Core/Src/usbd_core.c **** 
 305:Middlewares/ST/STM32_USB_Device_Library/Core/Src/usbd_core.c ****   if (epnum == 0U)
 489              		.loc 1 305 3 view .LVU117
 490              		.loc 1 305 6 is_stmt 0 view .LVU118
 491 0004 0D46     		mov	r5, r1
 492 0006 91BB     		cbnz	r1, .L35
 493 0008 1346     		mov	r3, r2
 306:Middlewares/ST/STM32_USB_Device_Library/Core/Src/usbd_core.c ****   {
 307:Middlewares/ST/STM32_USB_Device_Library/Core/Src/usbd_core.c ****     pep = &pdev->ep_out[0];
 494              		.loc 1 307 5 is_stmt 1 view .LVU119
 495              	.LVL39:
 308:Middlewares/ST/STM32_USB_Device_Library/Core/Src/usbd_core.c **** 
 309:Middlewares/ST/STM32_USB_Device_Library/Core/Src/usbd_core.c ****     if (pdev->ep0_state == USBD_EP0_DATA_OUT)
 496              		.loc 1 309 5 view .LVU120
 497              		.loc 1 309 13 is_stmt 0 view .LVU121
ARM GAS  C:\Users\JCEM\AppData\Local\Temp\cczytyPE.s 			page 15


 498 000a D0F89422 		ldr	r2, [r0, #660]
 499              	.LVL40:
 500              		.loc 1 309 8 view .LVU122
 501 000e 032A     		cmp	r2, #3
 502 0010 03D0     		beq	.L46
 310:Middlewares/ST/STM32_USB_Device_Library/Core/Src/usbd_core.c ****     {
 311:Middlewares/ST/STM32_USB_Device_Library/Core/Src/usbd_core.c ****       if (pep->rem_length > pep->maxpacket)
 312:Middlewares/ST/STM32_USB_Device_Library/Core/Src/usbd_core.c ****       {
 313:Middlewares/ST/STM32_USB_Device_Library/Core/Src/usbd_core.c ****         pep->rem_length -= pep->maxpacket;
 314:Middlewares/ST/STM32_USB_Device_Library/Core/Src/usbd_core.c **** 
 315:Middlewares/ST/STM32_USB_Device_Library/Core/Src/usbd_core.c ****         USBD_CtlContinueRx(pdev, pdata,
 316:Middlewares/ST/STM32_USB_Device_Library/Core/Src/usbd_core.c ****                            (uint16_t)MIN(pep->rem_length, pep->maxpacket));
 317:Middlewares/ST/STM32_USB_Device_Library/Core/Src/usbd_core.c ****       }
 318:Middlewares/ST/STM32_USB_Device_Library/Core/Src/usbd_core.c ****       else
 319:Middlewares/ST/STM32_USB_Device_Library/Core/Src/usbd_core.c ****       {
 320:Middlewares/ST/STM32_USB_Device_Library/Core/Src/usbd_core.c ****         if ((pdev->pClass->EP0_RxReady != NULL) &&
 321:Middlewares/ST/STM32_USB_Device_Library/Core/Src/usbd_core.c ****             (pdev->dev_state == USBD_STATE_CONFIGURED))
 322:Middlewares/ST/STM32_USB_Device_Library/Core/Src/usbd_core.c ****         {
 323:Middlewares/ST/STM32_USB_Device_Library/Core/Src/usbd_core.c ****           pdev->pClass->EP0_RxReady(pdev);
 324:Middlewares/ST/STM32_USB_Device_Library/Core/Src/usbd_core.c ****         }
 325:Middlewares/ST/STM32_USB_Device_Library/Core/Src/usbd_core.c ****         USBD_CtlSendStatus(pdev);
 326:Middlewares/ST/STM32_USB_Device_Library/Core/Src/usbd_core.c ****       }
 327:Middlewares/ST/STM32_USB_Device_Library/Core/Src/usbd_core.c ****     }
 328:Middlewares/ST/STM32_USB_Device_Library/Core/Src/usbd_core.c ****     else
 329:Middlewares/ST/STM32_USB_Device_Library/Core/Src/usbd_core.c ****     {
 330:Middlewares/ST/STM32_USB_Device_Library/Core/Src/usbd_core.c ****       if (pdev->ep0_state == USBD_EP0_STATUS_OUT)
 503              		.loc 1 330 7 is_stmt 1 view .LVU123
 504              		.loc 1 330 10 is_stmt 0 view .LVU124
 505 0012 052A     		cmp	r2, #5
 506 0014 24D0     		beq	.L47
 331:Middlewares/ST/STM32_USB_Device_Library/Core/Src/usbd_core.c ****       {
 332:Middlewares/ST/STM32_USB_Device_Library/Core/Src/usbd_core.c ****         /*
 333:Middlewares/ST/STM32_USB_Device_Library/Core/Src/usbd_core.c ****          * STATUS PHASE completed, update ep0_state to idle
 334:Middlewares/ST/STM32_USB_Device_Library/Core/Src/usbd_core.c ****          */
 335:Middlewares/ST/STM32_USB_Device_Library/Core/Src/usbd_core.c ****         pdev->ep0_state = USBD_EP0_IDLE;
 336:Middlewares/ST/STM32_USB_Device_Library/Core/Src/usbd_core.c ****         USBD_LL_StallEP(pdev, 0U);
 337:Middlewares/ST/STM32_USB_Device_Library/Core/Src/usbd_core.c ****       }
 338:Middlewares/ST/STM32_USB_Device_Library/Core/Src/usbd_core.c ****     }
 339:Middlewares/ST/STM32_USB_Device_Library/Core/Src/usbd_core.c ****   }
 340:Middlewares/ST/STM32_USB_Device_Library/Core/Src/usbd_core.c ****   else if ((pdev->pClass->DataOut != NULL) &&
 341:Middlewares/ST/STM32_USB_Device_Library/Core/Src/usbd_core.c ****            (pdev->dev_state == USBD_STATE_CONFIGURED))
 342:Middlewares/ST/STM32_USB_Device_Library/Core/Src/usbd_core.c ****   {
 343:Middlewares/ST/STM32_USB_Device_Library/Core/Src/usbd_core.c ****     pdev->pClass->DataOut(pdev, epnum);
 344:Middlewares/ST/STM32_USB_Device_Library/Core/Src/usbd_core.c ****   }
 345:Middlewares/ST/STM32_USB_Device_Library/Core/Src/usbd_core.c ****   else
 346:Middlewares/ST/STM32_USB_Device_Library/Core/Src/usbd_core.c ****   {
 347:Middlewares/ST/STM32_USB_Device_Library/Core/Src/usbd_core.c ****     /* should never be in this condition */
 348:Middlewares/ST/STM32_USB_Device_Library/Core/Src/usbd_core.c ****     return USBD_FAIL;
 349:Middlewares/ST/STM32_USB_Device_Library/Core/Src/usbd_core.c ****   }
 350:Middlewares/ST/STM32_USB_Device_Library/Core/Src/usbd_core.c **** 
 351:Middlewares/ST/STM32_USB_Device_Library/Core/Src/usbd_core.c ****   return USBD_OK;
 507              		.loc 1 351 10 view .LVU125
 508 0016 0846     		mov	r0, r1
 509              	.LVL41:
 510              		.loc 1 351 10 view .LVU126
 511 0018 33E0     		b	.L40
 512              	.LVL42:
ARM GAS  C:\Users\JCEM\AppData\Local\Temp\cczytyPE.s 			page 16


 513              	.L46:
 311:Middlewares/ST/STM32_USB_Device_Library/Core/Src/usbd_core.c ****       {
 514              		.loc 1 311 7 is_stmt 1 view .LVU127
 311:Middlewares/ST/STM32_USB_Device_Library/Core/Src/usbd_core.c ****       {
 515              		.loc 1 311 14 is_stmt 0 view .LVU128
 516 001a D0F86011 		ldr	r1, [r0, #352]
 517              	.LVL43:
 311:Middlewares/ST/STM32_USB_Device_Library/Core/Src/usbd_core.c ****       {
 518              		.loc 1 311 32 view .LVU129
 519 001e D0F86421 		ldr	r2, [r0, #356]
 311:Middlewares/ST/STM32_USB_Device_Library/Core/Src/usbd_core.c ****       {
 520              		.loc 1 311 10 view .LVU130
 521 0022 9142     		cmp	r1, r2
 522 0024 0DD9     		bls	.L37
 313:Middlewares/ST/STM32_USB_Device_Library/Core/Src/usbd_core.c **** 
 523              		.loc 1 313 9 is_stmt 1 view .LVU131
 313:Middlewares/ST/STM32_USB_Device_Library/Core/Src/usbd_core.c **** 
 524              		.loc 1 313 25 is_stmt 0 view .LVU132
 525 0026 891A     		subs	r1, r1, r2
 526 0028 C0F86011 		str	r1, [r0, #352]
 315:Middlewares/ST/STM32_USB_Device_Library/Core/Src/usbd_core.c ****                            (uint16_t)MIN(pep->rem_length, pep->maxpacket));
 527              		.loc 1 315 9 is_stmt 1 view .LVU133
 528 002c 8A42     		cmp	r2, r1
 529 002e 06D9     		bls	.L38
 315:Middlewares/ST/STM32_USB_Device_Library/Core/Src/usbd_core.c ****                            (uint16_t)MIN(pep->rem_length, pep->maxpacket));
 530              		.loc 1 315 9 is_stmt 0 discriminator 1 view .LVU134
 531 0030 8AB2     		uxth	r2, r1
 532              	.L39:
 315:Middlewares/ST/STM32_USB_Device_Library/Core/Src/usbd_core.c ****                            (uint16_t)MIN(pep->rem_length, pep->maxpacket));
 533              		.loc 1 315 9 discriminator 4 view .LVU135
 534 0032 1946     		mov	r1, r3
 535 0034 2046     		mov	r0, r4
 536              	.LVL44:
 315:Middlewares/ST/STM32_USB_Device_Library/Core/Src/usbd_core.c ****                            (uint16_t)MIN(pep->rem_length, pep->maxpacket));
 537              		.loc 1 315 9 discriminator 4 view .LVU136
 538 0036 FFF7FEFF 		bl	USBD_CtlContinueRx
 539              	.LVL45:
 540              		.loc 1 351 10 discriminator 4 view .LVU137
 541 003a 2846     		mov	r0, r5
 542 003c 21E0     		b	.L40
 543              	.LVL46:
 544              	.L38:
 315:Middlewares/ST/STM32_USB_Device_Library/Core/Src/usbd_core.c ****                            (uint16_t)MIN(pep->rem_length, pep->maxpacket));
 545              		.loc 1 315 9 discriminator 2 view .LVU138
 546 003e 92B2     		uxth	r2, r2
 547 0040 F7E7     		b	.L39
 548              	.L37:
 320:Middlewares/ST/STM32_USB_Device_Library/Core/Src/usbd_core.c ****             (pdev->dev_state == USBD_STATE_CONFIGURED))
 549              		.loc 1 320 9 is_stmt 1 view .LVU139
 320:Middlewares/ST/STM32_USB_Device_Library/Core/Src/usbd_core.c ****             (pdev->dev_state == USBD_STATE_CONFIGURED))
 550              		.loc 1 320 18 is_stmt 0 view .LVU140
 551 0042 D0F8B432 		ldr	r3, [r0, #692]
 552              	.LVL47:
 320:Middlewares/ST/STM32_USB_Device_Library/Core/Src/usbd_core.c ****             (pdev->dev_state == USBD_STATE_CONFIGURED))
 553              		.loc 1 320 26 view .LVU141
 554 0046 1B69     		ldr	r3, [r3, #16]
 320:Middlewares/ST/STM32_USB_Device_Library/Core/Src/usbd_core.c ****             (pdev->dev_state == USBD_STATE_CONFIGURED))
ARM GAS  C:\Users\JCEM\AppData\Local\Temp\cczytyPE.s 			page 17


 555              		.loc 1 320 12 view .LVU142
 556 0048 1BB1     		cbz	r3, .L41
 321:Middlewares/ST/STM32_USB_Device_Library/Core/Src/usbd_core.c ****         {
 557              		.loc 1 321 18 discriminator 1 view .LVU143
 558 004a 90F89C22 		ldrb	r2, [r0, #668]	@ zero_extendqisi2
 320:Middlewares/ST/STM32_USB_Device_Library/Core/Src/usbd_core.c ****             (pdev->dev_state == USBD_STATE_CONFIGURED))
 559              		.loc 1 320 49 discriminator 1 view .LVU144
 560 004e 032A     		cmp	r2, #3
 561 0050 04D0     		beq	.L48
 562              	.LVL48:
 563              	.L41:
 325:Middlewares/ST/STM32_USB_Device_Library/Core/Src/usbd_core.c ****       }
 564              		.loc 1 325 9 is_stmt 1 view .LVU145
 565 0052 2046     		mov	r0, r4
 566 0054 FFF7FEFF 		bl	USBD_CtlSendStatus
 567              	.LVL49:
 568              		.loc 1 351 10 is_stmt 0 view .LVU146
 569 0058 2846     		mov	r0, r5
 570 005a 12E0     		b	.L40
 571              	.LVL50:
 572              	.L48:
 323:Middlewares/ST/STM32_USB_Device_Library/Core/Src/usbd_core.c ****         }
 573              		.loc 1 323 11 is_stmt 1 view .LVU147
 574 005c 9847     		blx	r3
 575              	.LVL51:
 323:Middlewares/ST/STM32_USB_Device_Library/Core/Src/usbd_core.c ****         }
 576              		.loc 1 323 11 is_stmt 0 view .LVU148
 577 005e F8E7     		b	.L41
 578              	.LVL52:
 579              	.L47:
 335:Middlewares/ST/STM32_USB_Device_Library/Core/Src/usbd_core.c ****         USBD_LL_StallEP(pdev, 0U);
 580              		.loc 1 335 9 is_stmt 1 view .LVU149
 335:Middlewares/ST/STM32_USB_Device_Library/Core/Src/usbd_core.c ****         USBD_LL_StallEP(pdev, 0U);
 581              		.loc 1 335 25 is_stmt 0 view .LVU150
 582 0060 0021     		movs	r1, #0
 583              	.LVL53:
 335:Middlewares/ST/STM32_USB_Device_Library/Core/Src/usbd_core.c ****         USBD_LL_StallEP(pdev, 0U);
 584              		.loc 1 335 25 view .LVU151
 585 0062 C0F89412 		str	r1, [r0, #660]
 336:Middlewares/ST/STM32_USB_Device_Library/Core/Src/usbd_core.c ****       }
 586              		.loc 1 336 9 is_stmt 1 view .LVU152
 587 0066 FFF7FEFF 		bl	USBD_LL_StallEP
 588              	.LVL54:
 589              		.loc 1 351 10 is_stmt 0 view .LVU153
 590 006a 2846     		mov	r0, r5
 591 006c 09E0     		b	.L40
 592              	.LVL55:
 593              	.L35:
 340:Middlewares/ST/STM32_USB_Device_Library/Core/Src/usbd_core.c ****            (pdev->dev_state == USBD_STATE_CONFIGURED))
 594              		.loc 1 340 8 is_stmt 1 view .LVU154
 340:Middlewares/ST/STM32_USB_Device_Library/Core/Src/usbd_core.c ****            (pdev->dev_state == USBD_STATE_CONFIGURED))
 595              		.loc 1 340 17 is_stmt 0 view .LVU155
 596 006e D0F8B432 		ldr	r3, [r0, #692]
 340:Middlewares/ST/STM32_USB_Device_Library/Core/Src/usbd_core.c ****            (pdev->dev_state == USBD_STATE_CONFIGURED))
 597              		.loc 1 340 25 view .LVU156
 598 0072 9B69     		ldr	r3, [r3, #24]
 340:Middlewares/ST/STM32_USB_Device_Library/Core/Src/usbd_core.c ****            (pdev->dev_state == USBD_STATE_CONFIGURED))
ARM GAS  C:\Users\JCEM\AppData\Local\Temp\cczytyPE.s 			page 18


 599              		.loc 1 340 11 view .LVU157
 600 0074 33B1     		cbz	r3, .L43
 341:Middlewares/ST/STM32_USB_Device_Library/Core/Src/usbd_core.c ****   {
 601              		.loc 1 341 17 discriminator 1 view .LVU158
 602 0076 90F89C22 		ldrb	r2, [r0, #668]	@ zero_extendqisi2
 603              	.LVL56:
 340:Middlewares/ST/STM32_USB_Device_Library/Core/Src/usbd_core.c ****            (pdev->dev_state == USBD_STATE_CONFIGURED))
 604              		.loc 1 340 44 discriminator 1 view .LVU159
 605 007a 032A     		cmp	r2, #3
 606 007c 04D1     		bne	.L44
 343:Middlewares/ST/STM32_USB_Device_Library/Core/Src/usbd_core.c ****   }
 607              		.loc 1 343 5 is_stmt 1 view .LVU160
 608 007e 9847     		blx	r3
 609              	.LVL57:
 610              		.loc 1 351 10 is_stmt 0 view .LVU161
 611 0080 0020     		movs	r0, #0
 612              	.L40:
 352:Middlewares/ST/STM32_USB_Device_Library/Core/Src/usbd_core.c **** }
 613              		.loc 1 352 1 view .LVU162
 614 0082 38BD     		pop	{r3, r4, r5, pc}
 615              	.LVL58:
 616              	.L43:
 348:Middlewares/ST/STM32_USB_Device_Library/Core/Src/usbd_core.c ****   }
 617              		.loc 1 348 12 view .LVU163
 618 0084 0220     		movs	r0, #2
 619              	.LVL59:
 348:Middlewares/ST/STM32_USB_Device_Library/Core/Src/usbd_core.c ****   }
 620              		.loc 1 348 12 view .LVU164
 621 0086 FCE7     		b	.L40
 622              	.LVL60:
 623              	.L44:
 348:Middlewares/ST/STM32_USB_Device_Library/Core/Src/usbd_core.c ****   }
 624              		.loc 1 348 12 view .LVU165
 625 0088 0220     		movs	r0, #2
 626              	.LVL61:
 348:Middlewares/ST/STM32_USB_Device_Library/Core/Src/usbd_core.c ****   }
 627              		.loc 1 348 12 view .LVU166
 628 008a FAE7     		b	.L40
 629              		.cfi_endproc
 630              	.LFE77:
 632              		.section	.text.USBD_LL_DataInStage,"ax",%progbits
 633              		.align	1
 634              		.global	USBD_LL_DataInStage
 635              		.syntax unified
 636              		.thumb
 637              		.thumb_func
 638              		.fpu softvfp
 640              	USBD_LL_DataInStage:
 641              	.LVL62:
 642              	.LFB78:
 353:Middlewares/ST/STM32_USB_Device_Library/Core/Src/usbd_core.c **** 
 354:Middlewares/ST/STM32_USB_Device_Library/Core/Src/usbd_core.c **** /**
 355:Middlewares/ST/STM32_USB_Device_Library/Core/Src/usbd_core.c **** * @brief  USBD_DataInStage
 356:Middlewares/ST/STM32_USB_Device_Library/Core/Src/usbd_core.c **** *         Handle data in stage
 357:Middlewares/ST/STM32_USB_Device_Library/Core/Src/usbd_core.c **** * @param  pdev: device instance
 358:Middlewares/ST/STM32_USB_Device_Library/Core/Src/usbd_core.c **** * @param  epnum: endpoint index
 359:Middlewares/ST/STM32_USB_Device_Library/Core/Src/usbd_core.c **** * @retval status
ARM GAS  C:\Users\JCEM\AppData\Local\Temp\cczytyPE.s 			page 19


 360:Middlewares/ST/STM32_USB_Device_Library/Core/Src/usbd_core.c **** */
 361:Middlewares/ST/STM32_USB_Device_Library/Core/Src/usbd_core.c **** USBD_StatusTypeDef USBD_LL_DataInStage(USBD_HandleTypeDef *pdev,
 362:Middlewares/ST/STM32_USB_Device_Library/Core/Src/usbd_core.c ****                                        uint8_t epnum, uint8_t *pdata)
 363:Middlewares/ST/STM32_USB_Device_Library/Core/Src/usbd_core.c **** {
 643              		.loc 1 363 1 is_stmt 1 view -0
 644              		.cfi_startproc
 645              		@ args = 0, pretend = 0, frame = 0
 646              		@ frame_needed = 0, uses_anonymous_args = 0
 647              		.loc 1 363 1 is_stmt 0 view .LVU168
 648 0000 38B5     		push	{r3, r4, r5, lr}
 649              	.LCFI9:
 650              		.cfi_def_cfa_offset 16
 651              		.cfi_offset 3, -16
 652              		.cfi_offset 4, -12
 653              		.cfi_offset 5, -8
 654              		.cfi_offset 14, -4
 655 0002 0446     		mov	r4, r0
 364:Middlewares/ST/STM32_USB_Device_Library/Core/Src/usbd_core.c ****   USBD_EndpointTypeDef *pep;
 656              		.loc 1 364 3 is_stmt 1 view .LVU169
 365:Middlewares/ST/STM32_USB_Device_Library/Core/Src/usbd_core.c **** 
 366:Middlewares/ST/STM32_USB_Device_Library/Core/Src/usbd_core.c ****   if (epnum == 0U)
 657              		.loc 1 366 3 view .LVU170
 658              		.loc 1 366 6 is_stmt 0 view .LVU171
 659 0004 0D46     		mov	r5, r1
 660 0006 0029     		cmp	r1, #0
 661 0008 53D1     		bne	.L50
 662 000a 1346     		mov	r3, r2
 367:Middlewares/ST/STM32_USB_Device_Library/Core/Src/usbd_core.c ****   {
 368:Middlewares/ST/STM32_USB_Device_Library/Core/Src/usbd_core.c ****     pep = &pdev->ep_in[0];
 663              		.loc 1 368 5 is_stmt 1 view .LVU172
 664              	.LVL63:
 369:Middlewares/ST/STM32_USB_Device_Library/Core/Src/usbd_core.c **** 
 370:Middlewares/ST/STM32_USB_Device_Library/Core/Src/usbd_core.c ****     if (pdev->ep0_state == USBD_EP0_DATA_IN)
 665              		.loc 1 370 5 view .LVU173
 666              		.loc 1 370 13 is_stmt 0 view .LVU174
 667 000c D0F89422 		ldr	r2, [r0, #660]
 668              	.LVL64:
 669              		.loc 1 370 8 view .LVU175
 670 0010 022A     		cmp	r2, #2
 671 0012 0CD0     		beq	.L62
 371:Middlewares/ST/STM32_USB_Device_Library/Core/Src/usbd_core.c ****     {
 372:Middlewares/ST/STM32_USB_Device_Library/Core/Src/usbd_core.c ****       if (pep->rem_length > pep->maxpacket)
 373:Middlewares/ST/STM32_USB_Device_Library/Core/Src/usbd_core.c ****       {
 374:Middlewares/ST/STM32_USB_Device_Library/Core/Src/usbd_core.c ****         pep->rem_length -= pep->maxpacket;
 375:Middlewares/ST/STM32_USB_Device_Library/Core/Src/usbd_core.c **** 
 376:Middlewares/ST/STM32_USB_Device_Library/Core/Src/usbd_core.c ****         USBD_CtlContinueSendData(pdev, pdata, (uint16_t)pep->rem_length);
 377:Middlewares/ST/STM32_USB_Device_Library/Core/Src/usbd_core.c **** 
 378:Middlewares/ST/STM32_USB_Device_Library/Core/Src/usbd_core.c ****         /* Prepare endpoint for premature end of transfer */
 379:Middlewares/ST/STM32_USB_Device_Library/Core/Src/usbd_core.c ****         USBD_LL_PrepareReceive(pdev, 0U, NULL, 0U);
 380:Middlewares/ST/STM32_USB_Device_Library/Core/Src/usbd_core.c ****       }
 381:Middlewares/ST/STM32_USB_Device_Library/Core/Src/usbd_core.c ****       else
 382:Middlewares/ST/STM32_USB_Device_Library/Core/Src/usbd_core.c ****       {
 383:Middlewares/ST/STM32_USB_Device_Library/Core/Src/usbd_core.c ****         /* last packet is MPS multiple, so send ZLP packet */
 384:Middlewares/ST/STM32_USB_Device_Library/Core/Src/usbd_core.c ****         if ((pep->total_length % pep->maxpacket == 0U) &&
 385:Middlewares/ST/STM32_USB_Device_Library/Core/Src/usbd_core.c ****             (pep->total_length >= pep->maxpacket) &&
 386:Middlewares/ST/STM32_USB_Device_Library/Core/Src/usbd_core.c ****             (pep->total_length < pdev->ep0_data_len))
 387:Middlewares/ST/STM32_USB_Device_Library/Core/Src/usbd_core.c ****         {
ARM GAS  C:\Users\JCEM\AppData\Local\Temp\cczytyPE.s 			page 20


 388:Middlewares/ST/STM32_USB_Device_Library/Core/Src/usbd_core.c ****           USBD_CtlContinueSendData(pdev, NULL, 0U);
 389:Middlewares/ST/STM32_USB_Device_Library/Core/Src/usbd_core.c ****           pdev->ep0_data_len = 0U;
 390:Middlewares/ST/STM32_USB_Device_Library/Core/Src/usbd_core.c **** 
 391:Middlewares/ST/STM32_USB_Device_Library/Core/Src/usbd_core.c ****           /* Prepare endpoint for premature end of transfer */
 392:Middlewares/ST/STM32_USB_Device_Library/Core/Src/usbd_core.c ****           USBD_LL_PrepareReceive(pdev, 0U, NULL, 0U);
 393:Middlewares/ST/STM32_USB_Device_Library/Core/Src/usbd_core.c ****         }
 394:Middlewares/ST/STM32_USB_Device_Library/Core/Src/usbd_core.c ****         else
 395:Middlewares/ST/STM32_USB_Device_Library/Core/Src/usbd_core.c ****         {
 396:Middlewares/ST/STM32_USB_Device_Library/Core/Src/usbd_core.c ****           if ((pdev->pClass->EP0_TxSent != NULL) &&
 397:Middlewares/ST/STM32_USB_Device_Library/Core/Src/usbd_core.c ****               (pdev->dev_state == USBD_STATE_CONFIGURED))
 398:Middlewares/ST/STM32_USB_Device_Library/Core/Src/usbd_core.c ****           {
 399:Middlewares/ST/STM32_USB_Device_Library/Core/Src/usbd_core.c ****             pdev->pClass->EP0_TxSent(pdev);
 400:Middlewares/ST/STM32_USB_Device_Library/Core/Src/usbd_core.c ****           }
 401:Middlewares/ST/STM32_USB_Device_Library/Core/Src/usbd_core.c ****           USBD_LL_StallEP(pdev, 0x80U);
 402:Middlewares/ST/STM32_USB_Device_Library/Core/Src/usbd_core.c ****           USBD_CtlReceiveStatus(pdev);
 403:Middlewares/ST/STM32_USB_Device_Library/Core/Src/usbd_core.c ****         }
 404:Middlewares/ST/STM32_USB_Device_Library/Core/Src/usbd_core.c ****       }
 405:Middlewares/ST/STM32_USB_Device_Library/Core/Src/usbd_core.c ****     }
 406:Middlewares/ST/STM32_USB_Device_Library/Core/Src/usbd_core.c ****     else
 407:Middlewares/ST/STM32_USB_Device_Library/Core/Src/usbd_core.c ****     {
 408:Middlewares/ST/STM32_USB_Device_Library/Core/Src/usbd_core.c ****       if ((pdev->ep0_state == USBD_EP0_STATUS_IN) ||
 672              		.loc 1 408 7 is_stmt 1 view .LVU176
 673              		.loc 1 408 10 is_stmt 0 view .LVU177
 674 0014 042A     		cmp	r2, #4
 675 0016 00D0     		beq	.L56
 676              		.loc 1 408 51 discriminator 1 view .LVU178
 677 0018 1AB9     		cbnz	r2, .L53
 678              	.L56:
 409:Middlewares/ST/STM32_USB_Device_Library/Core/Src/usbd_core.c ****           (pdev->ep0_state == USBD_EP0_IDLE))
 410:Middlewares/ST/STM32_USB_Device_Library/Core/Src/usbd_core.c ****       {
 411:Middlewares/ST/STM32_USB_Device_Library/Core/Src/usbd_core.c ****         USBD_LL_StallEP(pdev, 0x80U);
 679              		.loc 1 411 9 is_stmt 1 view .LVU179
 680 001a 8021     		movs	r1, #128
 681              	.LVL65:
 682              		.loc 1 411 9 is_stmt 0 view .LVU180
 683 001c 2046     		mov	r0, r4
 684              	.LVL66:
 685              		.loc 1 411 9 view .LVU181
 686 001e FFF7FEFF 		bl	USBD_LL_StallEP
 687              	.LVL67:
 688              	.L53:
 412:Middlewares/ST/STM32_USB_Device_Library/Core/Src/usbd_core.c ****       }
 413:Middlewares/ST/STM32_USB_Device_Library/Core/Src/usbd_core.c ****     }
 414:Middlewares/ST/STM32_USB_Device_Library/Core/Src/usbd_core.c **** 
 415:Middlewares/ST/STM32_USB_Device_Library/Core/Src/usbd_core.c ****     if (pdev->dev_test_mode == 1U)
 689              		.loc 1 415 5 is_stmt 1 view .LVU182
 690              		.loc 1 415 13 is_stmt 0 view .LVU183
 691 0022 94F8A032 		ldrb	r3, [r4, #672]	@ zero_extendqisi2
 692              		.loc 1 415 8 view .LVU184
 693 0026 012B     		cmp	r3, #1
 694 0028 3ED0     		beq	.L63
 416:Middlewares/ST/STM32_USB_Device_Library/Core/Src/usbd_core.c ****     {
 417:Middlewares/ST/STM32_USB_Device_Library/Core/Src/usbd_core.c ****       USBD_RunTestMode(pdev);
 418:Middlewares/ST/STM32_USB_Device_Library/Core/Src/usbd_core.c ****       pdev->dev_test_mode = 0U;
 419:Middlewares/ST/STM32_USB_Device_Library/Core/Src/usbd_core.c ****     }
 420:Middlewares/ST/STM32_USB_Device_Library/Core/Src/usbd_core.c ****   }
 421:Middlewares/ST/STM32_USB_Device_Library/Core/Src/usbd_core.c ****   else if ((pdev->pClass->DataIn != NULL) &&
ARM GAS  C:\Users\JCEM\AppData\Local\Temp\cczytyPE.s 			page 21


 422:Middlewares/ST/STM32_USB_Device_Library/Core/Src/usbd_core.c ****            (pdev->dev_state == USBD_STATE_CONFIGURED))
 423:Middlewares/ST/STM32_USB_Device_Library/Core/Src/usbd_core.c ****   {
 424:Middlewares/ST/STM32_USB_Device_Library/Core/Src/usbd_core.c ****     pdev->pClass->DataIn(pdev, epnum);
 425:Middlewares/ST/STM32_USB_Device_Library/Core/Src/usbd_core.c ****   }
 426:Middlewares/ST/STM32_USB_Device_Library/Core/Src/usbd_core.c ****   else
 427:Middlewares/ST/STM32_USB_Device_Library/Core/Src/usbd_core.c ****   {
 428:Middlewares/ST/STM32_USB_Device_Library/Core/Src/usbd_core.c ****     /* should never be in this condition */
 429:Middlewares/ST/STM32_USB_Device_Library/Core/Src/usbd_core.c ****     return USBD_FAIL;
 430:Middlewares/ST/STM32_USB_Device_Library/Core/Src/usbd_core.c ****   }
 431:Middlewares/ST/STM32_USB_Device_Library/Core/Src/usbd_core.c **** 
 432:Middlewares/ST/STM32_USB_Device_Library/Core/Src/usbd_core.c ****   return USBD_OK;
 695              		.loc 1 432 10 view .LVU185
 696 002a 2846     		mov	r0, r5
 697              	.LVL68:
 698              	.L57:
 433:Middlewares/ST/STM32_USB_Device_Library/Core/Src/usbd_core.c **** }
 699              		.loc 1 433 1 view .LVU186
 700 002c 38BD     		pop	{r3, r4, r5, pc}
 701              	.LVL69:
 702              	.L62:
 372:Middlewares/ST/STM32_USB_Device_Library/Core/Src/usbd_core.c ****       {
 703              		.loc 1 372 7 is_stmt 1 view .LVU187
 372:Middlewares/ST/STM32_USB_Device_Library/Core/Src/usbd_core.c ****       {
 704              		.loc 1 372 14 is_stmt 0 view .LVU188
 705 002e 016A     		ldr	r1, [r0, #32]
 706              	.LVL70:
 372:Middlewares/ST/STM32_USB_Device_Library/Core/Src/usbd_core.c ****       {
 707              		.loc 1 372 32 view .LVU189
 708 0030 426A     		ldr	r2, [r0, #36]
 372:Middlewares/ST/STM32_USB_Device_Library/Core/Src/usbd_core.c ****       {
 709              		.loc 1 372 10 view .LVU190
 710 0032 9142     		cmp	r1, r2
 711 0034 1BD8     		bhi	.L64
 384:Middlewares/ST/STM32_USB_Device_Library/Core/Src/usbd_core.c ****             (pep->total_length >= pep->maxpacket) &&
 712              		.loc 1 384 9 is_stmt 1 view .LVU191
 384:Middlewares/ST/STM32_USB_Device_Library/Core/Src/usbd_core.c ****             (pep->total_length >= pep->maxpacket) &&
 713              		.loc 1 384 17 is_stmt 0 view .LVU192
 714 0036 C169     		ldr	r1, [r0, #28]
 384:Middlewares/ST/STM32_USB_Device_Library/Core/Src/usbd_core.c ****             (pep->total_length >= pep->maxpacket) &&
 715              		.loc 1 384 32 view .LVU193
 716 0038 B1FBF2F3 		udiv	r3, r1, r2
 717              	.LVL71:
 384:Middlewares/ST/STM32_USB_Device_Library/Core/Src/usbd_core.c ****             (pep->total_length >= pep->maxpacket) &&
 718              		.loc 1 384 32 view .LVU194
 719 003c 02FB1313 		mls	r3, r2, r3, r1
 384:Middlewares/ST/STM32_USB_Device_Library/Core/Src/usbd_core.c ****             (pep->total_length >= pep->maxpacket) &&
 720              		.loc 1 384 12 view .LVU195
 721 0040 2BB9     		cbnz	r3, .L54
 384:Middlewares/ST/STM32_USB_Device_Library/Core/Src/usbd_core.c ****             (pep->total_length >= pep->maxpacket) &&
 722              		.loc 1 384 56 discriminator 1 view .LVU196
 723 0042 8A42     		cmp	r2, r1
 724 0044 03D8     		bhi	.L54
 386:Middlewares/ST/STM32_USB_Device_Library/Core/Src/usbd_core.c ****         {
 725              		.loc 1 386 38 view .LVU197
 726 0046 D0F89832 		ldr	r3, [r0, #664]
 385:Middlewares/ST/STM32_USB_Device_Library/Core/Src/usbd_core.c ****             (pep->total_length < pdev->ep0_data_len))
 727              		.loc 1 385 51 view .LVU198
ARM GAS  C:\Users\JCEM\AppData\Local\Temp\cczytyPE.s 			page 22


 728 004a 9942     		cmp	r1, r3
 729 004c 1CD3     		bcc	.L65
 730              	.L54:
 396:Middlewares/ST/STM32_USB_Device_Library/Core/Src/usbd_core.c ****               (pdev->dev_state == USBD_STATE_CONFIGURED))
 731              		.loc 1 396 11 is_stmt 1 view .LVU199
 396:Middlewares/ST/STM32_USB_Device_Library/Core/Src/usbd_core.c ****               (pdev->dev_state == USBD_STATE_CONFIGURED))
 732              		.loc 1 396 20 is_stmt 0 view .LVU200
 733 004e D4F8B432 		ldr	r3, [r4, #692]
 396:Middlewares/ST/STM32_USB_Device_Library/Core/Src/usbd_core.c ****               (pdev->dev_state == USBD_STATE_CONFIGURED))
 734              		.loc 1 396 28 view .LVU201
 735 0052 DB68     		ldr	r3, [r3, #12]
 396:Middlewares/ST/STM32_USB_Device_Library/Core/Src/usbd_core.c ****               (pdev->dev_state == USBD_STATE_CONFIGURED))
 736              		.loc 1 396 14 view .LVU202
 737 0054 1BB1     		cbz	r3, .L55
 397:Middlewares/ST/STM32_USB_Device_Library/Core/Src/usbd_core.c ****           {
 738              		.loc 1 397 20 discriminator 1 view .LVU203
 739 0056 94F89C22 		ldrb	r2, [r4, #668]	@ zero_extendqisi2
 396:Middlewares/ST/STM32_USB_Device_Library/Core/Src/usbd_core.c ****               (pdev->dev_state == USBD_STATE_CONFIGURED))
 740              		.loc 1 396 50 discriminator 1 view .LVU204
 741 005a 032A     		cmp	r2, #3
 742 005c 21D0     		beq	.L66
 743              	.LVL72:
 744              	.L55:
 401:Middlewares/ST/STM32_USB_Device_Library/Core/Src/usbd_core.c ****           USBD_CtlReceiveStatus(pdev);
 745              		.loc 1 401 11 is_stmt 1 view .LVU205
 746 005e 8021     		movs	r1, #128
 747 0060 2046     		mov	r0, r4
 748 0062 FFF7FEFF 		bl	USBD_LL_StallEP
 749              	.LVL73:
 402:Middlewares/ST/STM32_USB_Device_Library/Core/Src/usbd_core.c ****         }
 750              		.loc 1 402 11 view .LVU206
 751 0066 2046     		mov	r0, r4
 752 0068 FFF7FEFF 		bl	USBD_CtlReceiveStatus
 753              	.LVL74:
 754 006c D9E7     		b	.L53
 755              	.LVL75:
 756              	.L64:
 374:Middlewares/ST/STM32_USB_Device_Library/Core/Src/usbd_core.c **** 
 757              		.loc 1 374 9 view .LVU207
 374:Middlewares/ST/STM32_USB_Device_Library/Core/Src/usbd_core.c **** 
 758              		.loc 1 374 25 is_stmt 0 view .LVU208
 759 006e 8A1A     		subs	r2, r1, r2
 760 0070 0262     		str	r2, [r0, #32]
 376:Middlewares/ST/STM32_USB_Device_Library/Core/Src/usbd_core.c **** 
 761              		.loc 1 376 9 is_stmt 1 view .LVU209
 762 0072 92B2     		uxth	r2, r2
 763 0074 1946     		mov	r1, r3
 764 0076 FFF7FEFF 		bl	USBD_CtlContinueSendData
 765              	.LVL76:
 379:Middlewares/ST/STM32_USB_Device_Library/Core/Src/usbd_core.c ****       }
 766              		.loc 1 379 9 view .LVU210
 767 007a 0023     		movs	r3, #0
 768 007c 1A46     		mov	r2, r3
 769 007e 1946     		mov	r1, r3
 770 0080 2046     		mov	r0, r4
 771 0082 FFF7FEFF 		bl	USBD_LL_PrepareReceive
 772              	.LVL77:
ARM GAS  C:\Users\JCEM\AppData\Local\Temp\cczytyPE.s 			page 23


 773 0086 CCE7     		b	.L53
 774              	.LVL78:
 775              	.L65:
 388:Middlewares/ST/STM32_USB_Device_Library/Core/Src/usbd_core.c ****           pdev->ep0_data_len = 0U;
 776              		.loc 1 388 11 view .LVU211
 777 0088 0022     		movs	r2, #0
 778 008a 1146     		mov	r1, r2
 779 008c FFF7FEFF 		bl	USBD_CtlContinueSendData
 780              	.LVL79:
 389:Middlewares/ST/STM32_USB_Device_Library/Core/Src/usbd_core.c **** 
 781              		.loc 1 389 11 view .LVU212
 389:Middlewares/ST/STM32_USB_Device_Library/Core/Src/usbd_core.c **** 
 782              		.loc 1 389 30 is_stmt 0 view .LVU213
 783 0090 0021     		movs	r1, #0
 784 0092 C4F89812 		str	r1, [r4, #664]
 392:Middlewares/ST/STM32_USB_Device_Library/Core/Src/usbd_core.c ****         }
 785              		.loc 1 392 11 is_stmt 1 view .LVU214
 786 0096 0B46     		mov	r3, r1
 787 0098 0A46     		mov	r2, r1
 788 009a 2046     		mov	r0, r4
 789 009c FFF7FEFF 		bl	USBD_LL_PrepareReceive
 790              	.LVL80:
 791 00a0 BFE7     		b	.L53
 792              	.LVL81:
 793              	.L66:
 399:Middlewares/ST/STM32_USB_Device_Library/Core/Src/usbd_core.c ****           }
 794              		.loc 1 399 13 view .LVU215
 795 00a2 2046     		mov	r0, r4
 796              	.LVL82:
 399:Middlewares/ST/STM32_USB_Device_Library/Core/Src/usbd_core.c ****           }
 797              		.loc 1 399 13 is_stmt 0 view .LVU216
 798 00a4 9847     		blx	r3
 799              	.LVL83:
 800 00a6 DAE7     		b	.L55
 801              	.L63:
 417:Middlewares/ST/STM32_USB_Device_Library/Core/Src/usbd_core.c ****       pdev->dev_test_mode = 0U;
 802              		.loc 1 417 7 is_stmt 1 view .LVU217
 418:Middlewares/ST/STM32_USB_Device_Library/Core/Src/usbd_core.c ****     }
 803              		.loc 1 418 7 view .LVU218
 418:Middlewares/ST/STM32_USB_Device_Library/Core/Src/usbd_core.c ****     }
 804              		.loc 1 418 27 is_stmt 0 view .LVU219
 805 00a8 0023     		movs	r3, #0
 806 00aa 84F8A032 		strb	r3, [r4, #672]
 432:Middlewares/ST/STM32_USB_Device_Library/Core/Src/usbd_core.c **** }
 807              		.loc 1 432 10 view .LVU220
 808 00ae 2846     		mov	r0, r5
 809 00b0 BCE7     		b	.L57
 810              	.LVL84:
 811              	.L50:
 421:Middlewares/ST/STM32_USB_Device_Library/Core/Src/usbd_core.c ****            (pdev->dev_state == USBD_STATE_CONFIGURED))
 812              		.loc 1 421 8 is_stmt 1 view .LVU221
 421:Middlewares/ST/STM32_USB_Device_Library/Core/Src/usbd_core.c ****            (pdev->dev_state == USBD_STATE_CONFIGURED))
 813              		.loc 1 421 17 is_stmt 0 view .LVU222
 814 00b2 D0F8B432 		ldr	r3, [r0, #692]
 421:Middlewares/ST/STM32_USB_Device_Library/Core/Src/usbd_core.c ****            (pdev->dev_state == USBD_STATE_CONFIGURED))
 815              		.loc 1 421 25 view .LVU223
 816 00b6 5B69     		ldr	r3, [r3, #20]
ARM GAS  C:\Users\JCEM\AppData\Local\Temp\cczytyPE.s 			page 24


 421:Middlewares/ST/STM32_USB_Device_Library/Core/Src/usbd_core.c ****            (pdev->dev_state == USBD_STATE_CONFIGURED))
 817              		.loc 1 421 11 view .LVU224
 818 00b8 33B1     		cbz	r3, .L59
 422:Middlewares/ST/STM32_USB_Device_Library/Core/Src/usbd_core.c ****   {
 819              		.loc 1 422 17 discriminator 1 view .LVU225
 820 00ba 90F89C22 		ldrb	r2, [r0, #668]	@ zero_extendqisi2
 821              	.LVL85:
 421:Middlewares/ST/STM32_USB_Device_Library/Core/Src/usbd_core.c ****            (pdev->dev_state == USBD_STATE_CONFIGURED))
 822              		.loc 1 421 43 discriminator 1 view .LVU226
 823 00be 032A     		cmp	r2, #3
 824 00c0 04D1     		bne	.L60
 424:Middlewares/ST/STM32_USB_Device_Library/Core/Src/usbd_core.c ****   }
 825              		.loc 1 424 5 is_stmt 1 view .LVU227
 826 00c2 9847     		blx	r3
 827              	.LVL86:
 432:Middlewares/ST/STM32_USB_Device_Library/Core/Src/usbd_core.c **** }
 828              		.loc 1 432 10 is_stmt 0 view .LVU228
 829 00c4 0020     		movs	r0, #0
 424:Middlewares/ST/STM32_USB_Device_Library/Core/Src/usbd_core.c ****   }
 830              		.loc 1 424 5 view .LVU229
 831 00c6 B1E7     		b	.L57
 832              	.LVL87:
 833              	.L59:
 429:Middlewares/ST/STM32_USB_Device_Library/Core/Src/usbd_core.c ****   }
 834              		.loc 1 429 12 view .LVU230
 835 00c8 0220     		movs	r0, #2
 836              	.LVL88:
 429:Middlewares/ST/STM32_USB_Device_Library/Core/Src/usbd_core.c ****   }
 837              		.loc 1 429 12 view .LVU231
 838 00ca AFE7     		b	.L57
 839              	.LVL89:
 840              	.L60:
 429:Middlewares/ST/STM32_USB_Device_Library/Core/Src/usbd_core.c ****   }
 841              		.loc 1 429 12 view .LVU232
 842 00cc 0220     		movs	r0, #2
 843              	.LVL90:
 429:Middlewares/ST/STM32_USB_Device_Library/Core/Src/usbd_core.c ****   }
 844              		.loc 1 429 12 view .LVU233
 845 00ce ADE7     		b	.L57
 846              		.cfi_endproc
 847              	.LFE78:
 849              		.section	.text.USBD_LL_Reset,"ax",%progbits
 850              		.align	1
 851              		.global	USBD_LL_Reset
 852              		.syntax unified
 853              		.thumb
 854              		.thumb_func
 855              		.fpu softvfp
 857              	USBD_LL_Reset:
 858              	.LVL91:
 859              	.LFB79:
 434:Middlewares/ST/STM32_USB_Device_Library/Core/Src/usbd_core.c **** 
 435:Middlewares/ST/STM32_USB_Device_Library/Core/Src/usbd_core.c **** /**
 436:Middlewares/ST/STM32_USB_Device_Library/Core/Src/usbd_core.c **** * @brief  USBD_LL_Reset
 437:Middlewares/ST/STM32_USB_Device_Library/Core/Src/usbd_core.c **** *         Handle Reset event
 438:Middlewares/ST/STM32_USB_Device_Library/Core/Src/usbd_core.c **** * @param  pdev: device instance
 439:Middlewares/ST/STM32_USB_Device_Library/Core/Src/usbd_core.c **** * @retval status
ARM GAS  C:\Users\JCEM\AppData\Local\Temp\cczytyPE.s 			page 25


 440:Middlewares/ST/STM32_USB_Device_Library/Core/Src/usbd_core.c **** */
 441:Middlewares/ST/STM32_USB_Device_Library/Core/Src/usbd_core.c **** 
 442:Middlewares/ST/STM32_USB_Device_Library/Core/Src/usbd_core.c **** USBD_StatusTypeDef USBD_LL_Reset(USBD_HandleTypeDef *pdev)
 443:Middlewares/ST/STM32_USB_Device_Library/Core/Src/usbd_core.c **** {
 860              		.loc 1 443 1 is_stmt 1 view -0
 861              		.cfi_startproc
 862              		@ args = 0, pretend = 0, frame = 0
 863              		@ frame_needed = 0, uses_anonymous_args = 0
 864              		.loc 1 443 1 is_stmt 0 view .LVU235
 865 0000 70B5     		push	{r4, r5, r6, lr}
 866              	.LCFI10:
 867              		.cfi_def_cfa_offset 16
 868              		.cfi_offset 4, -16
 869              		.cfi_offset 5, -12
 870              		.cfi_offset 6, -8
 871              		.cfi_offset 14, -4
 872 0002 0446     		mov	r4, r0
 444:Middlewares/ST/STM32_USB_Device_Library/Core/Src/usbd_core.c ****   /* Open EP0 OUT */
 445:Middlewares/ST/STM32_USB_Device_Library/Core/Src/usbd_core.c ****   USBD_LL_OpenEP(pdev, 0x00U, USBD_EP_TYPE_CTRL, USB_MAX_EP0_SIZE);
 873              		.loc 1 445 3 is_stmt 1 view .LVU236
 874 0004 4023     		movs	r3, #64
 875 0006 0022     		movs	r2, #0
 876 0008 1146     		mov	r1, r2
 877 000a FFF7FEFF 		bl	USBD_LL_OpenEP
 878              	.LVL92:
 446:Middlewares/ST/STM32_USB_Device_Library/Core/Src/usbd_core.c ****   pdev->ep_out[0x00U & 0xFU].is_used = 1U;
 879              		.loc 1 446 3 view .LVU237
 880              		.loc 1 446 38 is_stmt 0 view .LVU238
 881 000e 0125     		movs	r5, #1
 882 0010 C4F85851 		str	r5, [r4, #344]
 447:Middlewares/ST/STM32_USB_Device_Library/Core/Src/usbd_core.c **** 
 448:Middlewares/ST/STM32_USB_Device_Library/Core/Src/usbd_core.c ****   pdev->ep_out[0].maxpacket = USB_MAX_EP0_SIZE;
 883              		.loc 1 448 3 is_stmt 1 view .LVU239
 884              		.loc 1 448 29 is_stmt 0 view .LVU240
 885 0014 4026     		movs	r6, #64
 886 0016 C4F86461 		str	r6, [r4, #356]
 449:Middlewares/ST/STM32_USB_Device_Library/Core/Src/usbd_core.c **** 
 450:Middlewares/ST/STM32_USB_Device_Library/Core/Src/usbd_core.c ****   /* Open EP0 IN */
 451:Middlewares/ST/STM32_USB_Device_Library/Core/Src/usbd_core.c ****   USBD_LL_OpenEP(pdev, 0x80U, USBD_EP_TYPE_CTRL, USB_MAX_EP0_SIZE);
 887              		.loc 1 451 3 is_stmt 1 view .LVU241
 888 001a 3346     		mov	r3, r6
 889 001c 0022     		movs	r2, #0
 890 001e 8021     		movs	r1, #128
 891 0020 2046     		mov	r0, r4
 892 0022 FFF7FEFF 		bl	USBD_LL_OpenEP
 893              	.LVL93:
 452:Middlewares/ST/STM32_USB_Device_Library/Core/Src/usbd_core.c ****   pdev->ep_in[0x80U & 0xFU].is_used = 1U;
 894              		.loc 1 452 3 view .LVU242
 895              		.loc 1 452 37 is_stmt 0 view .LVU243
 896 0026 A561     		str	r5, [r4, #24]
 453:Middlewares/ST/STM32_USB_Device_Library/Core/Src/usbd_core.c **** 
 454:Middlewares/ST/STM32_USB_Device_Library/Core/Src/usbd_core.c ****   pdev->ep_in[0].maxpacket = USB_MAX_EP0_SIZE;
 897              		.loc 1 454 3 is_stmt 1 view .LVU244
 898              		.loc 1 454 28 is_stmt 0 view .LVU245
 899 0028 6662     		str	r6, [r4, #36]
 455:Middlewares/ST/STM32_USB_Device_Library/Core/Src/usbd_core.c **** 
 456:Middlewares/ST/STM32_USB_Device_Library/Core/Src/usbd_core.c ****   /* Upon Reset call user call back */
ARM GAS  C:\Users\JCEM\AppData\Local\Temp\cczytyPE.s 			page 26


 457:Middlewares/ST/STM32_USB_Device_Library/Core/Src/usbd_core.c ****   pdev->dev_state = USBD_STATE_DEFAULT;
 900              		.loc 1 457 3 is_stmt 1 view .LVU246
 901              		.loc 1 457 19 is_stmt 0 view .LVU247
 902 002a 84F89C52 		strb	r5, [r4, #668]
 458:Middlewares/ST/STM32_USB_Device_Library/Core/Src/usbd_core.c ****   pdev->ep0_state = USBD_EP0_IDLE;
 903              		.loc 1 458 3 is_stmt 1 view .LVU248
 904              		.loc 1 458 19 is_stmt 0 view .LVU249
 905 002e 0023     		movs	r3, #0
 906 0030 C4F89432 		str	r3, [r4, #660]
 459:Middlewares/ST/STM32_USB_Device_Library/Core/Src/usbd_core.c ****   pdev->dev_config = 0U;
 907              		.loc 1 459 3 is_stmt 1 view .LVU250
 908              		.loc 1 459 20 is_stmt 0 view .LVU251
 909 0034 6360     		str	r3, [r4, #4]
 460:Middlewares/ST/STM32_USB_Device_Library/Core/Src/usbd_core.c ****   pdev->dev_remote_wakeup = 0U;
 910              		.loc 1 460 3 is_stmt 1 view .LVU252
 911              		.loc 1 460 27 is_stmt 0 view .LVU253
 912 0036 C4F8A432 		str	r3, [r4, #676]
 461:Middlewares/ST/STM32_USB_Device_Library/Core/Src/usbd_core.c **** 
 462:Middlewares/ST/STM32_USB_Device_Library/Core/Src/usbd_core.c ****   if (pdev->pClassData)
 913              		.loc 1 462 3 is_stmt 1 view .LVU254
 914              		.loc 1 462 11 is_stmt 0 view .LVU255
 915 003a D4F8B832 		ldr	r3, [r4, #696]
 916              		.loc 1 462 6 view .LVU256
 917 003e 2BB1     		cbz	r3, .L68
 463:Middlewares/ST/STM32_USB_Device_Library/Core/Src/usbd_core.c ****   {
 464:Middlewares/ST/STM32_USB_Device_Library/Core/Src/usbd_core.c ****     pdev->pClass->DeInit(pdev, (uint8_t)pdev->dev_config);
 918              		.loc 1 464 5 is_stmt 1 view .LVU257
 919              		.loc 1 464 9 is_stmt 0 view .LVU258
 920 0040 D4F8B432 		ldr	r3, [r4, #692]
 921              		.loc 1 464 17 view .LVU259
 922 0044 5B68     		ldr	r3, [r3, #4]
 923              		.loc 1 464 5 view .LVU260
 924 0046 0021     		movs	r1, #0
 925 0048 2046     		mov	r0, r4
 926 004a 9847     		blx	r3
 927              	.LVL94:
 928              	.L68:
 465:Middlewares/ST/STM32_USB_Device_Library/Core/Src/usbd_core.c ****   }
 466:Middlewares/ST/STM32_USB_Device_Library/Core/Src/usbd_core.c **** 
 467:Middlewares/ST/STM32_USB_Device_Library/Core/Src/usbd_core.c ****   return USBD_OK;
 929              		.loc 1 467 3 is_stmt 1 view .LVU261
 468:Middlewares/ST/STM32_USB_Device_Library/Core/Src/usbd_core.c **** }
 930              		.loc 1 468 1 is_stmt 0 view .LVU262
 931 004c 0020     		movs	r0, #0
 932 004e 70BD     		pop	{r4, r5, r6, pc}
 933              		.loc 1 468 1 view .LVU263
 934              		.cfi_endproc
 935              	.LFE79:
 937              		.section	.text.USBD_LL_SetSpeed,"ax",%progbits
 938              		.align	1
 939              		.global	USBD_LL_SetSpeed
 940              		.syntax unified
 941              		.thumb
 942              		.thumb_func
 943              		.fpu softvfp
 945              	USBD_LL_SetSpeed:
 946              	.LVL95:
ARM GAS  C:\Users\JCEM\AppData\Local\Temp\cczytyPE.s 			page 27


 947              	.LFB80:
 469:Middlewares/ST/STM32_USB_Device_Library/Core/Src/usbd_core.c **** 
 470:Middlewares/ST/STM32_USB_Device_Library/Core/Src/usbd_core.c **** /**
 471:Middlewares/ST/STM32_USB_Device_Library/Core/Src/usbd_core.c **** * @brief  USBD_LL_Reset
 472:Middlewares/ST/STM32_USB_Device_Library/Core/Src/usbd_core.c **** *         Handle Reset event
 473:Middlewares/ST/STM32_USB_Device_Library/Core/Src/usbd_core.c **** * @param  pdev: device instance
 474:Middlewares/ST/STM32_USB_Device_Library/Core/Src/usbd_core.c **** * @retval status
 475:Middlewares/ST/STM32_USB_Device_Library/Core/Src/usbd_core.c **** */
 476:Middlewares/ST/STM32_USB_Device_Library/Core/Src/usbd_core.c **** USBD_StatusTypeDef USBD_LL_SetSpeed(USBD_HandleTypeDef *pdev,
 477:Middlewares/ST/STM32_USB_Device_Library/Core/Src/usbd_core.c ****                                     USBD_SpeedTypeDef speed)
 478:Middlewares/ST/STM32_USB_Device_Library/Core/Src/usbd_core.c **** {
 948              		.loc 1 478 1 is_stmt 1 view -0
 949              		.cfi_startproc
 950              		@ args = 0, pretend = 0, frame = 0
 951              		@ frame_needed = 0, uses_anonymous_args = 0
 952              		@ link register save eliminated.
 479:Middlewares/ST/STM32_USB_Device_Library/Core/Src/usbd_core.c ****   pdev->dev_speed = speed;
 953              		.loc 1 479 3 view .LVU265
 954              		.loc 1 479 19 is_stmt 0 view .LVU266
 955 0000 0174     		strb	r1, [r0, #16]
 480:Middlewares/ST/STM32_USB_Device_Library/Core/Src/usbd_core.c **** 
 481:Middlewares/ST/STM32_USB_Device_Library/Core/Src/usbd_core.c ****   return USBD_OK;
 956              		.loc 1 481 3 is_stmt 1 view .LVU267
 482:Middlewares/ST/STM32_USB_Device_Library/Core/Src/usbd_core.c **** }
 957              		.loc 1 482 1 is_stmt 0 view .LVU268
 958 0002 0020     		movs	r0, #0
 959              	.LVL96:
 960              		.loc 1 482 1 view .LVU269
 961 0004 7047     		bx	lr
 962              		.cfi_endproc
 963              	.LFE80:
 965              		.section	.text.USBD_LL_Suspend,"ax",%progbits
 966              		.align	1
 967              		.global	USBD_LL_Suspend
 968              		.syntax unified
 969              		.thumb
 970              		.thumb_func
 971              		.fpu softvfp
 973              	USBD_LL_Suspend:
 974              	.LVL97:
 975              	.LFB81:
 483:Middlewares/ST/STM32_USB_Device_Library/Core/Src/usbd_core.c **** 
 484:Middlewares/ST/STM32_USB_Device_Library/Core/Src/usbd_core.c **** /**
 485:Middlewares/ST/STM32_USB_Device_Library/Core/Src/usbd_core.c **** * @brief  USBD_Suspend
 486:Middlewares/ST/STM32_USB_Device_Library/Core/Src/usbd_core.c **** *         Handle Suspend event
 487:Middlewares/ST/STM32_USB_Device_Library/Core/Src/usbd_core.c **** * @param  pdev: device instance
 488:Middlewares/ST/STM32_USB_Device_Library/Core/Src/usbd_core.c **** * @retval status
 489:Middlewares/ST/STM32_USB_Device_Library/Core/Src/usbd_core.c **** */
 490:Middlewares/ST/STM32_USB_Device_Library/Core/Src/usbd_core.c **** 
 491:Middlewares/ST/STM32_USB_Device_Library/Core/Src/usbd_core.c **** USBD_StatusTypeDef USBD_LL_Suspend(USBD_HandleTypeDef *pdev)
 492:Middlewares/ST/STM32_USB_Device_Library/Core/Src/usbd_core.c **** {
 976              		.loc 1 492 1 is_stmt 1 view -0
 977              		.cfi_startproc
 978              		@ args = 0, pretend = 0, frame = 0
 979              		@ frame_needed = 0, uses_anonymous_args = 0
 980              		@ link register save eliminated.
 493:Middlewares/ST/STM32_USB_Device_Library/Core/Src/usbd_core.c ****   pdev->dev_old_state =  pdev->dev_state;
ARM GAS  C:\Users\JCEM\AppData\Local\Temp\cczytyPE.s 			page 28


 981              		.loc 1 493 3 view .LVU271
 982              		.loc 1 493 30 is_stmt 0 view .LVU272
 983 0000 90F89C32 		ldrb	r3, [r0, #668]	@ zero_extendqisi2
 984              		.loc 1 493 23 view .LVU273
 985 0004 80F89D32 		strb	r3, [r0, #669]
 494:Middlewares/ST/STM32_USB_Device_Library/Core/Src/usbd_core.c ****   pdev->dev_state  = USBD_STATE_SUSPENDED;
 986              		.loc 1 494 3 is_stmt 1 view .LVU274
 987              		.loc 1 494 20 is_stmt 0 view .LVU275
 988 0008 0423     		movs	r3, #4
 989 000a 80F89C32 		strb	r3, [r0, #668]
 495:Middlewares/ST/STM32_USB_Device_Library/Core/Src/usbd_core.c **** 
 496:Middlewares/ST/STM32_USB_Device_Library/Core/Src/usbd_core.c ****   return USBD_OK;
 990              		.loc 1 496 3 is_stmt 1 view .LVU276
 497:Middlewares/ST/STM32_USB_Device_Library/Core/Src/usbd_core.c **** }
 991              		.loc 1 497 1 is_stmt 0 view .LVU277
 992 000e 0020     		movs	r0, #0
 993              	.LVL98:
 994              		.loc 1 497 1 view .LVU278
 995 0010 7047     		bx	lr
 996              		.cfi_endproc
 997              	.LFE81:
 999              		.section	.text.USBD_LL_Resume,"ax",%progbits
 1000              		.align	1
 1001              		.global	USBD_LL_Resume
 1002              		.syntax unified
 1003              		.thumb
 1004              		.thumb_func
 1005              		.fpu softvfp
 1007              	USBD_LL_Resume:
 1008              	.LVL99:
 1009              	.LFB82:
 498:Middlewares/ST/STM32_USB_Device_Library/Core/Src/usbd_core.c **** 
 499:Middlewares/ST/STM32_USB_Device_Library/Core/Src/usbd_core.c **** /**
 500:Middlewares/ST/STM32_USB_Device_Library/Core/Src/usbd_core.c **** * @brief  USBD_Resume
 501:Middlewares/ST/STM32_USB_Device_Library/Core/Src/usbd_core.c **** *         Handle Resume event
 502:Middlewares/ST/STM32_USB_Device_Library/Core/Src/usbd_core.c **** * @param  pdev: device instance
 503:Middlewares/ST/STM32_USB_Device_Library/Core/Src/usbd_core.c **** * @retval status
 504:Middlewares/ST/STM32_USB_Device_Library/Core/Src/usbd_core.c **** */
 505:Middlewares/ST/STM32_USB_Device_Library/Core/Src/usbd_core.c **** 
 506:Middlewares/ST/STM32_USB_Device_Library/Core/Src/usbd_core.c **** USBD_StatusTypeDef USBD_LL_Resume(USBD_HandleTypeDef *pdev)
 507:Middlewares/ST/STM32_USB_Device_Library/Core/Src/usbd_core.c **** {
 1010              		.loc 1 507 1 is_stmt 1 view -0
 1011              		.cfi_startproc
 1012              		@ args = 0, pretend = 0, frame = 0
 1013              		@ frame_needed = 0, uses_anonymous_args = 0
 1014              		@ link register save eliminated.
 508:Middlewares/ST/STM32_USB_Device_Library/Core/Src/usbd_core.c ****   if (pdev->dev_state == USBD_STATE_SUSPENDED)
 1015              		.loc 1 508 3 view .LVU280
 1016              		.loc 1 508 11 is_stmt 0 view .LVU281
 1017 0000 90F89C32 		ldrb	r3, [r0, #668]	@ zero_extendqisi2
 1018              		.loc 1 508 6 view .LVU282
 1019 0004 042B     		cmp	r3, #4
 1020 0006 01D0     		beq	.L74
 1021              	.L73:
 509:Middlewares/ST/STM32_USB_Device_Library/Core/Src/usbd_core.c ****   {
 510:Middlewares/ST/STM32_USB_Device_Library/Core/Src/usbd_core.c ****     pdev->dev_state = pdev->dev_old_state;
 511:Middlewares/ST/STM32_USB_Device_Library/Core/Src/usbd_core.c ****   }
ARM GAS  C:\Users\JCEM\AppData\Local\Temp\cczytyPE.s 			page 29


 512:Middlewares/ST/STM32_USB_Device_Library/Core/Src/usbd_core.c **** 
 513:Middlewares/ST/STM32_USB_Device_Library/Core/Src/usbd_core.c ****   return USBD_OK;
 1022              		.loc 1 513 3 is_stmt 1 view .LVU283
 514:Middlewares/ST/STM32_USB_Device_Library/Core/Src/usbd_core.c **** }
 1023              		.loc 1 514 1 is_stmt 0 view .LVU284
 1024 0008 0020     		movs	r0, #0
 1025              	.LVL100:
 1026              		.loc 1 514 1 view .LVU285
 1027 000a 7047     		bx	lr
 1028              	.LVL101:
 1029              	.L74:
 510:Middlewares/ST/STM32_USB_Device_Library/Core/Src/usbd_core.c ****   }
 1030              		.loc 1 510 5 is_stmt 1 view .LVU286
 510:Middlewares/ST/STM32_USB_Device_Library/Core/Src/usbd_core.c ****   }
 1031              		.loc 1 510 27 is_stmt 0 view .LVU287
 1032 000c 90F89D32 		ldrb	r3, [r0, #669]	@ zero_extendqisi2
 510:Middlewares/ST/STM32_USB_Device_Library/Core/Src/usbd_core.c ****   }
 1033              		.loc 1 510 21 view .LVU288
 1034 0010 80F89C32 		strb	r3, [r0, #668]
 1035 0014 F8E7     		b	.L73
 1036              		.cfi_endproc
 1037              	.LFE82:
 1039              		.section	.text.USBD_LL_SOF,"ax",%progbits
 1040              		.align	1
 1041              		.global	USBD_LL_SOF
 1042              		.syntax unified
 1043              		.thumb
 1044              		.thumb_func
 1045              		.fpu softvfp
 1047              	USBD_LL_SOF:
 1048              	.LVL102:
 1049              	.LFB83:
 515:Middlewares/ST/STM32_USB_Device_Library/Core/Src/usbd_core.c **** 
 516:Middlewares/ST/STM32_USB_Device_Library/Core/Src/usbd_core.c **** /**
 517:Middlewares/ST/STM32_USB_Device_Library/Core/Src/usbd_core.c **** * @brief  USBD_SOF
 518:Middlewares/ST/STM32_USB_Device_Library/Core/Src/usbd_core.c **** *         Handle SOF event
 519:Middlewares/ST/STM32_USB_Device_Library/Core/Src/usbd_core.c **** * @param  pdev: device instance
 520:Middlewares/ST/STM32_USB_Device_Library/Core/Src/usbd_core.c **** * @retval status
 521:Middlewares/ST/STM32_USB_Device_Library/Core/Src/usbd_core.c **** */
 522:Middlewares/ST/STM32_USB_Device_Library/Core/Src/usbd_core.c **** 
 523:Middlewares/ST/STM32_USB_Device_Library/Core/Src/usbd_core.c **** USBD_StatusTypeDef USBD_LL_SOF(USBD_HandleTypeDef *pdev)
 524:Middlewares/ST/STM32_USB_Device_Library/Core/Src/usbd_core.c **** {
 1050              		.loc 1 524 1 is_stmt 1 view -0
 1051              		.cfi_startproc
 1052              		@ args = 0, pretend = 0, frame = 0
 1053              		@ frame_needed = 0, uses_anonymous_args = 0
 1054              		.loc 1 524 1 is_stmt 0 view .LVU290
 1055 0000 08B5     		push	{r3, lr}
 1056              	.LCFI11:
 1057              		.cfi_def_cfa_offset 8
 1058              		.cfi_offset 3, -8
 1059              		.cfi_offset 14, -4
 525:Middlewares/ST/STM32_USB_Device_Library/Core/Src/usbd_core.c ****   if (pdev->dev_state == USBD_STATE_CONFIGURED)
 1060              		.loc 1 525 3 is_stmt 1 view .LVU291
 1061              		.loc 1 525 11 is_stmt 0 view .LVU292
 1062 0002 90F89C32 		ldrb	r3, [r0, #668]	@ zero_extendqisi2
 1063              		.loc 1 525 6 view .LVU293
ARM GAS  C:\Users\JCEM\AppData\Local\Temp\cczytyPE.s 			page 30


 1064 0006 032B     		cmp	r3, #3
 1065 0008 01D0     		beq	.L78
 1066              	.LVL103:
 1067              	.L76:
 526:Middlewares/ST/STM32_USB_Device_Library/Core/Src/usbd_core.c ****   {
 527:Middlewares/ST/STM32_USB_Device_Library/Core/Src/usbd_core.c ****     if (pdev->pClass->SOF != NULL)
 528:Middlewares/ST/STM32_USB_Device_Library/Core/Src/usbd_core.c ****     {
 529:Middlewares/ST/STM32_USB_Device_Library/Core/Src/usbd_core.c ****       pdev->pClass->SOF(pdev);
 530:Middlewares/ST/STM32_USB_Device_Library/Core/Src/usbd_core.c ****     }
 531:Middlewares/ST/STM32_USB_Device_Library/Core/Src/usbd_core.c ****   }
 532:Middlewares/ST/STM32_USB_Device_Library/Core/Src/usbd_core.c **** 
 533:Middlewares/ST/STM32_USB_Device_Library/Core/Src/usbd_core.c ****   return USBD_OK;
 1068              		.loc 1 533 3 is_stmt 1 view .LVU294
 534:Middlewares/ST/STM32_USB_Device_Library/Core/Src/usbd_core.c **** }
 1069              		.loc 1 534 1 is_stmt 0 view .LVU295
 1070 000a 0020     		movs	r0, #0
 1071 000c 08BD     		pop	{r3, pc}
 1072              	.LVL104:
 1073              	.L78:
 527:Middlewares/ST/STM32_USB_Device_Library/Core/Src/usbd_core.c ****     {
 1074              		.loc 1 527 5 is_stmt 1 view .LVU296
 527:Middlewares/ST/STM32_USB_Device_Library/Core/Src/usbd_core.c ****     {
 1075              		.loc 1 527 13 is_stmt 0 view .LVU297
 1076 000e D0F8B432 		ldr	r3, [r0, #692]
 527:Middlewares/ST/STM32_USB_Device_Library/Core/Src/usbd_core.c ****     {
 1077              		.loc 1 527 21 view .LVU298
 1078 0012 DB69     		ldr	r3, [r3, #28]
 527:Middlewares/ST/STM32_USB_Device_Library/Core/Src/usbd_core.c ****     {
 1079              		.loc 1 527 8 view .LVU299
 1080 0014 002B     		cmp	r3, #0
 1081 0016 F8D0     		beq	.L76
 529:Middlewares/ST/STM32_USB_Device_Library/Core/Src/usbd_core.c ****     }
 1082              		.loc 1 529 7 is_stmt 1 view .LVU300
 1083 0018 9847     		blx	r3
 1084              	.LVL105:
 529:Middlewares/ST/STM32_USB_Device_Library/Core/Src/usbd_core.c ****     }
 1085              		.loc 1 529 7 is_stmt 0 view .LVU301
 1086 001a F6E7     		b	.L76
 1087              		.cfi_endproc
 1088              	.LFE83:
 1090              		.section	.text.USBD_LL_IsoINIncomplete,"ax",%progbits
 1091              		.align	1
 1092              		.global	USBD_LL_IsoINIncomplete
 1093              		.syntax unified
 1094              		.thumb
 1095              		.thumb_func
 1096              		.fpu softvfp
 1098              	USBD_LL_IsoINIncomplete:
 1099              	.LVL106:
 1100              	.LFB84:
 535:Middlewares/ST/STM32_USB_Device_Library/Core/Src/usbd_core.c **** 
 536:Middlewares/ST/STM32_USB_Device_Library/Core/Src/usbd_core.c **** /**
 537:Middlewares/ST/STM32_USB_Device_Library/Core/Src/usbd_core.c **** * @brief  USBD_IsoINIncomplete
 538:Middlewares/ST/STM32_USB_Device_Library/Core/Src/usbd_core.c **** *         Handle iso in incomplete event
 539:Middlewares/ST/STM32_USB_Device_Library/Core/Src/usbd_core.c **** * @param  pdev: device instance
 540:Middlewares/ST/STM32_USB_Device_Library/Core/Src/usbd_core.c **** * @retval status
 541:Middlewares/ST/STM32_USB_Device_Library/Core/Src/usbd_core.c **** */
ARM GAS  C:\Users\JCEM\AppData\Local\Temp\cczytyPE.s 			page 31


 542:Middlewares/ST/STM32_USB_Device_Library/Core/Src/usbd_core.c **** USBD_StatusTypeDef USBD_LL_IsoINIncomplete(USBD_HandleTypeDef *pdev,
 543:Middlewares/ST/STM32_USB_Device_Library/Core/Src/usbd_core.c ****                                            uint8_t epnum)
 544:Middlewares/ST/STM32_USB_Device_Library/Core/Src/usbd_core.c **** {
 1101              		.loc 1 544 1 is_stmt 1 view -0
 1102              		.cfi_startproc
 1103              		@ args = 0, pretend = 0, frame = 0
 1104              		@ frame_needed = 0, uses_anonymous_args = 0
 1105              		@ link register save eliminated.
 545:Middlewares/ST/STM32_USB_Device_Library/Core/Src/usbd_core.c ****   /* Prevent unused arguments compilation warning */
 546:Middlewares/ST/STM32_USB_Device_Library/Core/Src/usbd_core.c ****   UNUSED(pdev);
 1106              		.loc 1 546 3 view .LVU303
 547:Middlewares/ST/STM32_USB_Device_Library/Core/Src/usbd_core.c ****   UNUSED(epnum);
 1107              		.loc 1 547 3 view .LVU304
 548:Middlewares/ST/STM32_USB_Device_Library/Core/Src/usbd_core.c **** 
 549:Middlewares/ST/STM32_USB_Device_Library/Core/Src/usbd_core.c ****   return USBD_OK;
 1108              		.loc 1 549 3 view .LVU305
 550:Middlewares/ST/STM32_USB_Device_Library/Core/Src/usbd_core.c **** }
 1109              		.loc 1 550 1 is_stmt 0 view .LVU306
 1110 0000 0020     		movs	r0, #0
 1111              	.LVL107:
 1112              		.loc 1 550 1 view .LVU307
 1113 0002 7047     		bx	lr
 1114              		.cfi_endproc
 1115              	.LFE84:
 1117              		.section	.text.USBD_LL_IsoOUTIncomplete,"ax",%progbits
 1118              		.align	1
 1119              		.global	USBD_LL_IsoOUTIncomplete
 1120              		.syntax unified
 1121              		.thumb
 1122              		.thumb_func
 1123              		.fpu softvfp
 1125              	USBD_LL_IsoOUTIncomplete:
 1126              	.LVL108:
 1127              	.LFB85:
 551:Middlewares/ST/STM32_USB_Device_Library/Core/Src/usbd_core.c **** 
 552:Middlewares/ST/STM32_USB_Device_Library/Core/Src/usbd_core.c **** /**
 553:Middlewares/ST/STM32_USB_Device_Library/Core/Src/usbd_core.c **** * @brief  USBD_IsoOUTIncomplete
 554:Middlewares/ST/STM32_USB_Device_Library/Core/Src/usbd_core.c **** *         Handle iso out incomplete event
 555:Middlewares/ST/STM32_USB_Device_Library/Core/Src/usbd_core.c **** * @param  pdev: device instance
 556:Middlewares/ST/STM32_USB_Device_Library/Core/Src/usbd_core.c **** * @retval status
 557:Middlewares/ST/STM32_USB_Device_Library/Core/Src/usbd_core.c **** */
 558:Middlewares/ST/STM32_USB_Device_Library/Core/Src/usbd_core.c **** USBD_StatusTypeDef USBD_LL_IsoOUTIncomplete(USBD_HandleTypeDef *pdev,
 559:Middlewares/ST/STM32_USB_Device_Library/Core/Src/usbd_core.c ****                                             uint8_t epnum)
 560:Middlewares/ST/STM32_USB_Device_Library/Core/Src/usbd_core.c **** {
 1128              		.loc 1 560 1 is_stmt 1 view -0
 1129              		.cfi_startproc
 1130              		@ args = 0, pretend = 0, frame = 0
 1131              		@ frame_needed = 0, uses_anonymous_args = 0
 1132              		@ link register save eliminated.
 561:Middlewares/ST/STM32_USB_Device_Library/Core/Src/usbd_core.c ****   /* Prevent unused arguments compilation warning */
 562:Middlewares/ST/STM32_USB_Device_Library/Core/Src/usbd_core.c ****   UNUSED(pdev);
 1133              		.loc 1 562 3 view .LVU309
 563:Middlewares/ST/STM32_USB_Device_Library/Core/Src/usbd_core.c ****   UNUSED(epnum);
 1134              		.loc 1 563 3 view .LVU310
 564:Middlewares/ST/STM32_USB_Device_Library/Core/Src/usbd_core.c **** 
 565:Middlewares/ST/STM32_USB_Device_Library/Core/Src/usbd_core.c ****   return USBD_OK;
 1135              		.loc 1 565 3 view .LVU311
ARM GAS  C:\Users\JCEM\AppData\Local\Temp\cczytyPE.s 			page 32


 566:Middlewares/ST/STM32_USB_Device_Library/Core/Src/usbd_core.c **** }
 1136              		.loc 1 566 1 is_stmt 0 view .LVU312
 1137 0000 0020     		movs	r0, #0
 1138              	.LVL109:
 1139              		.loc 1 566 1 view .LVU313
 1140 0002 7047     		bx	lr
 1141              		.cfi_endproc
 1142              	.LFE85:
 1144              		.section	.text.USBD_LL_DevConnected,"ax",%progbits
 1145              		.align	1
 1146              		.global	USBD_LL_DevConnected
 1147              		.syntax unified
 1148              		.thumb
 1149              		.thumb_func
 1150              		.fpu softvfp
 1152              	USBD_LL_DevConnected:
 1153              	.LVL110:
 1154              	.LFB86:
 567:Middlewares/ST/STM32_USB_Device_Library/Core/Src/usbd_core.c **** 
 568:Middlewares/ST/STM32_USB_Device_Library/Core/Src/usbd_core.c **** /**
 569:Middlewares/ST/STM32_USB_Device_Library/Core/Src/usbd_core.c **** * @brief  USBD_DevConnected
 570:Middlewares/ST/STM32_USB_Device_Library/Core/Src/usbd_core.c **** *         Handle device connection event
 571:Middlewares/ST/STM32_USB_Device_Library/Core/Src/usbd_core.c **** * @param  pdev: device instance
 572:Middlewares/ST/STM32_USB_Device_Library/Core/Src/usbd_core.c **** * @retval status
 573:Middlewares/ST/STM32_USB_Device_Library/Core/Src/usbd_core.c **** */
 574:Middlewares/ST/STM32_USB_Device_Library/Core/Src/usbd_core.c **** USBD_StatusTypeDef USBD_LL_DevConnected(USBD_HandleTypeDef *pdev)
 575:Middlewares/ST/STM32_USB_Device_Library/Core/Src/usbd_core.c **** {
 1155              		.loc 1 575 1 is_stmt 1 view -0
 1156              		.cfi_startproc
 1157              		@ args = 0, pretend = 0, frame = 0
 1158              		@ frame_needed = 0, uses_anonymous_args = 0
 1159              		@ link register save eliminated.
 576:Middlewares/ST/STM32_USB_Device_Library/Core/Src/usbd_core.c ****   /* Prevent unused argument compilation warning */
 577:Middlewares/ST/STM32_USB_Device_Library/Core/Src/usbd_core.c ****   UNUSED(pdev);
 1160              		.loc 1 577 3 view .LVU315
 578:Middlewares/ST/STM32_USB_Device_Library/Core/Src/usbd_core.c **** 
 579:Middlewares/ST/STM32_USB_Device_Library/Core/Src/usbd_core.c ****   return USBD_OK;
 1161              		.loc 1 579 3 view .LVU316
 580:Middlewares/ST/STM32_USB_Device_Library/Core/Src/usbd_core.c **** }
 1162              		.loc 1 580 1 is_stmt 0 view .LVU317
 1163 0000 0020     		movs	r0, #0
 1164              	.LVL111:
 1165              		.loc 1 580 1 view .LVU318
 1166 0002 7047     		bx	lr
 1167              		.cfi_endproc
 1168              	.LFE86:
 1170              		.section	.text.USBD_LL_DevDisconnected,"ax",%progbits
 1171              		.align	1
 1172              		.global	USBD_LL_DevDisconnected
 1173              		.syntax unified
 1174              		.thumb
 1175              		.thumb_func
 1176              		.fpu softvfp
 1178              	USBD_LL_DevDisconnected:
 1179              	.LVL112:
 1180              	.LFB87:
 581:Middlewares/ST/STM32_USB_Device_Library/Core/Src/usbd_core.c **** 
ARM GAS  C:\Users\JCEM\AppData\Local\Temp\cczytyPE.s 			page 33


 582:Middlewares/ST/STM32_USB_Device_Library/Core/Src/usbd_core.c **** /**
 583:Middlewares/ST/STM32_USB_Device_Library/Core/Src/usbd_core.c **** * @brief  USBD_DevDisconnected
 584:Middlewares/ST/STM32_USB_Device_Library/Core/Src/usbd_core.c **** *         Handle device disconnection event
 585:Middlewares/ST/STM32_USB_Device_Library/Core/Src/usbd_core.c **** * @param  pdev: device instance
 586:Middlewares/ST/STM32_USB_Device_Library/Core/Src/usbd_core.c **** * @retval status
 587:Middlewares/ST/STM32_USB_Device_Library/Core/Src/usbd_core.c **** */
 588:Middlewares/ST/STM32_USB_Device_Library/Core/Src/usbd_core.c **** USBD_StatusTypeDef USBD_LL_DevDisconnected(USBD_HandleTypeDef *pdev)
 589:Middlewares/ST/STM32_USB_Device_Library/Core/Src/usbd_core.c **** {
 1181              		.loc 1 589 1 is_stmt 1 view -0
 1182              		.cfi_startproc
 1183              		@ args = 0, pretend = 0, frame = 0
 1184              		@ frame_needed = 0, uses_anonymous_args = 0
 1185              		.loc 1 589 1 is_stmt 0 view .LVU320
 1186 0000 08B5     		push	{r3, lr}
 1187              	.LCFI12:
 1188              		.cfi_def_cfa_offset 8
 1189              		.cfi_offset 3, -8
 1190              		.cfi_offset 14, -4
 590:Middlewares/ST/STM32_USB_Device_Library/Core/Src/usbd_core.c ****   /* Free Class Resources */
 591:Middlewares/ST/STM32_USB_Device_Library/Core/Src/usbd_core.c ****   pdev->dev_state = USBD_STATE_DEFAULT;
 1191              		.loc 1 591 3 is_stmt 1 view .LVU321
 1192              		.loc 1 591 19 is_stmt 0 view .LVU322
 1193 0002 0122     		movs	r2, #1
 1194 0004 80F89C22 		strb	r2, [r0, #668]
 592:Middlewares/ST/STM32_USB_Device_Library/Core/Src/usbd_core.c ****   pdev->pClass->DeInit(pdev, (uint8_t)pdev->dev_config);
 1195              		.loc 1 592 3 is_stmt 1 view .LVU323
 1196              		.loc 1 592 7 is_stmt 0 view .LVU324
 1197 0008 D0F8B422 		ldr	r2, [r0, #692]
 1198              		.loc 1 592 15 view .LVU325
 1199 000c 5268     		ldr	r2, [r2, #4]
 1200              		.loc 1 592 3 view .LVU326
 1201 000e 0179     		ldrb	r1, [r0, #4]	@ zero_extendqisi2
 1202 0010 9047     		blx	r2
 1203              	.LVL113:
 593:Middlewares/ST/STM32_USB_Device_Library/Core/Src/usbd_core.c **** 
 594:Middlewares/ST/STM32_USB_Device_Library/Core/Src/usbd_core.c ****   return USBD_OK;
 1204              		.loc 1 594 3 is_stmt 1 view .LVU327
 595:Middlewares/ST/STM32_USB_Device_Library/Core/Src/usbd_core.c **** }
 1205              		.loc 1 595 1 is_stmt 0 view .LVU328
 1206 0012 0020     		movs	r0, #0
 1207 0014 08BD     		pop	{r3, pc}
 1208              		.cfi_endproc
 1209              	.LFE87:
 1211              		.text
 1212              	.Letext0:
 1213              		.file 2 "c:\\program files (x86)\\gnu arm embedded toolchain\\9 2020-q2-update\\arm-none-eabi\\inc
 1214              		.file 3 "c:\\program files (x86)\\gnu arm embedded toolchain\\9 2020-q2-update\\lib\\gcc\\arm-none
 1215              		.file 4 "c:\\program files (x86)\\gnu arm embedded toolchain\\9 2020-q2-update\\arm-none-eabi\\inc
 1216              		.file 5 "c:\\program files (x86)\\gnu arm embedded toolchain\\9 2020-q2-update\\arm-none-eabi\\inc
 1217              		.file 6 "c:\\program files (x86)\\gnu arm embedded toolchain\\9 2020-q2-update\\arm-none-eabi\\inc
 1218              		.file 7 "c:\\program files (x86)\\gnu arm embedded toolchain\\9 2020-q2-update\\arm-none-eabi\\inc
 1219              		.file 8 "c:\\program files (x86)\\gnu arm embedded toolchain\\9 2020-q2-update\\arm-none-eabi\\inc
 1220              		.file 9 "Drivers/CMSIS/Include/core_cm3.h"
 1221              		.file 10 "Drivers/CMSIS/Device/ST/STM32F1xx/Include/system_stm32f1xx.h"
 1222              		.file 11 "Drivers/STM32F1xx_HAL_Driver/Inc/stm32f1xx_hal.h"
 1223              		.file 12 "Middlewares/ST/STM32_USB_Device_Library/Core/Inc/usbd_def.h"
 1224              		.file 13 "Middlewares/ST/STM32_USB_Device_Library/Core/Inc/usbd_core.h"
ARM GAS  C:\Users\JCEM\AppData\Local\Temp\cczytyPE.s 			page 34


 1225              		.file 14 "Middlewares/ST/STM32_USB_Device_Library/Core/Inc/usbd_ioreq.h"
 1226              		.file 15 "Middlewares/ST/STM32_USB_Device_Library/Core/Inc/usbd_ctlreq.h"
ARM GAS  C:\Users\JCEM\AppData\Local\Temp\cczytyPE.s 			page 35

