ARM GAS  C:\Users\JCEM\AppData\Local\Temp\cckV0N5Q.s 			page 1


   1              		.cpu cortex-m3
   2              		.eabi_attribute 20, 1
   3              		.eabi_attribute 21, 1
   4              		.eabi_attribute 23, 3
   5              		.eabi_attribute 24, 1
   6              		.eabi_attribute 25, 1
   7              		.eabi_attribute 26, 1
   8              		.eabi_attribute 30, 1
   9              		.eabi_attribute 34, 1
  10              		.eabi_attribute 18, 4
  11              		.file	"usbd_conf.c"
  12              		.text
  13              	.Ltext0:
  14              		.cfi_sections	.debug_frame
  15              		.section	.text.USBD_Get_USB_Status,"ax",%progbits
  16              		.align	1
  17              		.arch armv7-m
  18              		.syntax unified
  19              		.thumb
  20              		.thumb_func
  21              		.fpu softvfp
  23              	USBD_Get_USB_Status:
  24              	.LVL0:
  25              	.LFB99:
  26              		.file 1 "Src/usbd_conf.c"
   1:Src/usbd_conf.c **** /* USER CODE BEGIN Header */
   2:Src/usbd_conf.c **** /**
   3:Src/usbd_conf.c ****   ******************************************************************************
   4:Src/usbd_conf.c ****   * @file           : usbd_conf.c
   5:Src/usbd_conf.c ****   * @version        : v2.0_Cube
   6:Src/usbd_conf.c ****   * @brief          : This file implements the board support package for the USB device library
   7:Src/usbd_conf.c ****   ******************************************************************************
   8:Src/usbd_conf.c ****   * @attention
   9:Src/usbd_conf.c ****   *
  10:Src/usbd_conf.c ****   * <h2><center>&copy; Copyright (c) 2020 STMicroelectronics.
  11:Src/usbd_conf.c ****   * All rights reserved.</center></h2>
  12:Src/usbd_conf.c ****   *
  13:Src/usbd_conf.c ****   * This software component is licensed by ST under Ultimate Liberty license
  14:Src/usbd_conf.c ****   * SLA0044, the "License"; You may not use this file except in compliance with
  15:Src/usbd_conf.c ****   * the License. You may obtain a copy of the License at:
  16:Src/usbd_conf.c ****   *                             www.st.com/SLA0044
  17:Src/usbd_conf.c ****   *
  18:Src/usbd_conf.c ****   ******************************************************************************
  19:Src/usbd_conf.c ****   */
  20:Src/usbd_conf.c **** /* USER CODE END Header */  
  21:Src/usbd_conf.c **** 
  22:Src/usbd_conf.c **** /* Includes ------------------------------------------------------------------*/
  23:Src/usbd_conf.c **** #include "stm32f1xx.h"
  24:Src/usbd_conf.c **** #include "stm32f1xx_hal.h"
  25:Src/usbd_conf.c **** #include "usbd_def.h"
  26:Src/usbd_conf.c **** #include "usbd_core.h"
  27:Src/usbd_conf.c **** #include "usbd_cdc.h"
  28:Src/usbd_conf.c **** 
  29:Src/usbd_conf.c **** /* USER CODE BEGIN Includes */
  30:Src/usbd_conf.c **** 
  31:Src/usbd_conf.c **** /* USER CODE END Includes */
  32:Src/usbd_conf.c **** 
ARM GAS  C:\Users\JCEM\AppData\Local\Temp\cckV0N5Q.s 			page 2


  33:Src/usbd_conf.c **** /* Private typedef -----------------------------------------------------------*/
  34:Src/usbd_conf.c **** /* Private define ------------------------------------------------------------*/
  35:Src/usbd_conf.c **** /* Private macro -------------------------------------------------------------*/
  36:Src/usbd_conf.c **** 
  37:Src/usbd_conf.c **** /* USER CODE BEGIN PV */
  38:Src/usbd_conf.c **** /* Private variables ---------------------------------------------------------*/
  39:Src/usbd_conf.c **** 
  40:Src/usbd_conf.c **** /* USER CODE END PV */
  41:Src/usbd_conf.c **** 
  42:Src/usbd_conf.c **** PCD_HandleTypeDef hpcd_USB_FS;
  43:Src/usbd_conf.c **** void Error_Handler(void);
  44:Src/usbd_conf.c **** 
  45:Src/usbd_conf.c **** /* USER CODE BEGIN 0 */
  46:Src/usbd_conf.c **** 
  47:Src/usbd_conf.c **** /* USER CODE END 0 */
  48:Src/usbd_conf.c **** 
  49:Src/usbd_conf.c **** /* USER CODE BEGIN PFP */
  50:Src/usbd_conf.c **** /* Private function prototypes -----------------------------------------------*/
  51:Src/usbd_conf.c **** 
  52:Src/usbd_conf.c **** /* USER CODE END PFP */
  53:Src/usbd_conf.c **** 
  54:Src/usbd_conf.c **** /* Private functions ---------------------------------------------------------*/
  55:Src/usbd_conf.c **** static USBD_StatusTypeDef USBD_Get_USB_Status(HAL_StatusTypeDef hal_status);
  56:Src/usbd_conf.c **** /* USER CODE BEGIN 1 */
  57:Src/usbd_conf.c **** 
  58:Src/usbd_conf.c **** /* USER CODE END 1 */
  59:Src/usbd_conf.c **** #if (USE_HAL_PCD_REGISTER_CALLBACKS == 1U)
  60:Src/usbd_conf.c **** static void PCDEx_SetConnectionState(PCD_HandleTypeDef *hpcd, uint8_t state);
  61:Src/usbd_conf.c **** else
  62:Src/usbd_conf.c **** void HAL_PCDEx_SetConnectionState(PCD_HandleTypeDef *hpcd, uint8_t state);
  63:Src/usbd_conf.c **** #endif /* USE_HAL_PCD_REGISTER_CALLBACKS */
  64:Src/usbd_conf.c **** 
  65:Src/usbd_conf.c **** /*******************************************************************************
  66:Src/usbd_conf.c ****                        LL Driver Callbacks (PCD -> USB Device Library)
  67:Src/usbd_conf.c **** *******************************************************************************/
  68:Src/usbd_conf.c **** /* MSP Init */
  69:Src/usbd_conf.c **** 
  70:Src/usbd_conf.c **** void HAL_PCD_MspInit(PCD_HandleTypeDef* pcdHandle)
  71:Src/usbd_conf.c **** {
  72:Src/usbd_conf.c ****   if(pcdHandle->Instance==USB)
  73:Src/usbd_conf.c ****   {
  74:Src/usbd_conf.c ****   /* USER CODE BEGIN USB_MspInit 0 */
  75:Src/usbd_conf.c **** 
  76:Src/usbd_conf.c ****   /* USER CODE END USB_MspInit 0 */
  77:Src/usbd_conf.c ****     /* Peripheral clock enable */
  78:Src/usbd_conf.c ****     __HAL_RCC_USB_CLK_ENABLE();
  79:Src/usbd_conf.c **** 
  80:Src/usbd_conf.c ****     /* Peripheral interrupt init */
  81:Src/usbd_conf.c ****     HAL_NVIC_SetPriority(USB_LP_CAN1_RX0_IRQn, 0, 0);
  82:Src/usbd_conf.c ****     HAL_NVIC_EnableIRQ(USB_LP_CAN1_RX0_IRQn);
  83:Src/usbd_conf.c ****   /* USER CODE BEGIN USB_MspInit 1 */
  84:Src/usbd_conf.c **** 
  85:Src/usbd_conf.c ****   /* USER CODE END USB_MspInit 1 */
  86:Src/usbd_conf.c ****   }
  87:Src/usbd_conf.c **** }
  88:Src/usbd_conf.c **** 
  89:Src/usbd_conf.c **** void HAL_PCD_MspDeInit(PCD_HandleTypeDef* pcdHandle)
ARM GAS  C:\Users\JCEM\AppData\Local\Temp\cckV0N5Q.s 			page 3


  90:Src/usbd_conf.c **** {
  91:Src/usbd_conf.c ****   if(pcdHandle->Instance==USB)
  92:Src/usbd_conf.c ****   {
  93:Src/usbd_conf.c ****   /* USER CODE BEGIN USB_MspDeInit 0 */
  94:Src/usbd_conf.c **** 
  95:Src/usbd_conf.c ****   /* USER CODE END USB_MspDeInit 0 */
  96:Src/usbd_conf.c ****     /* Peripheral clock disable */
  97:Src/usbd_conf.c ****     __HAL_RCC_USB_CLK_DISABLE();
  98:Src/usbd_conf.c **** 
  99:Src/usbd_conf.c ****     /* Peripheral interrupt Deinit*/
 100:Src/usbd_conf.c ****     HAL_NVIC_DisableIRQ(USB_LP_CAN1_RX0_IRQn);
 101:Src/usbd_conf.c **** 
 102:Src/usbd_conf.c ****   /* USER CODE BEGIN USB_MspDeInit 1 */
 103:Src/usbd_conf.c **** 
 104:Src/usbd_conf.c ****   /* USER CODE END USB_MspDeInit 1 */
 105:Src/usbd_conf.c ****   }
 106:Src/usbd_conf.c **** }
 107:Src/usbd_conf.c **** 
 108:Src/usbd_conf.c **** /**
 109:Src/usbd_conf.c ****   * @brief  Setup stage callback
 110:Src/usbd_conf.c ****   * @param  hpcd: PCD handle
 111:Src/usbd_conf.c ****   * @retval None
 112:Src/usbd_conf.c ****   */
 113:Src/usbd_conf.c **** #if (USE_HAL_PCD_REGISTER_CALLBACKS == 1U)
 114:Src/usbd_conf.c **** static void PCD_SetupStageCallback(PCD_HandleTypeDef *hpcd)
 115:Src/usbd_conf.c **** #else
 116:Src/usbd_conf.c **** void HAL_PCD_SetupStageCallback(PCD_HandleTypeDef *hpcd)
 117:Src/usbd_conf.c **** #endif /* USE_HAL_PCD_REGISTER_CALLBACKS */
 118:Src/usbd_conf.c **** {
 119:Src/usbd_conf.c ****   USBD_LL_SetupStage((USBD_HandleTypeDef*)hpcd->pData, (uint8_t *)hpcd->Setup);
 120:Src/usbd_conf.c **** }
 121:Src/usbd_conf.c **** 
 122:Src/usbd_conf.c **** /**
 123:Src/usbd_conf.c ****   * @brief  Data Out stage callback.
 124:Src/usbd_conf.c ****   * @param  hpcd: PCD handle
 125:Src/usbd_conf.c ****   * @param  epnum: Endpoint number
 126:Src/usbd_conf.c ****   * @retval None
 127:Src/usbd_conf.c ****   */
 128:Src/usbd_conf.c **** #if (USE_HAL_PCD_REGISTER_CALLBACKS == 1U)
 129:Src/usbd_conf.c **** static void PCD_DataOutStageCallback(PCD_HandleTypeDef *hpcd, uint8_t epnum)
 130:Src/usbd_conf.c **** #else
 131:Src/usbd_conf.c **** void HAL_PCD_DataOutStageCallback(PCD_HandleTypeDef *hpcd, uint8_t epnum)
 132:Src/usbd_conf.c **** #endif /* USE_HAL_PCD_REGISTER_CALLBACKS */
 133:Src/usbd_conf.c **** {
 134:Src/usbd_conf.c ****   USBD_LL_DataOutStage((USBD_HandleTypeDef*)hpcd->pData, epnum, hpcd->OUT_ep[epnum].xfer_buff);
 135:Src/usbd_conf.c **** }
 136:Src/usbd_conf.c **** 
 137:Src/usbd_conf.c **** /**
 138:Src/usbd_conf.c ****   * @brief  Data In stage callback.
 139:Src/usbd_conf.c ****   * @param  hpcd: PCD handle
 140:Src/usbd_conf.c ****   * @param  epnum: Endpoint number
 141:Src/usbd_conf.c ****   * @retval None
 142:Src/usbd_conf.c ****   */
 143:Src/usbd_conf.c **** #if (USE_HAL_PCD_REGISTER_CALLBACKS == 1U)
 144:Src/usbd_conf.c **** static void PCD_DataInStageCallback(PCD_HandleTypeDef *hpcd, uint8_t epnum)
 145:Src/usbd_conf.c **** #else
 146:Src/usbd_conf.c **** void HAL_PCD_DataInStageCallback(PCD_HandleTypeDef *hpcd, uint8_t epnum)
ARM GAS  C:\Users\JCEM\AppData\Local\Temp\cckV0N5Q.s 			page 4


 147:Src/usbd_conf.c **** #endif /* USE_HAL_PCD_REGISTER_CALLBACKS */
 148:Src/usbd_conf.c **** {
 149:Src/usbd_conf.c ****   USBD_LL_DataInStage((USBD_HandleTypeDef*)hpcd->pData, epnum, hpcd->IN_ep[epnum].xfer_buff);
 150:Src/usbd_conf.c **** }
 151:Src/usbd_conf.c **** 
 152:Src/usbd_conf.c **** /**
 153:Src/usbd_conf.c ****   * @brief  SOF callback.
 154:Src/usbd_conf.c ****   * @param  hpcd: PCD handle
 155:Src/usbd_conf.c ****   * @retval None
 156:Src/usbd_conf.c ****   */
 157:Src/usbd_conf.c **** #if (USE_HAL_PCD_REGISTER_CALLBACKS == 1U)
 158:Src/usbd_conf.c **** static void PCD_SOFCallback(PCD_HandleTypeDef *hpcd)
 159:Src/usbd_conf.c **** #else
 160:Src/usbd_conf.c **** void HAL_PCD_SOFCallback(PCD_HandleTypeDef *hpcd)
 161:Src/usbd_conf.c **** #endif /* USE_HAL_PCD_REGISTER_CALLBACKS */
 162:Src/usbd_conf.c **** {
 163:Src/usbd_conf.c ****   USBD_LL_SOF((USBD_HandleTypeDef*)hpcd->pData);
 164:Src/usbd_conf.c **** }
 165:Src/usbd_conf.c **** 
 166:Src/usbd_conf.c **** /**
 167:Src/usbd_conf.c ****   * @brief  Reset callback.
 168:Src/usbd_conf.c ****   * @param  hpcd: PCD handle
 169:Src/usbd_conf.c ****   * @retval None
 170:Src/usbd_conf.c ****   */
 171:Src/usbd_conf.c **** #if (USE_HAL_PCD_REGISTER_CALLBACKS == 1U)
 172:Src/usbd_conf.c **** static void PCD_ResetCallback(PCD_HandleTypeDef *hpcd)
 173:Src/usbd_conf.c **** #else
 174:Src/usbd_conf.c **** void HAL_PCD_ResetCallback(PCD_HandleTypeDef *hpcd)
 175:Src/usbd_conf.c **** #endif /* USE_HAL_PCD_REGISTER_CALLBACKS */
 176:Src/usbd_conf.c **** { 
 177:Src/usbd_conf.c ****   USBD_SpeedTypeDef speed = USBD_SPEED_FULL;
 178:Src/usbd_conf.c **** 
 179:Src/usbd_conf.c ****   if ( hpcd->Init.speed != PCD_SPEED_FULL)
 180:Src/usbd_conf.c ****   {
 181:Src/usbd_conf.c ****     Error_Handler();
 182:Src/usbd_conf.c ****   }
 183:Src/usbd_conf.c ****     /* Set Speed. */
 184:Src/usbd_conf.c ****   USBD_LL_SetSpeed((USBD_HandleTypeDef*)hpcd->pData, speed);
 185:Src/usbd_conf.c **** 
 186:Src/usbd_conf.c ****   /* Reset Device. */
 187:Src/usbd_conf.c ****   USBD_LL_Reset((USBD_HandleTypeDef*)hpcd->pData);
 188:Src/usbd_conf.c **** }
 189:Src/usbd_conf.c **** 
 190:Src/usbd_conf.c **** /**
 191:Src/usbd_conf.c ****   * @brief  Suspend callback.
 192:Src/usbd_conf.c ****   * When Low power mode is enabled the debug cannot be used (IAR, Keil doesn't support it)
 193:Src/usbd_conf.c ****   * @param  hpcd: PCD handle
 194:Src/usbd_conf.c ****   * @retval None
 195:Src/usbd_conf.c ****   */
 196:Src/usbd_conf.c **** #if (USE_HAL_PCD_REGISTER_CALLBACKS == 1U)
 197:Src/usbd_conf.c **** static void PCD_SuspendCallback(PCD_HandleTypeDef *hpcd)
 198:Src/usbd_conf.c **** #else
 199:Src/usbd_conf.c **** void HAL_PCD_SuspendCallback(PCD_HandleTypeDef *hpcd)
 200:Src/usbd_conf.c **** #endif /* USE_HAL_PCD_REGISTER_CALLBACKS */
 201:Src/usbd_conf.c **** {
 202:Src/usbd_conf.c ****   /* Inform USB library that core enters in suspend Mode. */
 203:Src/usbd_conf.c ****   USBD_LL_Suspend((USBD_HandleTypeDef*)hpcd->pData);
ARM GAS  C:\Users\JCEM\AppData\Local\Temp\cckV0N5Q.s 			page 5


 204:Src/usbd_conf.c ****   /* Enter in STOP mode. */
 205:Src/usbd_conf.c ****   /* USER CODE BEGIN 2 */
 206:Src/usbd_conf.c ****   if (hpcd->Init.low_power_enable)
 207:Src/usbd_conf.c ****   {
 208:Src/usbd_conf.c ****     /* Set SLEEPDEEP bit and SleepOnExit of Cortex System Control Register. */
 209:Src/usbd_conf.c ****     SCB->SCR |= (uint32_t)((uint32_t)(SCB_SCR_SLEEPDEEP_Msk | SCB_SCR_SLEEPONEXIT_Msk));
 210:Src/usbd_conf.c ****   }
 211:Src/usbd_conf.c ****   /* USER CODE END 2 */
 212:Src/usbd_conf.c **** }
 213:Src/usbd_conf.c **** 
 214:Src/usbd_conf.c **** /**
 215:Src/usbd_conf.c ****   * @brief  Resume callback.
 216:Src/usbd_conf.c ****   * When Low power mode is enabled the debug cannot be used (IAR, Keil doesn't support it)
 217:Src/usbd_conf.c ****   * @param  hpcd: PCD handle
 218:Src/usbd_conf.c ****   * @retval None
 219:Src/usbd_conf.c ****   */
 220:Src/usbd_conf.c **** #if (USE_HAL_PCD_REGISTER_CALLBACKS == 1U)
 221:Src/usbd_conf.c **** static void PCD_ResumeCallback(PCD_HandleTypeDef *hpcd)
 222:Src/usbd_conf.c **** #else
 223:Src/usbd_conf.c **** void HAL_PCD_ResumeCallback(PCD_HandleTypeDef *hpcd)
 224:Src/usbd_conf.c **** #endif /* USE_HAL_PCD_REGISTER_CALLBACKS */
 225:Src/usbd_conf.c **** {
 226:Src/usbd_conf.c ****   /* USER CODE BEGIN 3 */
 227:Src/usbd_conf.c **** 
 228:Src/usbd_conf.c ****   /* USER CODE END 3 */
 229:Src/usbd_conf.c ****   USBD_LL_Resume((USBD_HandleTypeDef*)hpcd->pData);
 230:Src/usbd_conf.c **** }
 231:Src/usbd_conf.c **** 
 232:Src/usbd_conf.c **** /**
 233:Src/usbd_conf.c ****   * @brief  ISOOUTIncomplete callback.
 234:Src/usbd_conf.c ****   * @param  hpcd: PCD handle
 235:Src/usbd_conf.c ****   * @param  epnum: Endpoint number
 236:Src/usbd_conf.c ****   * @retval None
 237:Src/usbd_conf.c ****   */
 238:Src/usbd_conf.c **** #if (USE_HAL_PCD_REGISTER_CALLBACKS == 1U)
 239:Src/usbd_conf.c **** static void PCD_ISOOUTIncompleteCallback(PCD_HandleTypeDef *hpcd, uint8_t epnum)
 240:Src/usbd_conf.c **** #else
 241:Src/usbd_conf.c **** void HAL_PCD_ISOOUTIncompleteCallback(PCD_HandleTypeDef *hpcd, uint8_t epnum)
 242:Src/usbd_conf.c **** #endif /* USE_HAL_PCD_REGISTER_CALLBACKS */
 243:Src/usbd_conf.c **** {
 244:Src/usbd_conf.c ****   USBD_LL_IsoOUTIncomplete((USBD_HandleTypeDef*)hpcd->pData, epnum);
 245:Src/usbd_conf.c **** }
 246:Src/usbd_conf.c **** 
 247:Src/usbd_conf.c **** /**
 248:Src/usbd_conf.c ****   * @brief  ISOINIncomplete callback.
 249:Src/usbd_conf.c ****   * @param  hpcd: PCD handle
 250:Src/usbd_conf.c ****   * @param  epnum: Endpoint number
 251:Src/usbd_conf.c ****   * @retval None
 252:Src/usbd_conf.c ****   */
 253:Src/usbd_conf.c **** #if (USE_HAL_PCD_REGISTER_CALLBACKS == 1U)
 254:Src/usbd_conf.c **** static void PCD_ISOINIncompleteCallback(PCD_HandleTypeDef *hpcd, uint8_t epnum)
 255:Src/usbd_conf.c **** #else
 256:Src/usbd_conf.c **** void HAL_PCD_ISOINIncompleteCallback(PCD_HandleTypeDef *hpcd, uint8_t epnum)
 257:Src/usbd_conf.c **** #endif /* USE_HAL_PCD_REGISTER_CALLBACKS */
 258:Src/usbd_conf.c **** {
 259:Src/usbd_conf.c ****   USBD_LL_IsoINIncomplete((USBD_HandleTypeDef*)hpcd->pData, epnum);
 260:Src/usbd_conf.c **** }
ARM GAS  C:\Users\JCEM\AppData\Local\Temp\cckV0N5Q.s 			page 6


 261:Src/usbd_conf.c **** 
 262:Src/usbd_conf.c **** /**
 263:Src/usbd_conf.c ****   * @brief  Connect callback.
 264:Src/usbd_conf.c ****   * @param  hpcd: PCD handle
 265:Src/usbd_conf.c ****   * @retval None
 266:Src/usbd_conf.c ****   */
 267:Src/usbd_conf.c **** #if (USE_HAL_PCD_REGISTER_CALLBACKS == 1U)
 268:Src/usbd_conf.c **** static void PCD_ConnectCallback(PCD_HandleTypeDef *hpcd)
 269:Src/usbd_conf.c **** #else
 270:Src/usbd_conf.c **** void HAL_PCD_ConnectCallback(PCD_HandleTypeDef *hpcd)
 271:Src/usbd_conf.c **** #endif /* USE_HAL_PCD_REGISTER_CALLBACKS */
 272:Src/usbd_conf.c **** {
 273:Src/usbd_conf.c ****   USBD_LL_DevConnected((USBD_HandleTypeDef*)hpcd->pData);
 274:Src/usbd_conf.c **** }
 275:Src/usbd_conf.c **** 
 276:Src/usbd_conf.c **** /**
 277:Src/usbd_conf.c ****   * @brief  Disconnect callback.
 278:Src/usbd_conf.c ****   * @param  hpcd: PCD handle
 279:Src/usbd_conf.c ****   * @retval None
 280:Src/usbd_conf.c ****   */
 281:Src/usbd_conf.c **** #if (USE_HAL_PCD_REGISTER_CALLBACKS == 1U)
 282:Src/usbd_conf.c **** static void PCD_DisconnectCallback(PCD_HandleTypeDef *hpcd)
 283:Src/usbd_conf.c **** #else
 284:Src/usbd_conf.c **** void HAL_PCD_DisconnectCallback(PCD_HandleTypeDef *hpcd)
 285:Src/usbd_conf.c **** #endif /* USE_HAL_PCD_REGISTER_CALLBACKS */
 286:Src/usbd_conf.c **** {
 287:Src/usbd_conf.c ****   USBD_LL_DevDisconnected((USBD_HandleTypeDef*)hpcd->pData);
 288:Src/usbd_conf.c **** }
 289:Src/usbd_conf.c **** 
 290:Src/usbd_conf.c **** /*******************************************************************************
 291:Src/usbd_conf.c ****                        LL Driver Interface (USB Device Library --> PCD)
 292:Src/usbd_conf.c **** *******************************************************************************/
 293:Src/usbd_conf.c **** 
 294:Src/usbd_conf.c **** /**
 295:Src/usbd_conf.c ****   * @brief  Initializes the low level portion of the device driver.
 296:Src/usbd_conf.c ****   * @param  pdev: Device handle
 297:Src/usbd_conf.c ****   * @retval USBD status
 298:Src/usbd_conf.c ****   */
 299:Src/usbd_conf.c **** USBD_StatusTypeDef USBD_LL_Init(USBD_HandleTypeDef *pdev)
 300:Src/usbd_conf.c **** {
 301:Src/usbd_conf.c ****   /* Init USB Ip. */
 302:Src/usbd_conf.c ****   /* Link the driver to the stack. */
 303:Src/usbd_conf.c ****   hpcd_USB_FS.pData = pdev;
 304:Src/usbd_conf.c ****   pdev->pData = &hpcd_USB_FS;
 305:Src/usbd_conf.c **** 
 306:Src/usbd_conf.c ****   hpcd_USB_FS.Instance = USB;
 307:Src/usbd_conf.c ****   hpcd_USB_FS.Init.dev_endpoints = 8;
 308:Src/usbd_conf.c ****   hpcd_USB_FS.Init.speed = PCD_SPEED_FULL;
 309:Src/usbd_conf.c ****   hpcd_USB_FS.Init.low_power_enable = DISABLE;
 310:Src/usbd_conf.c ****   hpcd_USB_FS.Init.lpm_enable = DISABLE;
 311:Src/usbd_conf.c ****   hpcd_USB_FS.Init.battery_charging_enable = DISABLE;
 312:Src/usbd_conf.c ****   if (HAL_PCD_Init(&hpcd_USB_FS) != HAL_OK)
 313:Src/usbd_conf.c ****   {
 314:Src/usbd_conf.c ****     Error_Handler( );
 315:Src/usbd_conf.c ****   }
 316:Src/usbd_conf.c **** 
 317:Src/usbd_conf.c **** #if (USE_HAL_PCD_REGISTER_CALLBACKS == 1U)
ARM GAS  C:\Users\JCEM\AppData\Local\Temp\cckV0N5Q.s 			page 7


 318:Src/usbd_conf.c ****   /* Register USB PCD CallBacks */
 319:Src/usbd_conf.c ****   HAL_PCD_RegisterCallback(&hpcd_USB_FS, HAL_PCD_SOF_CB_ID, PCD_SOFCallback);
 320:Src/usbd_conf.c ****   HAL_PCD_RegisterCallback(&hpcd_USB_FS, HAL_PCD_SETUPSTAGE_CB_ID, PCD_SetupStageCallback);
 321:Src/usbd_conf.c ****   HAL_PCD_RegisterCallback(&hpcd_USB_FS, HAL_PCD_RESET_CB_ID, PCD_ResetCallback);
 322:Src/usbd_conf.c ****   HAL_PCD_RegisterCallback(&hpcd_USB_FS, HAL_PCD_SUSPEND_CB_ID, PCD_SuspendCallback);
 323:Src/usbd_conf.c ****   HAL_PCD_RegisterCallback(&hpcd_USB_FS, HAL_PCD_RESUME_CB_ID, PCD_ResumeCallback);
 324:Src/usbd_conf.c ****   HAL_PCD_RegisterCallback(&hpcd_USB_FS, HAL_PCD_CONNECT_CB_ID, PCD_ConnectCallback);
 325:Src/usbd_conf.c ****   HAL_PCD_RegisterCallback(&hpcd_USB_FS, HAL_PCD_DISCONNECT_CB_ID, PCD_DisconnectCallback);
 326:Src/usbd_conf.c **** 
 327:Src/usbd_conf.c ****   HAL_PCD_RegisterDataOutStageCallback(&hpcd_USB_FS, PCD_DataOutStageCallback);
 328:Src/usbd_conf.c ****   HAL_PCD_RegisterDataInStageCallback(&hpcd_USB_FS, PCD_DataInStageCallback);
 329:Src/usbd_conf.c ****   HAL_PCD_RegisterIsoOutIncpltCallback(&hpcd_USB_FS, PCD_ISOOUTIncompleteCallback);
 330:Src/usbd_conf.c ****   HAL_PCD_RegisterIsoInIncpltCallback(&hpcd_USB_FS, PCD_ISOINIncompleteCallback);
 331:Src/usbd_conf.c **** #endif /* USE_HAL_PCD_REGISTER_CALLBACKS */
 332:Src/usbd_conf.c ****   /* USER CODE BEGIN EndPoint_Configuration */
 333:Src/usbd_conf.c ****   HAL_PCDEx_PMAConfig((PCD_HandleTypeDef*)pdev->pData , 0x00 , PCD_SNG_BUF, 0x18);
 334:Src/usbd_conf.c ****   HAL_PCDEx_PMAConfig((PCD_HandleTypeDef*)pdev->pData , 0x80 , PCD_SNG_BUF, 0x58);
 335:Src/usbd_conf.c ****   /* USER CODE END EndPoint_Configuration */
 336:Src/usbd_conf.c ****   /* USER CODE BEGIN EndPoint_Configuration_CDC */
 337:Src/usbd_conf.c ****   HAL_PCDEx_PMAConfig((PCD_HandleTypeDef*)pdev->pData , 0x81 , PCD_SNG_BUF, 0xC0);
 338:Src/usbd_conf.c ****   HAL_PCDEx_PMAConfig((PCD_HandleTypeDef*)pdev->pData , 0x01 , PCD_SNG_BUF, 0x110);
 339:Src/usbd_conf.c ****   HAL_PCDEx_PMAConfig((PCD_HandleTypeDef*)pdev->pData , 0x82 , PCD_SNG_BUF, 0x100);
 340:Src/usbd_conf.c ****   /* USER CODE END EndPoint_Configuration_CDC */
 341:Src/usbd_conf.c ****   return USBD_OK;
 342:Src/usbd_conf.c **** }
 343:Src/usbd_conf.c **** 
 344:Src/usbd_conf.c **** /**
 345:Src/usbd_conf.c ****   * @brief  De-Initializes the low level portion of the device driver.
 346:Src/usbd_conf.c ****   * @param  pdev: Device handle
 347:Src/usbd_conf.c ****   * @retval USBD status
 348:Src/usbd_conf.c ****   */
 349:Src/usbd_conf.c **** USBD_StatusTypeDef USBD_LL_DeInit(USBD_HandleTypeDef *pdev)
 350:Src/usbd_conf.c **** {
 351:Src/usbd_conf.c ****   HAL_StatusTypeDef hal_status = HAL_OK;
 352:Src/usbd_conf.c ****   USBD_StatusTypeDef usb_status = USBD_OK;
 353:Src/usbd_conf.c **** 
 354:Src/usbd_conf.c ****   hal_status = HAL_PCD_DeInit(pdev->pData);
 355:Src/usbd_conf.c **** 
 356:Src/usbd_conf.c ****   usb_status =  USBD_Get_USB_Status(hal_status);
 357:Src/usbd_conf.c ****  
 358:Src/usbd_conf.c ****   return usb_status; 
 359:Src/usbd_conf.c **** }
 360:Src/usbd_conf.c **** 
 361:Src/usbd_conf.c **** /**
 362:Src/usbd_conf.c ****   * @brief  Starts the low level portion of the device driver.
 363:Src/usbd_conf.c ****   * @param  pdev: Device handle
 364:Src/usbd_conf.c ****   * @retval USBD status
 365:Src/usbd_conf.c ****   */
 366:Src/usbd_conf.c **** USBD_StatusTypeDef USBD_LL_Start(USBD_HandleTypeDef *pdev)
 367:Src/usbd_conf.c **** {
 368:Src/usbd_conf.c ****   HAL_StatusTypeDef hal_status = HAL_OK;
 369:Src/usbd_conf.c ****   USBD_StatusTypeDef usb_status = USBD_OK;
 370:Src/usbd_conf.c ****  
 371:Src/usbd_conf.c ****   hal_status = HAL_PCD_Start(pdev->pData);
 372:Src/usbd_conf.c ****      
 373:Src/usbd_conf.c ****   usb_status =  USBD_Get_USB_Status(hal_status);
 374:Src/usbd_conf.c ****   
ARM GAS  C:\Users\JCEM\AppData\Local\Temp\cckV0N5Q.s 			page 8


 375:Src/usbd_conf.c ****   return usb_status;
 376:Src/usbd_conf.c **** }
 377:Src/usbd_conf.c **** 
 378:Src/usbd_conf.c **** /**
 379:Src/usbd_conf.c ****   * @brief  Stops the low level portion of the device driver.
 380:Src/usbd_conf.c ****   * @param  pdev: Device handle
 381:Src/usbd_conf.c ****   * @retval USBD status
 382:Src/usbd_conf.c ****   */
 383:Src/usbd_conf.c **** USBD_StatusTypeDef USBD_LL_Stop(USBD_HandleTypeDef *pdev)
 384:Src/usbd_conf.c **** {
 385:Src/usbd_conf.c ****   HAL_StatusTypeDef hal_status = HAL_OK;
 386:Src/usbd_conf.c ****   USBD_StatusTypeDef usb_status = USBD_OK;
 387:Src/usbd_conf.c **** 
 388:Src/usbd_conf.c ****   hal_status = HAL_PCD_Stop(pdev->pData);
 389:Src/usbd_conf.c **** 
 390:Src/usbd_conf.c ****   usb_status =  USBD_Get_USB_Status(hal_status);
 391:Src/usbd_conf.c ****   
 392:Src/usbd_conf.c ****   return usb_status;
 393:Src/usbd_conf.c **** }
 394:Src/usbd_conf.c **** 
 395:Src/usbd_conf.c **** /**
 396:Src/usbd_conf.c ****   * @brief  Opens an endpoint of the low level driver.
 397:Src/usbd_conf.c ****   * @param  pdev: Device handle
 398:Src/usbd_conf.c ****   * @param  ep_addr: Endpoint number
 399:Src/usbd_conf.c ****   * @param  ep_type: Endpoint type
 400:Src/usbd_conf.c ****   * @param  ep_mps: Endpoint max packet size
 401:Src/usbd_conf.c ****   * @retval USBD status
 402:Src/usbd_conf.c ****   */
 403:Src/usbd_conf.c **** USBD_StatusTypeDef USBD_LL_OpenEP(USBD_HandleTypeDef *pdev, uint8_t ep_addr, uint8_t ep_type, uint1
 404:Src/usbd_conf.c **** {
 405:Src/usbd_conf.c ****   HAL_StatusTypeDef hal_status = HAL_OK;
 406:Src/usbd_conf.c ****   USBD_StatusTypeDef usb_status = USBD_OK;
 407:Src/usbd_conf.c **** 
 408:Src/usbd_conf.c ****   hal_status = HAL_PCD_EP_Open(pdev->pData, ep_addr, ep_mps, ep_type);
 409:Src/usbd_conf.c **** 
 410:Src/usbd_conf.c ****   usb_status =  USBD_Get_USB_Status(hal_status);
 411:Src/usbd_conf.c ****  
 412:Src/usbd_conf.c ****   return usb_status;
 413:Src/usbd_conf.c **** }
 414:Src/usbd_conf.c **** 
 415:Src/usbd_conf.c **** /**
 416:Src/usbd_conf.c ****   * @brief  Closes an endpoint of the low level driver.
 417:Src/usbd_conf.c ****   * @param  pdev: Device handle
 418:Src/usbd_conf.c ****   * @param  ep_addr: Endpoint number
 419:Src/usbd_conf.c ****   * @retval USBD status
 420:Src/usbd_conf.c ****   */
 421:Src/usbd_conf.c **** USBD_StatusTypeDef USBD_LL_CloseEP(USBD_HandleTypeDef *pdev, uint8_t ep_addr)
 422:Src/usbd_conf.c **** {
 423:Src/usbd_conf.c ****   HAL_StatusTypeDef hal_status = HAL_OK;
 424:Src/usbd_conf.c ****   USBD_StatusTypeDef usb_status = USBD_OK;
 425:Src/usbd_conf.c ****   
 426:Src/usbd_conf.c ****   hal_status = HAL_PCD_EP_Close(pdev->pData, ep_addr);
 427:Src/usbd_conf.c ****       
 428:Src/usbd_conf.c ****   usb_status =  USBD_Get_USB_Status(hal_status);
 429:Src/usbd_conf.c **** 
 430:Src/usbd_conf.c ****   return usb_status;  
 431:Src/usbd_conf.c **** }
ARM GAS  C:\Users\JCEM\AppData\Local\Temp\cckV0N5Q.s 			page 9


 432:Src/usbd_conf.c **** 
 433:Src/usbd_conf.c **** /**
 434:Src/usbd_conf.c ****   * @brief  Flushes an endpoint of the Low Level Driver.
 435:Src/usbd_conf.c ****   * @param  pdev: Device handle
 436:Src/usbd_conf.c ****   * @param  ep_addr: Endpoint number
 437:Src/usbd_conf.c ****   * @retval USBD status
 438:Src/usbd_conf.c ****   */
 439:Src/usbd_conf.c **** USBD_StatusTypeDef USBD_LL_FlushEP(USBD_HandleTypeDef *pdev, uint8_t ep_addr)
 440:Src/usbd_conf.c **** {
 441:Src/usbd_conf.c ****   HAL_StatusTypeDef hal_status = HAL_OK;
 442:Src/usbd_conf.c ****   USBD_StatusTypeDef usb_status = USBD_OK;
 443:Src/usbd_conf.c ****   
 444:Src/usbd_conf.c ****   hal_status = HAL_PCD_EP_Flush(pdev->pData, ep_addr);
 445:Src/usbd_conf.c ****       
 446:Src/usbd_conf.c ****   usb_status =  USBD_Get_USB_Status(hal_status);
 447:Src/usbd_conf.c ****   
 448:Src/usbd_conf.c ****   return usb_status;  
 449:Src/usbd_conf.c **** }
 450:Src/usbd_conf.c **** 
 451:Src/usbd_conf.c **** /**
 452:Src/usbd_conf.c ****   * @brief  Sets a Stall condition on an endpoint of the Low Level Driver.
 453:Src/usbd_conf.c ****   * @param  pdev: Device handle
 454:Src/usbd_conf.c ****   * @param  ep_addr: Endpoint number
 455:Src/usbd_conf.c ****   * @retval USBD status
 456:Src/usbd_conf.c ****   */
 457:Src/usbd_conf.c **** USBD_StatusTypeDef USBD_LL_StallEP(USBD_HandleTypeDef *pdev, uint8_t ep_addr)
 458:Src/usbd_conf.c **** {
 459:Src/usbd_conf.c ****   HAL_StatusTypeDef hal_status = HAL_OK;
 460:Src/usbd_conf.c ****   USBD_StatusTypeDef usb_status = USBD_OK;
 461:Src/usbd_conf.c ****   
 462:Src/usbd_conf.c ****   hal_status = HAL_PCD_EP_SetStall(pdev->pData, ep_addr);
 463:Src/usbd_conf.c **** 
 464:Src/usbd_conf.c ****   usb_status =  USBD_Get_USB_Status(hal_status);
 465:Src/usbd_conf.c ****  
 466:Src/usbd_conf.c ****   return usb_status;  
 467:Src/usbd_conf.c **** }
 468:Src/usbd_conf.c **** 
 469:Src/usbd_conf.c **** /**
 470:Src/usbd_conf.c ****   * @brief  Clears a Stall condition on an endpoint of the Low Level Driver.
 471:Src/usbd_conf.c ****   * @param  pdev: Device handle
 472:Src/usbd_conf.c ****   * @param  ep_addr: Endpoint number
 473:Src/usbd_conf.c ****   * @retval USBD status
 474:Src/usbd_conf.c ****   */
 475:Src/usbd_conf.c **** USBD_StatusTypeDef USBD_LL_ClearStallEP(USBD_HandleTypeDef *pdev, uint8_t ep_addr)
 476:Src/usbd_conf.c **** {
 477:Src/usbd_conf.c ****   HAL_StatusTypeDef hal_status = HAL_OK;
 478:Src/usbd_conf.c ****   USBD_StatusTypeDef usb_status = USBD_OK;
 479:Src/usbd_conf.c ****   
 480:Src/usbd_conf.c ****   hal_status = HAL_PCD_EP_ClrStall(pdev->pData, ep_addr);  
 481:Src/usbd_conf.c ****      
 482:Src/usbd_conf.c ****   usb_status =  USBD_Get_USB_Status(hal_status);
 483:Src/usbd_conf.c **** 
 484:Src/usbd_conf.c ****   return usb_status; 
 485:Src/usbd_conf.c **** }
 486:Src/usbd_conf.c **** 
 487:Src/usbd_conf.c **** /**
 488:Src/usbd_conf.c ****   * @brief  Returns Stall condition.
ARM GAS  C:\Users\JCEM\AppData\Local\Temp\cckV0N5Q.s 			page 10


 489:Src/usbd_conf.c ****   * @param  pdev: Device handle
 490:Src/usbd_conf.c ****   * @param  ep_addr: Endpoint number
 491:Src/usbd_conf.c ****   * @retval Stall (1: Yes, 0: No)
 492:Src/usbd_conf.c ****   */
 493:Src/usbd_conf.c **** uint8_t USBD_LL_IsStallEP(USBD_HandleTypeDef *pdev, uint8_t ep_addr)
 494:Src/usbd_conf.c **** {
 495:Src/usbd_conf.c ****   PCD_HandleTypeDef *hpcd = (PCD_HandleTypeDef*) pdev->pData;
 496:Src/usbd_conf.c ****   
 497:Src/usbd_conf.c ****   if((ep_addr & 0x80) == 0x80)
 498:Src/usbd_conf.c ****   {
 499:Src/usbd_conf.c ****     return hpcd->IN_ep[ep_addr & 0x7F].is_stall; 
 500:Src/usbd_conf.c ****   }
 501:Src/usbd_conf.c ****   else
 502:Src/usbd_conf.c ****   {
 503:Src/usbd_conf.c ****     return hpcd->OUT_ep[ep_addr & 0x7F].is_stall; 
 504:Src/usbd_conf.c ****   }
 505:Src/usbd_conf.c **** }
 506:Src/usbd_conf.c **** 
 507:Src/usbd_conf.c **** /**
 508:Src/usbd_conf.c ****   * @brief  Assigns a USB address to the device.
 509:Src/usbd_conf.c ****   * @param  pdev: Device handle
 510:Src/usbd_conf.c ****   * @param  dev_addr: Device address
 511:Src/usbd_conf.c ****   * @retval USBD status
 512:Src/usbd_conf.c ****   */
 513:Src/usbd_conf.c **** USBD_StatusTypeDef USBD_LL_SetUSBAddress(USBD_HandleTypeDef *pdev, uint8_t dev_addr)
 514:Src/usbd_conf.c **** {
 515:Src/usbd_conf.c ****   HAL_StatusTypeDef hal_status = HAL_OK;
 516:Src/usbd_conf.c ****   USBD_StatusTypeDef usb_status = USBD_OK;
 517:Src/usbd_conf.c ****   
 518:Src/usbd_conf.c ****   hal_status = HAL_PCD_SetAddress(pdev->pData, dev_addr);
 519:Src/usbd_conf.c ****      
 520:Src/usbd_conf.c ****   usb_status =  USBD_Get_USB_Status(hal_status);
 521:Src/usbd_conf.c ****  
 522:Src/usbd_conf.c ****   return usb_status;  
 523:Src/usbd_conf.c **** }
 524:Src/usbd_conf.c **** 
 525:Src/usbd_conf.c **** /**
 526:Src/usbd_conf.c ****   * @brief  Transmits data over an endpoint.
 527:Src/usbd_conf.c ****   * @param  pdev: Device handle
 528:Src/usbd_conf.c ****   * @param  ep_addr: Endpoint number
 529:Src/usbd_conf.c ****   * @param  pbuf: Pointer to data to be sent
 530:Src/usbd_conf.c ****   * @param  size: Data size    
 531:Src/usbd_conf.c ****   * @retval USBD status
 532:Src/usbd_conf.c ****   */
 533:Src/usbd_conf.c **** USBD_StatusTypeDef USBD_LL_Transmit(USBD_HandleTypeDef *pdev, uint8_t ep_addr, uint8_t *pbuf, uint1
 534:Src/usbd_conf.c **** {
 535:Src/usbd_conf.c ****   HAL_StatusTypeDef hal_status = HAL_OK;
 536:Src/usbd_conf.c ****   USBD_StatusTypeDef usb_status = USBD_OK;
 537:Src/usbd_conf.c **** 
 538:Src/usbd_conf.c ****   hal_status = HAL_PCD_EP_Transmit(pdev->pData, ep_addr, pbuf, size);
 539:Src/usbd_conf.c ****      
 540:Src/usbd_conf.c ****   usb_status =  USBD_Get_USB_Status(hal_status);
 541:Src/usbd_conf.c ****   
 542:Src/usbd_conf.c ****   return usb_status;    
 543:Src/usbd_conf.c **** }
 544:Src/usbd_conf.c **** 
 545:Src/usbd_conf.c **** /**
ARM GAS  C:\Users\JCEM\AppData\Local\Temp\cckV0N5Q.s 			page 11


 546:Src/usbd_conf.c ****   * @brief  Prepares an endpoint for reception.
 547:Src/usbd_conf.c ****   * @param  pdev: Device handle
 548:Src/usbd_conf.c ****   * @param  ep_addr: Endpoint number
 549:Src/usbd_conf.c ****   * @param  pbuf: Pointer to data to be received
 550:Src/usbd_conf.c ****   * @param  size: Data size
 551:Src/usbd_conf.c ****   * @retval USBD status
 552:Src/usbd_conf.c ****   */
 553:Src/usbd_conf.c **** USBD_StatusTypeDef USBD_LL_PrepareReceive(USBD_HandleTypeDef *pdev, uint8_t ep_addr, uint8_t *pbuf,
 554:Src/usbd_conf.c **** {
 555:Src/usbd_conf.c ****   HAL_StatusTypeDef hal_status = HAL_OK;
 556:Src/usbd_conf.c ****   USBD_StatusTypeDef usb_status = USBD_OK;
 557:Src/usbd_conf.c **** 
 558:Src/usbd_conf.c ****   hal_status = HAL_PCD_EP_Receive(pdev->pData, ep_addr, pbuf, size);
 559:Src/usbd_conf.c ****      
 560:Src/usbd_conf.c ****   usb_status =  USBD_Get_USB_Status(hal_status);
 561:Src/usbd_conf.c ****   	
 562:Src/usbd_conf.c ****   return usb_status; 
 563:Src/usbd_conf.c **** }
 564:Src/usbd_conf.c **** 
 565:Src/usbd_conf.c **** /**
 566:Src/usbd_conf.c ****   * @brief  Returns the last transfered packet size.
 567:Src/usbd_conf.c ****   * @param  pdev: Device handle
 568:Src/usbd_conf.c ****   * @param  ep_addr: Endpoint number
 569:Src/usbd_conf.c ****   * @retval Recived Data Size
 570:Src/usbd_conf.c ****   */
 571:Src/usbd_conf.c **** uint32_t USBD_LL_GetRxDataSize(USBD_HandleTypeDef *pdev, uint8_t ep_addr)
 572:Src/usbd_conf.c **** {
 573:Src/usbd_conf.c ****   return HAL_PCD_EP_GetRxCount((PCD_HandleTypeDef*) pdev->pData, ep_addr);
 574:Src/usbd_conf.c **** }
 575:Src/usbd_conf.c **** 
 576:Src/usbd_conf.c **** /**
 577:Src/usbd_conf.c ****   * @brief  Delays routine for the USB device library.
 578:Src/usbd_conf.c ****   * @param  Delay: Delay in ms
 579:Src/usbd_conf.c ****   * @retval None
 580:Src/usbd_conf.c ****   */
 581:Src/usbd_conf.c **** void USBD_LL_Delay(uint32_t Delay)
 582:Src/usbd_conf.c **** {
 583:Src/usbd_conf.c ****   HAL_Delay(Delay);
 584:Src/usbd_conf.c **** }
 585:Src/usbd_conf.c **** 
 586:Src/usbd_conf.c **** /**
 587:Src/usbd_conf.c ****   * @brief  Static single allocation.
 588:Src/usbd_conf.c ****   * @param  size: Size of allocated memory
 589:Src/usbd_conf.c ****   * @retval None
 590:Src/usbd_conf.c ****   */
 591:Src/usbd_conf.c **** void *USBD_static_malloc(uint32_t size)
 592:Src/usbd_conf.c **** {
 593:Src/usbd_conf.c ****   static uint32_t mem[(sizeof(USBD_CDC_HandleTypeDef)/4)+1];/* On 32-bit boundary */
 594:Src/usbd_conf.c ****   return mem;
 595:Src/usbd_conf.c **** }
 596:Src/usbd_conf.c **** 
 597:Src/usbd_conf.c **** /**
 598:Src/usbd_conf.c ****   * @brief  Dummy memory free
 599:Src/usbd_conf.c ****   * @param  p: Pointer to allocated  memory address
 600:Src/usbd_conf.c ****   * @retval None
 601:Src/usbd_conf.c ****   */
 602:Src/usbd_conf.c **** void USBD_static_free(void *p)
ARM GAS  C:\Users\JCEM\AppData\Local\Temp\cckV0N5Q.s 			page 12


 603:Src/usbd_conf.c **** {
 604:Src/usbd_conf.c **** 
 605:Src/usbd_conf.c **** }
 606:Src/usbd_conf.c **** 
 607:Src/usbd_conf.c **** /**
 608:Src/usbd_conf.c ****   * @brief Software Device Connection
 609:Src/usbd_conf.c ****   * @param hpcd: PCD handle
 610:Src/usbd_conf.c ****   * @param state: Connection state (0: disconnected / 1: connected)
 611:Src/usbd_conf.c ****   * @retval None
 612:Src/usbd_conf.c ****   */
 613:Src/usbd_conf.c **** #if (USE_HAL_PCD_REGISTER_CALLBACKS == 1U)
 614:Src/usbd_conf.c **** static void PCDEx_SetConnectionState(PCD_HandleTypeDef *hpcd, uint8_t state)
 615:Src/usbd_conf.c **** #else
 616:Src/usbd_conf.c **** void HAL_PCDEx_SetConnectionState(PCD_HandleTypeDef *hpcd, uint8_t state)
 617:Src/usbd_conf.c **** #endif /* USE_HAL_PCD_REGISTER_CALLBACKS */
 618:Src/usbd_conf.c **** {
 619:Src/usbd_conf.c ****   /* USER CODE BEGIN 6 */
 620:Src/usbd_conf.c ****   if (state == 1)
 621:Src/usbd_conf.c ****   {
 622:Src/usbd_conf.c ****     /* Configure Low connection state. */
 623:Src/usbd_conf.c **** 
 624:Src/usbd_conf.c ****   }
 625:Src/usbd_conf.c ****   else
 626:Src/usbd_conf.c ****   {
 627:Src/usbd_conf.c ****     /* Configure High connection state. */
 628:Src/usbd_conf.c **** 
 629:Src/usbd_conf.c ****   }
 630:Src/usbd_conf.c ****   /* USER CODE END 6 */
 631:Src/usbd_conf.c **** }
 632:Src/usbd_conf.c **** 
 633:Src/usbd_conf.c **** /**
 634:Src/usbd_conf.c ****   * @brief  Retuns the USB status depending on the HAL status:
 635:Src/usbd_conf.c ****   * @param  hal_status: HAL status
 636:Src/usbd_conf.c ****   * @retval USB status
 637:Src/usbd_conf.c ****   */
 638:Src/usbd_conf.c **** USBD_StatusTypeDef USBD_Get_USB_Status(HAL_StatusTypeDef hal_status)
 639:Src/usbd_conf.c **** {
  27              		.loc 1 639 1 view -0
  28              		.cfi_startproc
  29              		@ args = 0, pretend = 0, frame = 0
  30              		@ frame_needed = 0, uses_anonymous_args = 0
  31              		@ link register save eliminated.
 640:Src/usbd_conf.c ****   USBD_StatusTypeDef usb_status = USBD_OK;
  32              		.loc 1 640 3 view .LVU1
 641:Src/usbd_conf.c **** 
 642:Src/usbd_conf.c ****   switch (hal_status)
  33              		.loc 1 642 3 view .LVU2
  34 0000 0228     		cmp	r0, #2
  35 0002 05D8     		bhi	.L6
  36 0004 DFE800F0 		tbb	[pc, r0]
  37              	.L4:
  38 0008 05       		.byte	(.L2-.L4)/2
  39 0009 04       		.byte	(.L6-.L4)/2
  40 000a 02       		.byte	(.L3-.L4)/2
  41 000b 00       		.p2align 1
  42              	.L3:
 643:Src/usbd_conf.c ****   {
ARM GAS  C:\Users\JCEM\AppData\Local\Temp\cckV0N5Q.s 			page 13


 644:Src/usbd_conf.c ****     case HAL_OK :
 645:Src/usbd_conf.c ****       usb_status = USBD_OK;
 646:Src/usbd_conf.c ****     break;
 647:Src/usbd_conf.c ****     case HAL_ERROR :
 648:Src/usbd_conf.c ****       usb_status = USBD_FAIL;
 649:Src/usbd_conf.c ****     break;
 650:Src/usbd_conf.c ****     case HAL_BUSY :
 651:Src/usbd_conf.c ****       usb_status = USBD_BUSY;
  43              		.loc 1 651 7 view .LVU3
  44              	.LVL1:
 652:Src/usbd_conf.c ****     break;
  45              		.loc 1 652 5 view .LVU4
 651:Src/usbd_conf.c ****     break;
  46              		.loc 1 651 18 is_stmt 0 view .LVU5
  47 000c 0120     		movs	r0, #1
  48              	.LVL2:
  49              		.loc 1 652 5 view .LVU6
  50 000e 7047     		bx	lr
  51              	.LVL3:
  52              	.L6:
 648:Src/usbd_conf.c ****     break;
  53              		.loc 1 648 18 view .LVU7
  54 0010 0220     		movs	r0, #2
  55              	.LVL4:
  56              	.L2:
 653:Src/usbd_conf.c ****     case HAL_TIMEOUT :
 654:Src/usbd_conf.c ****       usb_status = USBD_FAIL;
 655:Src/usbd_conf.c ****     break;
 656:Src/usbd_conf.c ****     default :
 657:Src/usbd_conf.c ****       usb_status = USBD_FAIL;
 658:Src/usbd_conf.c ****     break;
 659:Src/usbd_conf.c ****   }
 660:Src/usbd_conf.c ****   return usb_status;
  57              		.loc 1 660 3 is_stmt 1 view .LVU8
 661:Src/usbd_conf.c **** }
  58              		.loc 1 661 1 is_stmt 0 view .LVU9
  59 0012 7047     		bx	lr
  60              		.cfi_endproc
  61              	.LFE99:
  63              		.section	.text.HAL_PCD_MspInit,"ax",%progbits
  64              		.align	1
  65              		.global	HAL_PCD_MspInit
  66              		.syntax unified
  67              		.thumb
  68              		.thumb_func
  69              		.fpu softvfp
  71              	HAL_PCD_MspInit:
  72              	.LVL5:
  73              	.LFB68:
  71:Src/usbd_conf.c ****   if(pcdHandle->Instance==USB)
  74              		.loc 1 71 1 is_stmt 1 view -0
  75              		.cfi_startproc
  76              		@ args = 0, pretend = 0, frame = 8
  77              		@ frame_needed = 0, uses_anonymous_args = 0
  72:Src/usbd_conf.c ****   {
  78              		.loc 1 72 3 view .LVU11
  72:Src/usbd_conf.c ****   {
ARM GAS  C:\Users\JCEM\AppData\Local\Temp\cckV0N5Q.s 			page 14


  79              		.loc 1 72 15 is_stmt 0 view .LVU12
  80 0000 0268     		ldr	r2, [r0]
  72:Src/usbd_conf.c ****   {
  81              		.loc 1 72 5 view .LVU13
  82 0002 0E4B     		ldr	r3, .L14
  83 0004 9A42     		cmp	r2, r3
  84 0006 00D0     		beq	.L13
  85 0008 7047     		bx	lr
  86              	.L13:
  71:Src/usbd_conf.c ****   if(pcdHandle->Instance==USB)
  87              		.loc 1 71 1 view .LVU14
  88 000a 00B5     		push	{lr}
  89              	.LCFI0:
  90              		.cfi_def_cfa_offset 4
  91              		.cfi_offset 14, -4
  92 000c 83B0     		sub	sp, sp, #12
  93              	.LCFI1:
  94              		.cfi_def_cfa_offset 16
  78:Src/usbd_conf.c **** 
  95              		.loc 1 78 5 is_stmt 1 view .LVU15
  96              	.LBB2:
  78:Src/usbd_conf.c **** 
  97              		.loc 1 78 5 view .LVU16
  78:Src/usbd_conf.c **** 
  98              		.loc 1 78 5 view .LVU17
  99 000e 03F5DA33 		add	r3, r3, #111616
 100 0012 DA69     		ldr	r2, [r3, #28]
 101 0014 42F40002 		orr	r2, r2, #8388608
 102 0018 DA61     		str	r2, [r3, #28]
  78:Src/usbd_conf.c **** 
 103              		.loc 1 78 5 view .LVU18
 104 001a DB69     		ldr	r3, [r3, #28]
 105 001c 03F40003 		and	r3, r3, #8388608
 106 0020 0193     		str	r3, [sp, #4]
  78:Src/usbd_conf.c **** 
 107              		.loc 1 78 5 view .LVU19
 108 0022 019B     		ldr	r3, [sp, #4]
 109              	.LBE2:
  78:Src/usbd_conf.c **** 
 110              		.loc 1 78 5 view .LVU20
  81:Src/usbd_conf.c ****     HAL_NVIC_EnableIRQ(USB_LP_CAN1_RX0_IRQn);
 111              		.loc 1 81 5 view .LVU21
 112 0024 0022     		movs	r2, #0
 113 0026 1146     		mov	r1, r2
 114 0028 1420     		movs	r0, #20
 115              	.LVL6:
  81:Src/usbd_conf.c ****     HAL_NVIC_EnableIRQ(USB_LP_CAN1_RX0_IRQn);
 116              		.loc 1 81 5 is_stmt 0 view .LVU22
 117 002a FFF7FEFF 		bl	HAL_NVIC_SetPriority
 118              	.LVL7:
  82:Src/usbd_conf.c ****   /* USER CODE BEGIN USB_MspInit 1 */
 119              		.loc 1 82 5 is_stmt 1 view .LVU23
 120 002e 1420     		movs	r0, #20
 121 0030 FFF7FEFF 		bl	HAL_NVIC_EnableIRQ
 122              	.LVL8:
  87:Src/usbd_conf.c **** 
 123              		.loc 1 87 1 is_stmt 0 view .LVU24
ARM GAS  C:\Users\JCEM\AppData\Local\Temp\cckV0N5Q.s 			page 15


 124 0034 03B0     		add	sp, sp, #12
 125              	.LCFI2:
 126              		.cfi_def_cfa_offset 4
 127              		@ sp needed
 128 0036 5DF804FB 		ldr	pc, [sp], #4
 129              	.L15:
 130 003a 00BF     		.align	2
 131              	.L14:
 132 003c 005C0040 		.word	1073765376
 133              		.cfi_endproc
 134              	.LFE68:
 136              		.section	.text.HAL_PCD_MspDeInit,"ax",%progbits
 137              		.align	1
 138              		.global	HAL_PCD_MspDeInit
 139              		.syntax unified
 140              		.thumb
 141              		.thumb_func
 142              		.fpu softvfp
 144              	HAL_PCD_MspDeInit:
 145              	.LVL9:
 146              	.LFB69:
  90:Src/usbd_conf.c ****   if(pcdHandle->Instance==USB)
 147              		.loc 1 90 1 is_stmt 1 view -0
 148              		.cfi_startproc
 149              		@ args = 0, pretend = 0, frame = 0
 150              		@ frame_needed = 0, uses_anonymous_args = 0
  90:Src/usbd_conf.c ****   if(pcdHandle->Instance==USB)
 151              		.loc 1 90 1 is_stmt 0 view .LVU26
 152 0000 08B5     		push	{r3, lr}
 153              	.LCFI3:
 154              		.cfi_def_cfa_offset 8
 155              		.cfi_offset 3, -8
 156              		.cfi_offset 14, -4
  91:Src/usbd_conf.c ****   {
 157              		.loc 1 91 3 is_stmt 1 view .LVU27
  91:Src/usbd_conf.c ****   {
 158              		.loc 1 91 15 is_stmt 0 view .LVU28
 159 0002 0268     		ldr	r2, [r0]
  91:Src/usbd_conf.c ****   {
 160              		.loc 1 91 5 view .LVU29
 161 0004 064B     		ldr	r3, .L20
 162 0006 9A42     		cmp	r2, r3
 163 0008 00D0     		beq	.L19
 164              	.LVL10:
 165              	.L16:
 106:Src/usbd_conf.c **** 
 166              		.loc 1 106 1 view .LVU30
 167 000a 08BD     		pop	{r3, pc}
 168              	.LVL11:
 169              	.L19:
  97:Src/usbd_conf.c **** 
 170              		.loc 1 97 5 is_stmt 1 view .LVU31
 171 000c 054A     		ldr	r2, .L20+4
 172 000e D369     		ldr	r3, [r2, #28]
 173 0010 23F40003 		bic	r3, r3, #8388608
 174 0014 D361     		str	r3, [r2, #28]
 100:Src/usbd_conf.c **** 
ARM GAS  C:\Users\JCEM\AppData\Local\Temp\cckV0N5Q.s 			page 16


 175              		.loc 1 100 5 view .LVU32
 176 0016 1420     		movs	r0, #20
 177              	.LVL12:
 100:Src/usbd_conf.c **** 
 178              		.loc 1 100 5 is_stmt 0 view .LVU33
 179 0018 FFF7FEFF 		bl	HAL_NVIC_DisableIRQ
 180              	.LVL13:
 106:Src/usbd_conf.c **** 
 181              		.loc 1 106 1 view .LVU34
 182 001c F5E7     		b	.L16
 183              	.L21:
 184 001e 00BF     		.align	2
 185              	.L20:
 186 0020 005C0040 		.word	1073765376
 187 0024 00100240 		.word	1073876992
 188              		.cfi_endproc
 189              	.LFE69:
 191              		.section	.text.HAL_PCD_SetupStageCallback,"ax",%progbits
 192              		.align	1
 193              		.global	HAL_PCD_SetupStageCallback
 194              		.syntax unified
 195              		.thumb
 196              		.thumb_func
 197              		.fpu softvfp
 199              	HAL_PCD_SetupStageCallback:
 200              	.LVL14:
 201              	.LFB70:
 118:Src/usbd_conf.c ****   USBD_LL_SetupStage((USBD_HandleTypeDef*)hpcd->pData, (uint8_t *)hpcd->Setup);
 202              		.loc 1 118 1 is_stmt 1 view -0
 203              		.cfi_startproc
 204              		@ args = 0, pretend = 0, frame = 0
 205              		@ frame_needed = 0, uses_anonymous_args = 0
 118:Src/usbd_conf.c ****   USBD_LL_SetupStage((USBD_HandleTypeDef*)hpcd->pData, (uint8_t *)hpcd->Setup);
 206              		.loc 1 118 1 is_stmt 0 view .LVU36
 207 0000 08B5     		push	{r3, lr}
 208              	.LCFI4:
 209              		.cfi_def_cfa_offset 8
 210              		.cfi_offset 3, -8
 211              		.cfi_offset 14, -4
 119:Src/usbd_conf.c **** }
 212              		.loc 1 119 3 is_stmt 1 view .LVU37
 213 0002 00F50C71 		add	r1, r0, #560
 214 0006 D0F86802 		ldr	r0, [r0, #616]
 215              	.LVL15:
 119:Src/usbd_conf.c **** }
 216              		.loc 1 119 3 is_stmt 0 view .LVU38
 217 000a FFF7FEFF 		bl	USBD_LL_SetupStage
 218              	.LVL16:
 120:Src/usbd_conf.c **** 
 219              		.loc 1 120 1 view .LVU39
 220 000e 08BD     		pop	{r3, pc}
 221              		.cfi_endproc
 222              	.LFE70:
 224              		.section	.text.HAL_PCD_DataOutStageCallback,"ax",%progbits
 225              		.align	1
 226              		.global	HAL_PCD_DataOutStageCallback
 227              		.syntax unified
ARM GAS  C:\Users\JCEM\AppData\Local\Temp\cckV0N5Q.s 			page 17


 228              		.thumb
 229              		.thumb_func
 230              		.fpu softvfp
 232              	HAL_PCD_DataOutStageCallback:
 233              	.LVL17:
 234              	.LFB71:
 133:Src/usbd_conf.c ****   USBD_LL_DataOutStage((USBD_HandleTypeDef*)hpcd->pData, epnum, hpcd->OUT_ep[epnum].xfer_buff);
 235              		.loc 1 133 1 is_stmt 1 view -0
 236              		.cfi_startproc
 237              		@ args = 0, pretend = 0, frame = 0
 238              		@ frame_needed = 0, uses_anonymous_args = 0
 133:Src/usbd_conf.c ****   USBD_LL_DataOutStage((USBD_HandleTypeDef*)hpcd->pData, epnum, hpcd->OUT_ep[epnum].xfer_buff);
 239              		.loc 1 133 1 is_stmt 0 view .LVU41
 240 0000 08B5     		push	{r3, lr}
 241              	.LCFI5:
 242              		.cfi_def_cfa_offset 8
 243              		.cfi_offset 3, -8
 244              		.cfi_offset 14, -4
 134:Src/usbd_conf.c **** }
 245              		.loc 1 134 3 is_stmt 1 view .LVU42
 246 0002 00EB4113 		add	r3, r0, r1, lsl #5
 247 0006 D3F83C21 		ldr	r2, [r3, #316]
 248 000a D0F86802 		ldr	r0, [r0, #616]
 249              	.LVL18:
 134:Src/usbd_conf.c **** }
 250              		.loc 1 134 3 is_stmt 0 view .LVU43
 251 000e FFF7FEFF 		bl	USBD_LL_DataOutStage
 252              	.LVL19:
 135:Src/usbd_conf.c **** 
 253              		.loc 1 135 1 view .LVU44
 254 0012 08BD     		pop	{r3, pc}
 255              		.cfi_endproc
 256              	.LFE71:
 258              		.section	.text.HAL_PCD_DataInStageCallback,"ax",%progbits
 259              		.align	1
 260              		.global	HAL_PCD_DataInStageCallback
 261              		.syntax unified
 262              		.thumb
 263              		.thumb_func
 264              		.fpu softvfp
 266              	HAL_PCD_DataInStageCallback:
 267              	.LVL20:
 268              	.LFB72:
 148:Src/usbd_conf.c ****   USBD_LL_DataInStage((USBD_HandleTypeDef*)hpcd->pData, epnum, hpcd->IN_ep[epnum].xfer_buff);
 269              		.loc 1 148 1 is_stmt 1 view -0
 270              		.cfi_startproc
 271              		@ args = 0, pretend = 0, frame = 0
 272              		@ frame_needed = 0, uses_anonymous_args = 0
 148:Src/usbd_conf.c ****   USBD_LL_DataInStage((USBD_HandleTypeDef*)hpcd->pData, epnum, hpcd->IN_ep[epnum].xfer_buff);
 273              		.loc 1 148 1 is_stmt 0 view .LVU46
 274 0000 08B5     		push	{r3, lr}
 275              	.LCFI6:
 276              		.cfi_def_cfa_offset 8
 277              		.cfi_offset 3, -8
 278              		.cfi_offset 14, -4
 149:Src/usbd_conf.c **** }
 279              		.loc 1 149 3 is_stmt 1 view .LVU47
ARM GAS  C:\Users\JCEM\AppData\Local\Temp\cckV0N5Q.s 			page 18


 280 0002 00EB4113 		add	r3, r0, r1, lsl #5
 281 0006 DA6B     		ldr	r2, [r3, #60]
 282 0008 D0F86802 		ldr	r0, [r0, #616]
 283              	.LVL21:
 149:Src/usbd_conf.c **** }
 284              		.loc 1 149 3 is_stmt 0 view .LVU48
 285 000c FFF7FEFF 		bl	USBD_LL_DataInStage
 286              	.LVL22:
 150:Src/usbd_conf.c **** 
 287              		.loc 1 150 1 view .LVU49
 288 0010 08BD     		pop	{r3, pc}
 289              		.cfi_endproc
 290              	.LFE72:
 292              		.section	.text.HAL_PCD_SOFCallback,"ax",%progbits
 293              		.align	1
 294              		.global	HAL_PCD_SOFCallback
 295              		.syntax unified
 296              		.thumb
 297              		.thumb_func
 298              		.fpu softvfp
 300              	HAL_PCD_SOFCallback:
 301              	.LVL23:
 302              	.LFB73:
 162:Src/usbd_conf.c ****   USBD_LL_SOF((USBD_HandleTypeDef*)hpcd->pData);
 303              		.loc 1 162 1 is_stmt 1 view -0
 304              		.cfi_startproc
 305              		@ args = 0, pretend = 0, frame = 0
 306              		@ frame_needed = 0, uses_anonymous_args = 0
 162:Src/usbd_conf.c ****   USBD_LL_SOF((USBD_HandleTypeDef*)hpcd->pData);
 307              		.loc 1 162 1 is_stmt 0 view .LVU51
 308 0000 08B5     		push	{r3, lr}
 309              	.LCFI7:
 310              		.cfi_def_cfa_offset 8
 311              		.cfi_offset 3, -8
 312              		.cfi_offset 14, -4
 163:Src/usbd_conf.c **** }
 313              		.loc 1 163 3 is_stmt 1 view .LVU52
 314 0002 D0F86802 		ldr	r0, [r0, #616]
 315              	.LVL24:
 163:Src/usbd_conf.c **** }
 316              		.loc 1 163 3 is_stmt 0 view .LVU53
 317 0006 FFF7FEFF 		bl	USBD_LL_SOF
 318              	.LVL25:
 164:Src/usbd_conf.c **** 
 319              		.loc 1 164 1 view .LVU54
 320 000a 08BD     		pop	{r3, pc}
 321              		.cfi_endproc
 322              	.LFE73:
 324              		.section	.text.HAL_PCD_ResetCallback,"ax",%progbits
 325              		.align	1
 326              		.global	HAL_PCD_ResetCallback
 327              		.syntax unified
 328              		.thumb
 329              		.thumb_func
 330              		.fpu softvfp
 332              	HAL_PCD_ResetCallback:
 333              	.LVL26:
ARM GAS  C:\Users\JCEM\AppData\Local\Temp\cckV0N5Q.s 			page 19


 334              	.LFB74:
 176:Src/usbd_conf.c ****   USBD_SpeedTypeDef speed = USBD_SPEED_FULL;
 335              		.loc 1 176 1 is_stmt 1 view -0
 336              		.cfi_startproc
 337              		@ args = 0, pretend = 0, frame = 0
 338              		@ frame_needed = 0, uses_anonymous_args = 0
 176:Src/usbd_conf.c ****   USBD_SpeedTypeDef speed = USBD_SPEED_FULL;
 339              		.loc 1 176 1 is_stmt 0 view .LVU56
 340 0000 10B5     		push	{r4, lr}
 341              	.LCFI8:
 342              		.cfi_def_cfa_offset 8
 343              		.cfi_offset 4, -8
 344              		.cfi_offset 14, -4
 345 0002 0446     		mov	r4, r0
 177:Src/usbd_conf.c **** 
 346              		.loc 1 177 3 is_stmt 1 view .LVU57
 347              	.LVL27:
 179:Src/usbd_conf.c ****   {
 348              		.loc 1 179 3 view .LVU58
 179:Src/usbd_conf.c ****   {
 349              		.loc 1 179 18 is_stmt 0 view .LVU59
 350 0004 8368     		ldr	r3, [r0, #8]
 179:Src/usbd_conf.c ****   {
 351              		.loc 1 179 6 view .LVU60
 352 0006 022B     		cmp	r3, #2
 353 0008 09D1     		bne	.L33
 354              	.LVL28:
 355              	.L31:
 184:Src/usbd_conf.c **** 
 356              		.loc 1 184 3 is_stmt 1 view .LVU61
 357 000a 0121     		movs	r1, #1
 358 000c D4F86802 		ldr	r0, [r4, #616]
 359 0010 FFF7FEFF 		bl	USBD_LL_SetSpeed
 360              	.LVL29:
 187:Src/usbd_conf.c **** }
 361              		.loc 1 187 3 view .LVU62
 362 0014 D4F86802 		ldr	r0, [r4, #616]
 363 0018 FFF7FEFF 		bl	USBD_LL_Reset
 364              	.LVL30:
 188:Src/usbd_conf.c **** 
 365              		.loc 1 188 1 is_stmt 0 view .LVU63
 366 001c 10BD     		pop	{r4, pc}
 367              	.LVL31:
 368              	.L33:
 181:Src/usbd_conf.c ****   }
 369              		.loc 1 181 5 is_stmt 1 view .LVU64
 370 001e FFF7FEFF 		bl	Error_Handler
 371              	.LVL32:
 181:Src/usbd_conf.c ****   }
 372              		.loc 1 181 5 is_stmt 0 view .LVU65
 373 0022 F2E7     		b	.L31
 374              		.cfi_endproc
 375              	.LFE74:
 377              		.section	.text.HAL_PCD_SuspendCallback,"ax",%progbits
 378              		.align	1
 379              		.global	HAL_PCD_SuspendCallback
 380              		.syntax unified
ARM GAS  C:\Users\JCEM\AppData\Local\Temp\cckV0N5Q.s 			page 20


 381              		.thumb
 382              		.thumb_func
 383              		.fpu softvfp
 385              	HAL_PCD_SuspendCallback:
 386              	.LVL33:
 387              	.LFB75:
 201:Src/usbd_conf.c ****   /* Inform USB library that core enters in suspend Mode. */
 388              		.loc 1 201 1 is_stmt 1 view -0
 389              		.cfi_startproc
 390              		@ args = 0, pretend = 0, frame = 0
 391              		@ frame_needed = 0, uses_anonymous_args = 0
 201:Src/usbd_conf.c ****   /* Inform USB library that core enters in suspend Mode. */
 392              		.loc 1 201 1 is_stmt 0 view .LVU67
 393 0000 10B5     		push	{r4, lr}
 394              	.LCFI9:
 395              		.cfi_def_cfa_offset 8
 396              		.cfi_offset 4, -8
 397              		.cfi_offset 14, -4
 398 0002 0446     		mov	r4, r0
 203:Src/usbd_conf.c ****   /* Enter in STOP mode. */
 399              		.loc 1 203 3 is_stmt 1 view .LVU68
 400 0004 D0F86802 		ldr	r0, [r0, #616]
 401              	.LVL34:
 203:Src/usbd_conf.c ****   /* Enter in STOP mode. */
 402              		.loc 1 203 3 is_stmt 0 view .LVU69
 403 0008 FFF7FEFF 		bl	USBD_LL_Suspend
 404              	.LVL35:
 206:Src/usbd_conf.c ****   {
 405              		.loc 1 206 3 is_stmt 1 view .LVU70
 206:Src/usbd_conf.c ****   {
 406              		.loc 1 206 17 is_stmt 0 view .LVU71
 407 000c A369     		ldr	r3, [r4, #24]
 206:Src/usbd_conf.c ****   {
 408              		.loc 1 206 6 view .LVU72
 409 000e 23B1     		cbz	r3, .L34
 209:Src/usbd_conf.c ****   }
 410              		.loc 1 209 5 is_stmt 1 view .LVU73
 209:Src/usbd_conf.c ****   }
 411              		.loc 1 209 14 is_stmt 0 view .LVU74
 412 0010 024A     		ldr	r2, .L37
 413 0012 1369     		ldr	r3, [r2, #16]
 414 0014 43F00603 		orr	r3, r3, #6
 415 0018 1361     		str	r3, [r2, #16]
 416              	.L34:
 212:Src/usbd_conf.c **** 
 417              		.loc 1 212 1 view .LVU75
 418 001a 10BD     		pop	{r4, pc}
 419              	.LVL36:
 420              	.L38:
 212:Src/usbd_conf.c **** 
 421              		.loc 1 212 1 view .LVU76
 422              		.align	2
 423              	.L37:
 424 001c 00ED00E0 		.word	-536810240
 425              		.cfi_endproc
 426              	.LFE75:
 428              		.section	.text.HAL_PCD_ResumeCallback,"ax",%progbits
ARM GAS  C:\Users\JCEM\AppData\Local\Temp\cckV0N5Q.s 			page 21


 429              		.align	1
 430              		.global	HAL_PCD_ResumeCallback
 431              		.syntax unified
 432              		.thumb
 433              		.thumb_func
 434              		.fpu softvfp
 436              	HAL_PCD_ResumeCallback:
 437              	.LVL37:
 438              	.LFB76:
 225:Src/usbd_conf.c ****   /* USER CODE BEGIN 3 */
 439              		.loc 1 225 1 is_stmt 1 view -0
 440              		.cfi_startproc
 441              		@ args = 0, pretend = 0, frame = 0
 442              		@ frame_needed = 0, uses_anonymous_args = 0
 225:Src/usbd_conf.c ****   /* USER CODE BEGIN 3 */
 443              		.loc 1 225 1 is_stmt 0 view .LVU78
 444 0000 08B5     		push	{r3, lr}
 445              	.LCFI10:
 446              		.cfi_def_cfa_offset 8
 447              		.cfi_offset 3, -8
 448              		.cfi_offset 14, -4
 229:Src/usbd_conf.c **** }
 449              		.loc 1 229 3 is_stmt 1 view .LVU79
 450 0002 D0F86802 		ldr	r0, [r0, #616]
 451              	.LVL38:
 229:Src/usbd_conf.c **** }
 452              		.loc 1 229 3 is_stmt 0 view .LVU80
 453 0006 FFF7FEFF 		bl	USBD_LL_Resume
 454              	.LVL39:
 230:Src/usbd_conf.c **** 
 455              		.loc 1 230 1 view .LVU81
 456 000a 08BD     		pop	{r3, pc}
 457              		.cfi_endproc
 458              	.LFE76:
 460              		.section	.text.HAL_PCD_ISOOUTIncompleteCallback,"ax",%progbits
 461              		.align	1
 462              		.global	HAL_PCD_ISOOUTIncompleteCallback
 463              		.syntax unified
 464              		.thumb
 465              		.thumb_func
 466              		.fpu softvfp
 468              	HAL_PCD_ISOOUTIncompleteCallback:
 469              	.LVL40:
 470              	.LFB77:
 243:Src/usbd_conf.c ****   USBD_LL_IsoOUTIncomplete((USBD_HandleTypeDef*)hpcd->pData, epnum);
 471              		.loc 1 243 1 is_stmt 1 view -0
 472              		.cfi_startproc
 473              		@ args = 0, pretend = 0, frame = 0
 474              		@ frame_needed = 0, uses_anonymous_args = 0
 243:Src/usbd_conf.c ****   USBD_LL_IsoOUTIncomplete((USBD_HandleTypeDef*)hpcd->pData, epnum);
 475              		.loc 1 243 1 is_stmt 0 view .LVU83
 476 0000 08B5     		push	{r3, lr}
 477              	.LCFI11:
 478              		.cfi_def_cfa_offset 8
 479              		.cfi_offset 3, -8
 480              		.cfi_offset 14, -4
 244:Src/usbd_conf.c **** }
ARM GAS  C:\Users\JCEM\AppData\Local\Temp\cckV0N5Q.s 			page 22


 481              		.loc 1 244 3 is_stmt 1 view .LVU84
 482 0002 D0F86802 		ldr	r0, [r0, #616]
 483              	.LVL41:
 244:Src/usbd_conf.c **** }
 484              		.loc 1 244 3 is_stmt 0 view .LVU85
 485 0006 FFF7FEFF 		bl	USBD_LL_IsoOUTIncomplete
 486              	.LVL42:
 245:Src/usbd_conf.c **** 
 487              		.loc 1 245 1 view .LVU86
 488 000a 08BD     		pop	{r3, pc}
 489              		.cfi_endproc
 490              	.LFE77:
 492              		.section	.text.HAL_PCD_ISOINIncompleteCallback,"ax",%progbits
 493              		.align	1
 494              		.global	HAL_PCD_ISOINIncompleteCallback
 495              		.syntax unified
 496              		.thumb
 497              		.thumb_func
 498              		.fpu softvfp
 500              	HAL_PCD_ISOINIncompleteCallback:
 501              	.LVL43:
 502              	.LFB78:
 258:Src/usbd_conf.c ****   USBD_LL_IsoINIncomplete((USBD_HandleTypeDef*)hpcd->pData, epnum);
 503              		.loc 1 258 1 is_stmt 1 view -0
 504              		.cfi_startproc
 505              		@ args = 0, pretend = 0, frame = 0
 506              		@ frame_needed = 0, uses_anonymous_args = 0
 258:Src/usbd_conf.c ****   USBD_LL_IsoINIncomplete((USBD_HandleTypeDef*)hpcd->pData, epnum);
 507              		.loc 1 258 1 is_stmt 0 view .LVU88
 508 0000 08B5     		push	{r3, lr}
 509              	.LCFI12:
 510              		.cfi_def_cfa_offset 8
 511              		.cfi_offset 3, -8
 512              		.cfi_offset 14, -4
 259:Src/usbd_conf.c **** }
 513              		.loc 1 259 3 is_stmt 1 view .LVU89
 514 0002 D0F86802 		ldr	r0, [r0, #616]
 515              	.LVL44:
 259:Src/usbd_conf.c **** }
 516              		.loc 1 259 3 is_stmt 0 view .LVU90
 517 0006 FFF7FEFF 		bl	USBD_LL_IsoINIncomplete
 518              	.LVL45:
 260:Src/usbd_conf.c **** 
 519              		.loc 1 260 1 view .LVU91
 520 000a 08BD     		pop	{r3, pc}
 521              		.cfi_endproc
 522              	.LFE78:
 524              		.section	.text.HAL_PCD_ConnectCallback,"ax",%progbits
 525              		.align	1
 526              		.global	HAL_PCD_ConnectCallback
 527              		.syntax unified
 528              		.thumb
 529              		.thumb_func
 530              		.fpu softvfp
 532              	HAL_PCD_ConnectCallback:
 533              	.LVL46:
 534              	.LFB79:
ARM GAS  C:\Users\JCEM\AppData\Local\Temp\cckV0N5Q.s 			page 23


 272:Src/usbd_conf.c ****   USBD_LL_DevConnected((USBD_HandleTypeDef*)hpcd->pData);
 535              		.loc 1 272 1 is_stmt 1 view -0
 536              		.cfi_startproc
 537              		@ args = 0, pretend = 0, frame = 0
 538              		@ frame_needed = 0, uses_anonymous_args = 0
 272:Src/usbd_conf.c ****   USBD_LL_DevConnected((USBD_HandleTypeDef*)hpcd->pData);
 539              		.loc 1 272 1 is_stmt 0 view .LVU93
 540 0000 08B5     		push	{r3, lr}
 541              	.LCFI13:
 542              		.cfi_def_cfa_offset 8
 543              		.cfi_offset 3, -8
 544              		.cfi_offset 14, -4
 273:Src/usbd_conf.c **** }
 545              		.loc 1 273 3 is_stmt 1 view .LVU94
 546 0002 D0F86802 		ldr	r0, [r0, #616]
 547              	.LVL47:
 273:Src/usbd_conf.c **** }
 548              		.loc 1 273 3 is_stmt 0 view .LVU95
 549 0006 FFF7FEFF 		bl	USBD_LL_DevConnected
 550              	.LVL48:
 274:Src/usbd_conf.c **** 
 551              		.loc 1 274 1 view .LVU96
 552 000a 08BD     		pop	{r3, pc}
 553              		.cfi_endproc
 554              	.LFE79:
 556              		.section	.text.HAL_PCD_DisconnectCallback,"ax",%progbits
 557              		.align	1
 558              		.global	HAL_PCD_DisconnectCallback
 559              		.syntax unified
 560              		.thumb
 561              		.thumb_func
 562              		.fpu softvfp
 564              	HAL_PCD_DisconnectCallback:
 565              	.LVL49:
 566              	.LFB80:
 286:Src/usbd_conf.c ****   USBD_LL_DevDisconnected((USBD_HandleTypeDef*)hpcd->pData);
 567              		.loc 1 286 1 is_stmt 1 view -0
 568              		.cfi_startproc
 569              		@ args = 0, pretend = 0, frame = 0
 570              		@ frame_needed = 0, uses_anonymous_args = 0
 286:Src/usbd_conf.c ****   USBD_LL_DevDisconnected((USBD_HandleTypeDef*)hpcd->pData);
 571              		.loc 1 286 1 is_stmt 0 view .LVU98
 572 0000 08B5     		push	{r3, lr}
 573              	.LCFI14:
 574              		.cfi_def_cfa_offset 8
 575              		.cfi_offset 3, -8
 576              		.cfi_offset 14, -4
 287:Src/usbd_conf.c **** }
 577              		.loc 1 287 3 is_stmt 1 view .LVU99
 578 0002 D0F86802 		ldr	r0, [r0, #616]
 579              	.LVL50:
 287:Src/usbd_conf.c **** }
 580              		.loc 1 287 3 is_stmt 0 view .LVU100
 581 0006 FFF7FEFF 		bl	USBD_LL_DevDisconnected
 582              	.LVL51:
 288:Src/usbd_conf.c **** 
 583              		.loc 1 288 1 view .LVU101
ARM GAS  C:\Users\JCEM\AppData\Local\Temp\cckV0N5Q.s 			page 24


 584 000a 08BD     		pop	{r3, pc}
 585              		.cfi_endproc
 586              	.LFE80:
 588              		.section	.text.USBD_LL_Init,"ax",%progbits
 589              		.align	1
 590              		.global	USBD_LL_Init
 591              		.syntax unified
 592              		.thumb
 593              		.thumb_func
 594              		.fpu softvfp
 596              	USBD_LL_Init:
 597              	.LVL52:
 598              	.LFB81:
 300:Src/usbd_conf.c ****   /* Init USB Ip. */
 599              		.loc 1 300 1 is_stmt 1 view -0
 600              		.cfi_startproc
 601              		@ args = 0, pretend = 0, frame = 0
 602              		@ frame_needed = 0, uses_anonymous_args = 0
 300:Src/usbd_conf.c ****   /* Init USB Ip. */
 603              		.loc 1 300 1 is_stmt 0 view .LVU103
 604 0000 10B5     		push	{r4, lr}
 605              	.LCFI15:
 606              		.cfi_def_cfa_offset 8
 607              		.cfi_offset 4, -8
 608              		.cfi_offset 14, -4
 609 0002 0446     		mov	r4, r0
 303:Src/usbd_conf.c ****   pdev->pData = &hpcd_USB_FS;
 610              		.loc 1 303 3 is_stmt 1 view .LVU104
 303:Src/usbd_conf.c ****   pdev->pData = &hpcd_USB_FS;
 611              		.loc 1 303 21 is_stmt 0 view .LVU105
 612 0004 1D48     		ldr	r0, .L53
 613              	.LVL53:
 303:Src/usbd_conf.c ****   pdev->pData = &hpcd_USB_FS;
 614              		.loc 1 303 21 view .LVU106
 615 0006 C0F86842 		str	r4, [r0, #616]
 304:Src/usbd_conf.c **** 
 616              		.loc 1 304 3 is_stmt 1 view .LVU107
 304:Src/usbd_conf.c **** 
 617              		.loc 1 304 15 is_stmt 0 view .LVU108
 618 000a C4F8C002 		str	r0, [r4, #704]
 306:Src/usbd_conf.c ****   hpcd_USB_FS.Init.dev_endpoints = 8;
 619              		.loc 1 306 3 is_stmt 1 view .LVU109
 306:Src/usbd_conf.c ****   hpcd_USB_FS.Init.dev_endpoints = 8;
 620              		.loc 1 306 24 is_stmt 0 view .LVU110
 621 000e 1C4B     		ldr	r3, .L53+4
 622 0010 0360     		str	r3, [r0]
 307:Src/usbd_conf.c ****   hpcd_USB_FS.Init.speed = PCD_SPEED_FULL;
 623              		.loc 1 307 3 is_stmt 1 view .LVU111
 307:Src/usbd_conf.c ****   hpcd_USB_FS.Init.speed = PCD_SPEED_FULL;
 624              		.loc 1 307 34 is_stmt 0 view .LVU112
 625 0012 0823     		movs	r3, #8
 626 0014 4360     		str	r3, [r0, #4]
 308:Src/usbd_conf.c ****   hpcd_USB_FS.Init.low_power_enable = DISABLE;
 627              		.loc 1 308 3 is_stmt 1 view .LVU113
 308:Src/usbd_conf.c ****   hpcd_USB_FS.Init.low_power_enable = DISABLE;
 628              		.loc 1 308 26 is_stmt 0 view .LVU114
 629 0016 0223     		movs	r3, #2
ARM GAS  C:\Users\JCEM\AppData\Local\Temp\cckV0N5Q.s 			page 25


 630 0018 8360     		str	r3, [r0, #8]
 309:Src/usbd_conf.c ****   hpcd_USB_FS.Init.lpm_enable = DISABLE;
 631              		.loc 1 309 3 is_stmt 1 view .LVU115
 309:Src/usbd_conf.c ****   hpcd_USB_FS.Init.lpm_enable = DISABLE;
 632              		.loc 1 309 37 is_stmt 0 view .LVU116
 633 001a 0023     		movs	r3, #0
 634 001c 8361     		str	r3, [r0, #24]
 310:Src/usbd_conf.c ****   hpcd_USB_FS.Init.battery_charging_enable = DISABLE;
 635              		.loc 1 310 3 is_stmt 1 view .LVU117
 310:Src/usbd_conf.c ****   hpcd_USB_FS.Init.battery_charging_enable = DISABLE;
 636              		.loc 1 310 31 is_stmt 0 view .LVU118
 637 001e C361     		str	r3, [r0, #28]
 311:Src/usbd_conf.c ****   if (HAL_PCD_Init(&hpcd_USB_FS) != HAL_OK)
 638              		.loc 1 311 3 is_stmt 1 view .LVU119
 311:Src/usbd_conf.c ****   if (HAL_PCD_Init(&hpcd_USB_FS) != HAL_OK)
 639              		.loc 1 311 44 is_stmt 0 view .LVU120
 640 0020 0362     		str	r3, [r0, #32]
 312:Src/usbd_conf.c ****   {
 641              		.loc 1 312 3 is_stmt 1 view .LVU121
 312:Src/usbd_conf.c ****   {
 642              		.loc 1 312 7 is_stmt 0 view .LVU122
 643 0022 FFF7FEFF 		bl	HAL_PCD_Init
 644              	.LVL54:
 312:Src/usbd_conf.c ****   {
 645              		.loc 1 312 6 view .LVU123
 646 0026 30BB     		cbnz	r0, .L52
 647              	.L50:
 333:Src/usbd_conf.c ****   HAL_PCDEx_PMAConfig((PCD_HandleTypeDef*)pdev->pData , 0x80 , PCD_SNG_BUF, 0x58);
 648              		.loc 1 333 3 is_stmt 1 view .LVU124
 649 0028 1823     		movs	r3, #24
 650 002a 0022     		movs	r2, #0
 651 002c 1146     		mov	r1, r2
 652 002e D4F8C002 		ldr	r0, [r4, #704]
 653 0032 FFF7FEFF 		bl	HAL_PCDEx_PMAConfig
 654              	.LVL55:
 334:Src/usbd_conf.c ****   /* USER CODE END EndPoint_Configuration */
 655              		.loc 1 334 3 view .LVU125
 656 0036 5823     		movs	r3, #88
 657 0038 0022     		movs	r2, #0
 658 003a 8021     		movs	r1, #128
 659 003c D4F8C002 		ldr	r0, [r4, #704]
 660 0040 FFF7FEFF 		bl	HAL_PCDEx_PMAConfig
 661              	.LVL56:
 337:Src/usbd_conf.c ****   HAL_PCDEx_PMAConfig((PCD_HandleTypeDef*)pdev->pData , 0x01 , PCD_SNG_BUF, 0x110);
 662              		.loc 1 337 3 view .LVU126
 663 0044 C023     		movs	r3, #192
 664 0046 0022     		movs	r2, #0
 665 0048 8121     		movs	r1, #129
 666 004a D4F8C002 		ldr	r0, [r4, #704]
 667 004e FFF7FEFF 		bl	HAL_PCDEx_PMAConfig
 668              	.LVL57:
 338:Src/usbd_conf.c ****   HAL_PCDEx_PMAConfig((PCD_HandleTypeDef*)pdev->pData , 0x82 , PCD_SNG_BUF, 0x100);
 669              		.loc 1 338 3 view .LVU127
 670 0052 4FF48873 		mov	r3, #272
 671 0056 0022     		movs	r2, #0
 672 0058 0121     		movs	r1, #1
 673 005a D4F8C002 		ldr	r0, [r4, #704]
ARM GAS  C:\Users\JCEM\AppData\Local\Temp\cckV0N5Q.s 			page 26


 674 005e FFF7FEFF 		bl	HAL_PCDEx_PMAConfig
 675              	.LVL58:
 339:Src/usbd_conf.c ****   /* USER CODE END EndPoint_Configuration_CDC */
 676              		.loc 1 339 3 view .LVU128
 677 0062 4FF48073 		mov	r3, #256
 678 0066 0022     		movs	r2, #0
 679 0068 8221     		movs	r1, #130
 680 006a D4F8C002 		ldr	r0, [r4, #704]
 681 006e FFF7FEFF 		bl	HAL_PCDEx_PMAConfig
 682              	.LVL59:
 341:Src/usbd_conf.c **** }
 683              		.loc 1 341 3 view .LVU129
 342:Src/usbd_conf.c **** 
 684              		.loc 1 342 1 is_stmt 0 view .LVU130
 685 0072 0020     		movs	r0, #0
 686 0074 10BD     		pop	{r4, pc}
 687              	.LVL60:
 688              	.L52:
 314:Src/usbd_conf.c ****   }
 689              		.loc 1 314 5 is_stmt 1 view .LVU131
 690 0076 FFF7FEFF 		bl	Error_Handler
 691              	.LVL61:
 692 007a D5E7     		b	.L50
 693              	.L54:
 694              		.align	2
 695              	.L53:
 696 007c 00000000 		.word	hpcd_USB_FS
 697 0080 005C0040 		.word	1073765376
 698              		.cfi_endproc
 699              	.LFE81:
 701              		.section	.text.USBD_LL_DeInit,"ax",%progbits
 702              		.align	1
 703              		.global	USBD_LL_DeInit
 704              		.syntax unified
 705              		.thumb
 706              		.thumb_func
 707              		.fpu softvfp
 709              	USBD_LL_DeInit:
 710              	.LVL62:
 711              	.LFB82:
 350:Src/usbd_conf.c ****   HAL_StatusTypeDef hal_status = HAL_OK;
 712              		.loc 1 350 1 view -0
 713              		.cfi_startproc
 714              		@ args = 0, pretend = 0, frame = 0
 715              		@ frame_needed = 0, uses_anonymous_args = 0
 350:Src/usbd_conf.c ****   HAL_StatusTypeDef hal_status = HAL_OK;
 716              		.loc 1 350 1 is_stmt 0 view .LVU133
 717 0000 08B5     		push	{r3, lr}
 718              	.LCFI16:
 719              		.cfi_def_cfa_offset 8
 720              		.cfi_offset 3, -8
 721              		.cfi_offset 14, -4
 351:Src/usbd_conf.c ****   USBD_StatusTypeDef usb_status = USBD_OK;
 722              		.loc 1 351 3 is_stmt 1 view .LVU134
 723              	.LVL63:
 352:Src/usbd_conf.c **** 
 724              		.loc 1 352 3 view .LVU135
ARM GAS  C:\Users\JCEM\AppData\Local\Temp\cckV0N5Q.s 			page 27


 354:Src/usbd_conf.c **** 
 725              		.loc 1 354 3 view .LVU136
 354:Src/usbd_conf.c **** 
 726              		.loc 1 354 16 is_stmt 0 view .LVU137
 727 0002 D0F8C002 		ldr	r0, [r0, #704]
 728              	.LVL64:
 354:Src/usbd_conf.c **** 
 729              		.loc 1 354 16 view .LVU138
 730 0006 FFF7FEFF 		bl	HAL_PCD_DeInit
 731              	.LVL65:
 356:Src/usbd_conf.c ****  
 732              		.loc 1 356 3 is_stmt 1 view .LVU139
 356:Src/usbd_conf.c ****  
 733              		.loc 1 356 17 is_stmt 0 view .LVU140
 734 000a FFF7FEFF 		bl	USBD_Get_USB_Status
 735              	.LVL66:
 358:Src/usbd_conf.c **** }
 736              		.loc 1 358 3 is_stmt 1 view .LVU141
 359:Src/usbd_conf.c **** 
 737              		.loc 1 359 1 is_stmt 0 view .LVU142
 738 000e 08BD     		pop	{r3, pc}
 739              		.cfi_endproc
 740              	.LFE82:
 742              		.section	.text.USBD_LL_Start,"ax",%progbits
 743              		.align	1
 744              		.global	USBD_LL_Start
 745              		.syntax unified
 746              		.thumb
 747              		.thumb_func
 748              		.fpu softvfp
 750              	USBD_LL_Start:
 751              	.LVL67:
 752              	.LFB83:
 367:Src/usbd_conf.c ****   HAL_StatusTypeDef hal_status = HAL_OK;
 753              		.loc 1 367 1 is_stmt 1 view -0
 754              		.cfi_startproc
 755              		@ args = 0, pretend = 0, frame = 0
 756              		@ frame_needed = 0, uses_anonymous_args = 0
 367:Src/usbd_conf.c ****   HAL_StatusTypeDef hal_status = HAL_OK;
 757              		.loc 1 367 1 is_stmt 0 view .LVU144
 758 0000 08B5     		push	{r3, lr}
 759              	.LCFI17:
 760              		.cfi_def_cfa_offset 8
 761              		.cfi_offset 3, -8
 762              		.cfi_offset 14, -4
 368:Src/usbd_conf.c ****   USBD_StatusTypeDef usb_status = USBD_OK;
 763              		.loc 1 368 3 is_stmt 1 view .LVU145
 764              	.LVL68:
 369:Src/usbd_conf.c ****  
 765              		.loc 1 369 3 view .LVU146
 371:Src/usbd_conf.c ****      
 766              		.loc 1 371 3 view .LVU147
 371:Src/usbd_conf.c ****      
 767              		.loc 1 371 16 is_stmt 0 view .LVU148
 768 0002 D0F8C002 		ldr	r0, [r0, #704]
 769              	.LVL69:
 371:Src/usbd_conf.c ****      
ARM GAS  C:\Users\JCEM\AppData\Local\Temp\cckV0N5Q.s 			page 28


 770              		.loc 1 371 16 view .LVU149
 771 0006 FFF7FEFF 		bl	HAL_PCD_Start
 772              	.LVL70:
 373:Src/usbd_conf.c ****   
 773              		.loc 1 373 3 is_stmt 1 view .LVU150
 373:Src/usbd_conf.c ****   
 774              		.loc 1 373 17 is_stmt 0 view .LVU151
 775 000a FFF7FEFF 		bl	USBD_Get_USB_Status
 776              	.LVL71:
 375:Src/usbd_conf.c **** }
 777              		.loc 1 375 3 is_stmt 1 view .LVU152
 376:Src/usbd_conf.c **** 
 778              		.loc 1 376 1 is_stmt 0 view .LVU153
 779 000e 08BD     		pop	{r3, pc}
 780              		.cfi_endproc
 781              	.LFE83:
 783              		.section	.text.USBD_LL_Stop,"ax",%progbits
 784              		.align	1
 785              		.global	USBD_LL_Stop
 786              		.syntax unified
 787              		.thumb
 788              		.thumb_func
 789              		.fpu softvfp
 791              	USBD_LL_Stop:
 792              	.LVL72:
 793              	.LFB84:
 384:Src/usbd_conf.c ****   HAL_StatusTypeDef hal_status = HAL_OK;
 794              		.loc 1 384 1 is_stmt 1 view -0
 795              		.cfi_startproc
 796              		@ args = 0, pretend = 0, frame = 0
 797              		@ frame_needed = 0, uses_anonymous_args = 0
 384:Src/usbd_conf.c ****   HAL_StatusTypeDef hal_status = HAL_OK;
 798              		.loc 1 384 1 is_stmt 0 view .LVU155
 799 0000 08B5     		push	{r3, lr}
 800              	.LCFI18:
 801              		.cfi_def_cfa_offset 8
 802              		.cfi_offset 3, -8
 803              		.cfi_offset 14, -4
 385:Src/usbd_conf.c ****   USBD_StatusTypeDef usb_status = USBD_OK;
 804              		.loc 1 385 3 is_stmt 1 view .LVU156
 805              	.LVL73:
 386:Src/usbd_conf.c **** 
 806              		.loc 1 386 3 view .LVU157
 388:Src/usbd_conf.c **** 
 807              		.loc 1 388 3 view .LVU158
 388:Src/usbd_conf.c **** 
 808              		.loc 1 388 16 is_stmt 0 view .LVU159
 809 0002 D0F8C002 		ldr	r0, [r0, #704]
 810              	.LVL74:
 388:Src/usbd_conf.c **** 
 811              		.loc 1 388 16 view .LVU160
 812 0006 FFF7FEFF 		bl	HAL_PCD_Stop
 813              	.LVL75:
 390:Src/usbd_conf.c ****   
 814              		.loc 1 390 3 is_stmt 1 view .LVU161
 390:Src/usbd_conf.c ****   
 815              		.loc 1 390 17 is_stmt 0 view .LVU162
ARM GAS  C:\Users\JCEM\AppData\Local\Temp\cckV0N5Q.s 			page 29


 816 000a FFF7FEFF 		bl	USBD_Get_USB_Status
 817              	.LVL76:
 392:Src/usbd_conf.c **** }
 818              		.loc 1 392 3 is_stmt 1 view .LVU163
 393:Src/usbd_conf.c **** 
 819              		.loc 1 393 1 is_stmt 0 view .LVU164
 820 000e 08BD     		pop	{r3, pc}
 821              		.cfi_endproc
 822              	.LFE84:
 824              		.section	.text.USBD_LL_OpenEP,"ax",%progbits
 825              		.align	1
 826              		.global	USBD_LL_OpenEP
 827              		.syntax unified
 828              		.thumb
 829              		.thumb_func
 830              		.fpu softvfp
 832              	USBD_LL_OpenEP:
 833              	.LVL77:
 834              	.LFB85:
 404:Src/usbd_conf.c ****   HAL_StatusTypeDef hal_status = HAL_OK;
 835              		.loc 1 404 1 is_stmt 1 view -0
 836              		.cfi_startproc
 837              		@ args = 0, pretend = 0, frame = 0
 838              		@ frame_needed = 0, uses_anonymous_args = 0
 404:Src/usbd_conf.c ****   HAL_StatusTypeDef hal_status = HAL_OK;
 839              		.loc 1 404 1 is_stmt 0 view .LVU166
 840 0000 10B5     		push	{r4, lr}
 841              	.LCFI19:
 842              		.cfi_def_cfa_offset 8
 843              		.cfi_offset 4, -8
 844              		.cfi_offset 14, -4
 845 0002 1446     		mov	r4, r2
 846 0004 1A46     		mov	r2, r3
 847              	.LVL78:
 405:Src/usbd_conf.c ****   USBD_StatusTypeDef usb_status = USBD_OK;
 848              		.loc 1 405 3 is_stmt 1 view .LVU167
 406:Src/usbd_conf.c **** 
 849              		.loc 1 406 3 view .LVU168
 408:Src/usbd_conf.c **** 
 850              		.loc 1 408 3 view .LVU169
 408:Src/usbd_conf.c **** 
 851              		.loc 1 408 16 is_stmt 0 view .LVU170
 852 0006 2346     		mov	r3, r4
 853              	.LVL79:
 408:Src/usbd_conf.c **** 
 854              		.loc 1 408 16 view .LVU171
 855 0008 D0F8C002 		ldr	r0, [r0, #704]
 856              	.LVL80:
 408:Src/usbd_conf.c **** 
 857              		.loc 1 408 16 view .LVU172
 858 000c FFF7FEFF 		bl	HAL_PCD_EP_Open
 859              	.LVL81:
 410:Src/usbd_conf.c ****  
 860              		.loc 1 410 3 is_stmt 1 view .LVU173
 410:Src/usbd_conf.c ****  
 861              		.loc 1 410 17 is_stmt 0 view .LVU174
 862 0010 FFF7FEFF 		bl	USBD_Get_USB_Status
ARM GAS  C:\Users\JCEM\AppData\Local\Temp\cckV0N5Q.s 			page 30


 863              	.LVL82:
 412:Src/usbd_conf.c **** }
 864              		.loc 1 412 3 is_stmt 1 view .LVU175
 413:Src/usbd_conf.c **** 
 865              		.loc 1 413 1 is_stmt 0 view .LVU176
 866 0014 10BD     		pop	{r4, pc}
 867              		.cfi_endproc
 868              	.LFE85:
 870              		.section	.text.USBD_LL_CloseEP,"ax",%progbits
 871              		.align	1
 872              		.global	USBD_LL_CloseEP
 873              		.syntax unified
 874              		.thumb
 875              		.thumb_func
 876              		.fpu softvfp
 878              	USBD_LL_CloseEP:
 879              	.LVL83:
 880              	.LFB86:
 422:Src/usbd_conf.c ****   HAL_StatusTypeDef hal_status = HAL_OK;
 881              		.loc 1 422 1 is_stmt 1 view -0
 882              		.cfi_startproc
 883              		@ args = 0, pretend = 0, frame = 0
 884              		@ frame_needed = 0, uses_anonymous_args = 0
 422:Src/usbd_conf.c ****   HAL_StatusTypeDef hal_status = HAL_OK;
 885              		.loc 1 422 1 is_stmt 0 view .LVU178
 886 0000 08B5     		push	{r3, lr}
 887              	.LCFI20:
 888              		.cfi_def_cfa_offset 8
 889              		.cfi_offset 3, -8
 890              		.cfi_offset 14, -4
 423:Src/usbd_conf.c ****   USBD_StatusTypeDef usb_status = USBD_OK;
 891              		.loc 1 423 3 is_stmt 1 view .LVU179
 892              	.LVL84:
 424:Src/usbd_conf.c ****   
 893              		.loc 1 424 3 view .LVU180
 426:Src/usbd_conf.c ****       
 894              		.loc 1 426 3 view .LVU181
 426:Src/usbd_conf.c ****       
 895              		.loc 1 426 16 is_stmt 0 view .LVU182
 896 0002 D0F8C002 		ldr	r0, [r0, #704]
 897              	.LVL85:
 426:Src/usbd_conf.c ****       
 898              		.loc 1 426 16 view .LVU183
 899 0006 FFF7FEFF 		bl	HAL_PCD_EP_Close
 900              	.LVL86:
 428:Src/usbd_conf.c **** 
 901              		.loc 1 428 3 is_stmt 1 view .LVU184
 428:Src/usbd_conf.c **** 
 902              		.loc 1 428 17 is_stmt 0 view .LVU185
 903 000a FFF7FEFF 		bl	USBD_Get_USB_Status
 904              	.LVL87:
 430:Src/usbd_conf.c **** }
 905              		.loc 1 430 3 is_stmt 1 view .LVU186
 431:Src/usbd_conf.c **** 
 906              		.loc 1 431 1 is_stmt 0 view .LVU187
 907 000e 08BD     		pop	{r3, pc}
 908              		.cfi_endproc
ARM GAS  C:\Users\JCEM\AppData\Local\Temp\cckV0N5Q.s 			page 31


 909              	.LFE86:
 911              		.section	.text.USBD_LL_FlushEP,"ax",%progbits
 912              		.align	1
 913              		.global	USBD_LL_FlushEP
 914              		.syntax unified
 915              		.thumb
 916              		.thumb_func
 917              		.fpu softvfp
 919              	USBD_LL_FlushEP:
 920              	.LVL88:
 921              	.LFB87:
 440:Src/usbd_conf.c ****   HAL_StatusTypeDef hal_status = HAL_OK;
 922              		.loc 1 440 1 is_stmt 1 view -0
 923              		.cfi_startproc
 924              		@ args = 0, pretend = 0, frame = 0
 925              		@ frame_needed = 0, uses_anonymous_args = 0
 440:Src/usbd_conf.c ****   HAL_StatusTypeDef hal_status = HAL_OK;
 926              		.loc 1 440 1 is_stmt 0 view .LVU189
 927 0000 08B5     		push	{r3, lr}
 928              	.LCFI21:
 929              		.cfi_def_cfa_offset 8
 930              		.cfi_offset 3, -8
 931              		.cfi_offset 14, -4
 441:Src/usbd_conf.c ****   USBD_StatusTypeDef usb_status = USBD_OK;
 932              		.loc 1 441 3 is_stmt 1 view .LVU190
 933              	.LVL89:
 442:Src/usbd_conf.c ****   
 934              		.loc 1 442 3 view .LVU191
 444:Src/usbd_conf.c ****       
 935              		.loc 1 444 3 view .LVU192
 444:Src/usbd_conf.c ****       
 936              		.loc 1 444 16 is_stmt 0 view .LVU193
 937 0002 D0F8C002 		ldr	r0, [r0, #704]
 938              	.LVL90:
 444:Src/usbd_conf.c ****       
 939              		.loc 1 444 16 view .LVU194
 940 0006 FFF7FEFF 		bl	HAL_PCD_EP_Flush
 941              	.LVL91:
 446:Src/usbd_conf.c ****   
 942              		.loc 1 446 3 is_stmt 1 view .LVU195
 446:Src/usbd_conf.c ****   
 943              		.loc 1 446 17 is_stmt 0 view .LVU196
 944 000a FFF7FEFF 		bl	USBD_Get_USB_Status
 945              	.LVL92:
 448:Src/usbd_conf.c **** }
 946              		.loc 1 448 3 is_stmt 1 view .LVU197
 449:Src/usbd_conf.c **** 
 947              		.loc 1 449 1 is_stmt 0 view .LVU198
 948 000e 08BD     		pop	{r3, pc}
 949              		.cfi_endproc
 950              	.LFE87:
 952              		.section	.text.USBD_LL_StallEP,"ax",%progbits
 953              		.align	1
 954              		.global	USBD_LL_StallEP
 955              		.syntax unified
 956              		.thumb
 957              		.thumb_func
ARM GAS  C:\Users\JCEM\AppData\Local\Temp\cckV0N5Q.s 			page 32


 958              		.fpu softvfp
 960              	USBD_LL_StallEP:
 961              	.LVL93:
 962              	.LFB88:
 458:Src/usbd_conf.c ****   HAL_StatusTypeDef hal_status = HAL_OK;
 963              		.loc 1 458 1 is_stmt 1 view -0
 964              		.cfi_startproc
 965              		@ args = 0, pretend = 0, frame = 0
 966              		@ frame_needed = 0, uses_anonymous_args = 0
 458:Src/usbd_conf.c ****   HAL_StatusTypeDef hal_status = HAL_OK;
 967              		.loc 1 458 1 is_stmt 0 view .LVU200
 968 0000 08B5     		push	{r3, lr}
 969              	.LCFI22:
 970              		.cfi_def_cfa_offset 8
 971              		.cfi_offset 3, -8
 972              		.cfi_offset 14, -4
 459:Src/usbd_conf.c ****   USBD_StatusTypeDef usb_status = USBD_OK;
 973              		.loc 1 459 3 is_stmt 1 view .LVU201
 974              	.LVL94:
 460:Src/usbd_conf.c ****   
 975              		.loc 1 460 3 view .LVU202
 462:Src/usbd_conf.c **** 
 976              		.loc 1 462 3 view .LVU203
 462:Src/usbd_conf.c **** 
 977              		.loc 1 462 16 is_stmt 0 view .LVU204
 978 0002 D0F8C002 		ldr	r0, [r0, #704]
 979              	.LVL95:
 462:Src/usbd_conf.c **** 
 980              		.loc 1 462 16 view .LVU205
 981 0006 FFF7FEFF 		bl	HAL_PCD_EP_SetStall
 982              	.LVL96:
 464:Src/usbd_conf.c ****  
 983              		.loc 1 464 3 is_stmt 1 view .LVU206
 464:Src/usbd_conf.c ****  
 984              		.loc 1 464 17 is_stmt 0 view .LVU207
 985 000a FFF7FEFF 		bl	USBD_Get_USB_Status
 986              	.LVL97:
 466:Src/usbd_conf.c **** }
 987              		.loc 1 466 3 is_stmt 1 view .LVU208
 467:Src/usbd_conf.c **** 
 988              		.loc 1 467 1 is_stmt 0 view .LVU209
 989 000e 08BD     		pop	{r3, pc}
 990              		.cfi_endproc
 991              	.LFE88:
 993              		.section	.text.USBD_LL_ClearStallEP,"ax",%progbits
 994              		.align	1
 995              		.global	USBD_LL_ClearStallEP
 996              		.syntax unified
 997              		.thumb
 998              		.thumb_func
 999              		.fpu softvfp
 1001              	USBD_LL_ClearStallEP:
 1002              	.LVL98:
 1003              	.LFB89:
 476:Src/usbd_conf.c ****   HAL_StatusTypeDef hal_status = HAL_OK;
 1004              		.loc 1 476 1 is_stmt 1 view -0
 1005              		.cfi_startproc
ARM GAS  C:\Users\JCEM\AppData\Local\Temp\cckV0N5Q.s 			page 33


 1006              		@ args = 0, pretend = 0, frame = 0
 1007              		@ frame_needed = 0, uses_anonymous_args = 0
 476:Src/usbd_conf.c ****   HAL_StatusTypeDef hal_status = HAL_OK;
 1008              		.loc 1 476 1 is_stmt 0 view .LVU211
 1009 0000 08B5     		push	{r3, lr}
 1010              	.LCFI23:
 1011              		.cfi_def_cfa_offset 8
 1012              		.cfi_offset 3, -8
 1013              		.cfi_offset 14, -4
 477:Src/usbd_conf.c ****   USBD_StatusTypeDef usb_status = USBD_OK;
 1014              		.loc 1 477 3 is_stmt 1 view .LVU212
 1015              	.LVL99:
 478:Src/usbd_conf.c ****   
 1016              		.loc 1 478 3 view .LVU213
 480:Src/usbd_conf.c ****      
 1017              		.loc 1 480 3 view .LVU214
 480:Src/usbd_conf.c ****      
 1018              		.loc 1 480 16 is_stmt 0 view .LVU215
 1019 0002 D0F8C002 		ldr	r0, [r0, #704]
 1020              	.LVL100:
 480:Src/usbd_conf.c ****      
 1021              		.loc 1 480 16 view .LVU216
 1022 0006 FFF7FEFF 		bl	HAL_PCD_EP_ClrStall
 1023              	.LVL101:
 482:Src/usbd_conf.c **** 
 1024              		.loc 1 482 3 is_stmt 1 view .LVU217
 482:Src/usbd_conf.c **** 
 1025              		.loc 1 482 17 is_stmt 0 view .LVU218
 1026 000a FFF7FEFF 		bl	USBD_Get_USB_Status
 1027              	.LVL102:
 484:Src/usbd_conf.c **** }
 1028              		.loc 1 484 3 is_stmt 1 view .LVU219
 485:Src/usbd_conf.c **** 
 1029              		.loc 1 485 1 is_stmt 0 view .LVU220
 1030 000e 08BD     		pop	{r3, pc}
 1031              		.cfi_endproc
 1032              	.LFE89:
 1034              		.section	.text.USBD_LL_IsStallEP,"ax",%progbits
 1035              		.align	1
 1036              		.global	USBD_LL_IsStallEP
 1037              		.syntax unified
 1038              		.thumb
 1039              		.thumb_func
 1040              		.fpu softvfp
 1042              	USBD_LL_IsStallEP:
 1043              	.LVL103:
 1044              	.LFB90:
 494:Src/usbd_conf.c ****   PCD_HandleTypeDef *hpcd = (PCD_HandleTypeDef*) pdev->pData;
 1045              		.loc 1 494 1 is_stmt 1 view -0
 1046              		.cfi_startproc
 1047              		@ args = 0, pretend = 0, frame = 0
 1048              		@ frame_needed = 0, uses_anonymous_args = 0
 1049              		@ link register save eliminated.
 495:Src/usbd_conf.c ****   
 1050              		.loc 1 495 3 view .LVU222
 495:Src/usbd_conf.c ****   
 1051              		.loc 1 495 22 is_stmt 0 view .LVU223
ARM GAS  C:\Users\JCEM\AppData\Local\Temp\cckV0N5Q.s 			page 34


 1052 0000 D0F8C032 		ldr	r3, [r0, #704]
 1053              	.LVL104:
 497:Src/usbd_conf.c ****   {
 1054              		.loc 1 497 3 is_stmt 1 view .LVU224
 497:Src/usbd_conf.c ****   {
 1055              		.loc 1 497 5 is_stmt 0 view .LVU225
 1056 0004 11F0800F 		tst	r1, #128
 1057 0008 06D1     		bne	.L74
 503:Src/usbd_conf.c ****   }
 1058              		.loc 1 503 5 is_stmt 1 view .LVU226
 503:Src/usbd_conf.c ****   }
 1059              		.loc 1 503 33 is_stmt 0 view .LVU227
 1060 000a 01F07F01 		and	r1, r1, #127
 1061              	.LVL105:
 503:Src/usbd_conf.c ****   }
 1062              		.loc 1 503 40 view .LVU228
 1063 000e 03EB4111 		add	r1, r3, r1, lsl #5
 1064 0012 91F82A01 		ldrb	r0, [r1, #298]	@ zero_extendqisi2
 1065              	.LVL106:
 505:Src/usbd_conf.c **** 
 1066              		.loc 1 505 1 view .LVU229
 1067 0016 7047     		bx	lr
 1068              	.LVL107:
 1069              	.L74:
 499:Src/usbd_conf.c ****   }
 1070              		.loc 1 499 5 is_stmt 1 view .LVU230
 499:Src/usbd_conf.c ****   }
 1071              		.loc 1 499 32 is_stmt 0 view .LVU231
 1072 0018 01F07F01 		and	r1, r1, #127
 1073              	.LVL108:
 499:Src/usbd_conf.c ****   }
 1074              		.loc 1 499 39 view .LVU232
 1075 001c 03EB4111 		add	r1, r3, r1, lsl #5
 1076 0020 91F82A00 		ldrb	r0, [r1, #42]	@ zero_extendqisi2
 1077              	.LVL109:
 499:Src/usbd_conf.c ****   }
 1078              		.loc 1 499 39 view .LVU233
 1079 0024 7047     		bx	lr
 1080              		.cfi_endproc
 1081              	.LFE90:
 1083              		.section	.text.USBD_LL_SetUSBAddress,"ax",%progbits
 1084              		.align	1
 1085              		.global	USBD_LL_SetUSBAddress
 1086              		.syntax unified
 1087              		.thumb
 1088              		.thumb_func
 1089              		.fpu softvfp
 1091              	USBD_LL_SetUSBAddress:
 1092              	.LVL110:
 1093              	.LFB91:
 514:Src/usbd_conf.c ****   HAL_StatusTypeDef hal_status = HAL_OK;
 1094              		.loc 1 514 1 is_stmt 1 view -0
 1095              		.cfi_startproc
 1096              		@ args = 0, pretend = 0, frame = 0
 1097              		@ frame_needed = 0, uses_anonymous_args = 0
 514:Src/usbd_conf.c ****   HAL_StatusTypeDef hal_status = HAL_OK;
 1098              		.loc 1 514 1 is_stmt 0 view .LVU235
ARM GAS  C:\Users\JCEM\AppData\Local\Temp\cckV0N5Q.s 			page 35


 1099 0000 08B5     		push	{r3, lr}
 1100              	.LCFI24:
 1101              		.cfi_def_cfa_offset 8
 1102              		.cfi_offset 3, -8
 1103              		.cfi_offset 14, -4
 515:Src/usbd_conf.c ****   USBD_StatusTypeDef usb_status = USBD_OK;
 1104              		.loc 1 515 3 is_stmt 1 view .LVU236
 1105              	.LVL111:
 516:Src/usbd_conf.c ****   
 1106              		.loc 1 516 3 view .LVU237
 518:Src/usbd_conf.c ****      
 1107              		.loc 1 518 3 view .LVU238
 518:Src/usbd_conf.c ****      
 1108              		.loc 1 518 16 is_stmt 0 view .LVU239
 1109 0002 D0F8C002 		ldr	r0, [r0, #704]
 1110              	.LVL112:
 518:Src/usbd_conf.c ****      
 1111              		.loc 1 518 16 view .LVU240
 1112 0006 FFF7FEFF 		bl	HAL_PCD_SetAddress
 1113              	.LVL113:
 520:Src/usbd_conf.c ****  
 1114              		.loc 1 520 3 is_stmt 1 view .LVU241
 520:Src/usbd_conf.c ****  
 1115              		.loc 1 520 17 is_stmt 0 view .LVU242
 1116 000a FFF7FEFF 		bl	USBD_Get_USB_Status
 1117              	.LVL114:
 522:Src/usbd_conf.c **** }
 1118              		.loc 1 522 3 is_stmt 1 view .LVU243
 523:Src/usbd_conf.c **** 
 1119              		.loc 1 523 1 is_stmt 0 view .LVU244
 1120 000e 08BD     		pop	{r3, pc}
 1121              		.cfi_endproc
 1122              	.LFE91:
 1124              		.section	.text.USBD_LL_Transmit,"ax",%progbits
 1125              		.align	1
 1126              		.global	USBD_LL_Transmit
 1127              		.syntax unified
 1128              		.thumb
 1129              		.thumb_func
 1130              		.fpu softvfp
 1132              	USBD_LL_Transmit:
 1133              	.LVL115:
 1134              	.LFB92:
 534:Src/usbd_conf.c ****   HAL_StatusTypeDef hal_status = HAL_OK;
 1135              		.loc 1 534 1 is_stmt 1 view -0
 1136              		.cfi_startproc
 1137              		@ args = 0, pretend = 0, frame = 0
 1138              		@ frame_needed = 0, uses_anonymous_args = 0
 534:Src/usbd_conf.c ****   HAL_StatusTypeDef hal_status = HAL_OK;
 1139              		.loc 1 534 1 is_stmt 0 view .LVU246
 1140 0000 08B5     		push	{r3, lr}
 1141              	.LCFI25:
 1142              		.cfi_def_cfa_offset 8
 1143              		.cfi_offset 3, -8
 1144              		.cfi_offset 14, -4
 535:Src/usbd_conf.c ****   USBD_StatusTypeDef usb_status = USBD_OK;
 1145              		.loc 1 535 3 is_stmt 1 view .LVU247
ARM GAS  C:\Users\JCEM\AppData\Local\Temp\cckV0N5Q.s 			page 36


 1146              	.LVL116:
 536:Src/usbd_conf.c **** 
 1147              		.loc 1 536 3 view .LVU248
 538:Src/usbd_conf.c ****      
 1148              		.loc 1 538 3 view .LVU249
 538:Src/usbd_conf.c ****      
 1149              		.loc 1 538 16 is_stmt 0 view .LVU250
 1150 0002 D0F8C002 		ldr	r0, [r0, #704]
 1151              	.LVL117:
 538:Src/usbd_conf.c ****      
 1152              		.loc 1 538 16 view .LVU251
 1153 0006 FFF7FEFF 		bl	HAL_PCD_EP_Transmit
 1154              	.LVL118:
 540:Src/usbd_conf.c ****   
 1155              		.loc 1 540 3 is_stmt 1 view .LVU252
 540:Src/usbd_conf.c ****   
 1156              		.loc 1 540 17 is_stmt 0 view .LVU253
 1157 000a FFF7FEFF 		bl	USBD_Get_USB_Status
 1158              	.LVL119:
 542:Src/usbd_conf.c **** }
 1159              		.loc 1 542 3 is_stmt 1 view .LVU254
 543:Src/usbd_conf.c **** 
 1160              		.loc 1 543 1 is_stmt 0 view .LVU255
 1161 000e 08BD     		pop	{r3, pc}
 1162              		.cfi_endproc
 1163              	.LFE92:
 1165              		.section	.text.USBD_LL_PrepareReceive,"ax",%progbits
 1166              		.align	1
 1167              		.global	USBD_LL_PrepareReceive
 1168              		.syntax unified
 1169              		.thumb
 1170              		.thumb_func
 1171              		.fpu softvfp
 1173              	USBD_LL_PrepareReceive:
 1174              	.LVL120:
 1175              	.LFB93:
 554:Src/usbd_conf.c ****   HAL_StatusTypeDef hal_status = HAL_OK;
 1176              		.loc 1 554 1 is_stmt 1 view -0
 1177              		.cfi_startproc
 1178              		@ args = 0, pretend = 0, frame = 0
 1179              		@ frame_needed = 0, uses_anonymous_args = 0
 554:Src/usbd_conf.c ****   HAL_StatusTypeDef hal_status = HAL_OK;
 1180              		.loc 1 554 1 is_stmt 0 view .LVU257
 1181 0000 08B5     		push	{r3, lr}
 1182              	.LCFI26:
 1183              		.cfi_def_cfa_offset 8
 1184              		.cfi_offset 3, -8
 1185              		.cfi_offset 14, -4
 555:Src/usbd_conf.c ****   USBD_StatusTypeDef usb_status = USBD_OK;
 1186              		.loc 1 555 3 is_stmt 1 view .LVU258
 1187              	.LVL121:
 556:Src/usbd_conf.c **** 
 1188              		.loc 1 556 3 view .LVU259
 558:Src/usbd_conf.c ****      
 1189              		.loc 1 558 3 view .LVU260
 558:Src/usbd_conf.c ****      
 1190              		.loc 1 558 16 is_stmt 0 view .LVU261
ARM GAS  C:\Users\JCEM\AppData\Local\Temp\cckV0N5Q.s 			page 37


 1191 0002 D0F8C002 		ldr	r0, [r0, #704]
 1192              	.LVL122:
 558:Src/usbd_conf.c ****      
 1193              		.loc 1 558 16 view .LVU262
 1194 0006 FFF7FEFF 		bl	HAL_PCD_EP_Receive
 1195              	.LVL123:
 560:Src/usbd_conf.c ****   	
 1196              		.loc 1 560 3 is_stmt 1 view .LVU263
 560:Src/usbd_conf.c ****   	
 1197              		.loc 1 560 17 is_stmt 0 view .LVU264
 1198 000a FFF7FEFF 		bl	USBD_Get_USB_Status
 1199              	.LVL124:
 562:Src/usbd_conf.c **** }
 1200              		.loc 1 562 3 is_stmt 1 view .LVU265
 563:Src/usbd_conf.c **** 
 1201              		.loc 1 563 1 is_stmt 0 view .LVU266
 1202 000e 08BD     		pop	{r3, pc}
 1203              		.cfi_endproc
 1204              	.LFE93:
 1206              		.section	.text.USBD_LL_GetRxDataSize,"ax",%progbits
 1207              		.align	1
 1208              		.global	USBD_LL_GetRxDataSize
 1209              		.syntax unified
 1210              		.thumb
 1211              		.thumb_func
 1212              		.fpu softvfp
 1214              	USBD_LL_GetRxDataSize:
 1215              	.LVL125:
 1216              	.LFB94:
 572:Src/usbd_conf.c ****   return HAL_PCD_EP_GetRxCount((PCD_HandleTypeDef*) pdev->pData, ep_addr);
 1217              		.loc 1 572 1 is_stmt 1 view -0
 1218              		.cfi_startproc
 1219              		@ args = 0, pretend = 0, frame = 0
 1220              		@ frame_needed = 0, uses_anonymous_args = 0
 572:Src/usbd_conf.c ****   return HAL_PCD_EP_GetRxCount((PCD_HandleTypeDef*) pdev->pData, ep_addr);
 1221              		.loc 1 572 1 is_stmt 0 view .LVU268
 1222 0000 08B5     		push	{r3, lr}
 1223              	.LCFI27:
 1224              		.cfi_def_cfa_offset 8
 1225              		.cfi_offset 3, -8
 1226              		.cfi_offset 14, -4
 573:Src/usbd_conf.c **** }
 1227              		.loc 1 573 3 is_stmt 1 view .LVU269
 573:Src/usbd_conf.c **** }
 1228              		.loc 1 573 10 is_stmt 0 view .LVU270
 1229 0002 D0F8C002 		ldr	r0, [r0, #704]
 1230              	.LVL126:
 573:Src/usbd_conf.c **** }
 1231              		.loc 1 573 10 view .LVU271
 1232 0006 FFF7FEFF 		bl	HAL_PCD_EP_GetRxCount
 1233              	.LVL127:
 574:Src/usbd_conf.c **** 
 1234              		.loc 1 574 1 view .LVU272
 1235 000a 08BD     		pop	{r3, pc}
 1236              		.cfi_endproc
 1237              	.LFE94:
 1239              		.section	.text.USBD_LL_Delay,"ax",%progbits
ARM GAS  C:\Users\JCEM\AppData\Local\Temp\cckV0N5Q.s 			page 38


 1240              		.align	1
 1241              		.global	USBD_LL_Delay
 1242              		.syntax unified
 1243              		.thumb
 1244              		.thumb_func
 1245              		.fpu softvfp
 1247              	USBD_LL_Delay:
 1248              	.LVL128:
 1249              	.LFB95:
 582:Src/usbd_conf.c ****   HAL_Delay(Delay);
 1250              		.loc 1 582 1 is_stmt 1 view -0
 1251              		.cfi_startproc
 1252              		@ args = 0, pretend = 0, frame = 0
 1253              		@ frame_needed = 0, uses_anonymous_args = 0
 582:Src/usbd_conf.c ****   HAL_Delay(Delay);
 1254              		.loc 1 582 1 is_stmt 0 view .LVU274
 1255 0000 08B5     		push	{r3, lr}
 1256              	.LCFI28:
 1257              		.cfi_def_cfa_offset 8
 1258              		.cfi_offset 3, -8
 1259              		.cfi_offset 14, -4
 583:Src/usbd_conf.c **** }
 1260              		.loc 1 583 3 is_stmt 1 view .LVU275
 1261 0002 FFF7FEFF 		bl	HAL_Delay
 1262              	.LVL129:
 584:Src/usbd_conf.c **** 
 1263              		.loc 1 584 1 is_stmt 0 view .LVU276
 1264 0006 08BD     		pop	{r3, pc}
 1265              		.cfi_endproc
 1266              	.LFE95:
 1268              		.section	.text.USBD_static_malloc,"ax",%progbits
 1269              		.align	1
 1270              		.global	USBD_static_malloc
 1271              		.syntax unified
 1272              		.thumb
 1273              		.thumb_func
 1274              		.fpu softvfp
 1276              	USBD_static_malloc:
 1277              	.LVL130:
 1278              	.LFB96:
 592:Src/usbd_conf.c ****   static uint32_t mem[(sizeof(USBD_CDC_HandleTypeDef)/4)+1];/* On 32-bit boundary */
 1279              		.loc 1 592 1 is_stmt 1 view -0
 1280              		.cfi_startproc
 1281              		@ args = 0, pretend = 0, frame = 0
 1282              		@ frame_needed = 0, uses_anonymous_args = 0
 1283              		@ link register save eliminated.
 593:Src/usbd_conf.c ****   return mem;
 1284              		.loc 1 593 3 view .LVU278
 594:Src/usbd_conf.c **** }
 1285              		.loc 1 594 3 view .LVU279
 595:Src/usbd_conf.c **** 
 1286              		.loc 1 595 1 is_stmt 0 view .LVU280
 1287 0000 0048     		ldr	r0, .L86
 1288              	.LVL131:
 595:Src/usbd_conf.c **** 
 1289              		.loc 1 595 1 view .LVU281
 1290 0002 7047     		bx	lr
ARM GAS  C:\Users\JCEM\AppData\Local\Temp\cckV0N5Q.s 			page 39


 1291              	.L87:
 1292              		.align	2
 1293              	.L86:
 1294 0004 00000000 		.word	.LANCHOR0
 1295              		.cfi_endproc
 1296              	.LFE96:
 1298              		.section	.text.USBD_static_free,"ax",%progbits
 1299              		.align	1
 1300              		.global	USBD_static_free
 1301              		.syntax unified
 1302              		.thumb
 1303              		.thumb_func
 1304              		.fpu softvfp
 1306              	USBD_static_free:
 1307              	.LVL132:
 1308              	.LFB97:
 603:Src/usbd_conf.c **** 
 1309              		.loc 1 603 1 is_stmt 1 view -0
 1310              		.cfi_startproc
 1311              		@ args = 0, pretend = 0, frame = 0
 1312              		@ frame_needed = 0, uses_anonymous_args = 0
 1313              		@ link register save eliminated.
 605:Src/usbd_conf.c **** 
 1314              		.loc 1 605 1 view .LVU283
 1315 0000 7047     		bx	lr
 1316              		.cfi_endproc
 1317              	.LFE97:
 1319              		.section	.text.HAL_PCDEx_SetConnectionState,"ax",%progbits
 1320              		.align	1
 1321              		.global	HAL_PCDEx_SetConnectionState
 1322              		.syntax unified
 1323              		.thumb
 1324              		.thumb_func
 1325              		.fpu softvfp
 1327              	HAL_PCDEx_SetConnectionState:
 1328              	.LVL133:
 1329              	.LFB98:
 618:Src/usbd_conf.c ****   /* USER CODE BEGIN 6 */
 1330              		.loc 1 618 1 view -0
 1331              		.cfi_startproc
 1332              		@ args = 0, pretend = 0, frame = 0
 1333              		@ frame_needed = 0, uses_anonymous_args = 0
 1334              		@ link register save eliminated.
 620:Src/usbd_conf.c ****   {
 1335              		.loc 1 620 3 view .LVU285
 629:Src/usbd_conf.c ****   /* USER CODE END 6 */
 1336              		.loc 1 629 3 view .LVU286
 631:Src/usbd_conf.c **** 
 1337              		.loc 1 631 1 is_stmt 0 view .LVU287
 1338 0000 7047     		bx	lr
 1339              		.cfi_endproc
 1340              	.LFE98:
 1342              		.comm	hpcd_USB_FS,620,4
 1343              		.section	.bss.mem.7746,"aw",%nobits
 1344              		.align	2
 1345              		.set	.LANCHOR0,. + 0
 1348              	mem.7746:
ARM GAS  C:\Users\JCEM\AppData\Local\Temp\cckV0N5Q.s 			page 40


 1349 0000 00000000 		.space	544
 1349      00000000 
 1349      00000000 
 1349      00000000 
 1349      00000000 
 1350              		.text
 1351              	.Letext0:
 1352              		.file 2 "c:\\program files (x86)\\gnu arm embedded toolchain\\9 2020-q2-update\\arm-none-eabi\\inc
 1353              		.file 3 "c:\\program files (x86)\\gnu arm embedded toolchain\\9 2020-q2-update\\arm-none-eabi\\inc
 1354              		.file 4 "Drivers/CMSIS/Include/core_cm3.h"
 1355              		.file 5 "Drivers/CMSIS/Device/ST/STM32F1xx/Include/system_stm32f1xx.h"
 1356              		.file 6 "Drivers/CMSIS/Device/ST/STM32F1xx/Include/stm32f103xb.h"
 1357              		.file 7 "Drivers/CMSIS/Device/ST/STM32F1xx/Include/stm32f1xx.h"
 1358              		.file 8 "Drivers/STM32F1xx_HAL_Driver/Inc/stm32f1xx_hal_def.h"
 1359              		.file 9 "Drivers/STM32F1xx_HAL_Driver/Inc/stm32f1xx_ll_usb.h"
 1360              		.file 10 "Drivers/STM32F1xx_HAL_Driver/Inc/stm32f1xx_hal_pcd.h"
 1361              		.file 11 "Drivers/STM32F1xx_HAL_Driver/Inc/stm32f1xx_hal.h"
 1362              		.file 12 "c:\\program files (x86)\\gnu arm embedded toolchain\\9 2020-q2-update\\lib\\gcc\\arm-non
 1363              		.file 13 "c:\\program files (x86)\\gnu arm embedded toolchain\\9 2020-q2-update\\arm-none-eabi\\in
 1364              		.file 14 "c:\\program files (x86)\\gnu arm embedded toolchain\\9 2020-q2-update\\arm-none-eabi\\in
 1365              		.file 15 "c:\\program files (x86)\\gnu arm embedded toolchain\\9 2020-q2-update\\arm-none-eabi\\in
 1366              		.file 16 "c:\\program files (x86)\\gnu arm embedded toolchain\\9 2020-q2-update\\arm-none-eabi\\in
 1367              		.file 17 "Middlewares/ST/STM32_USB_Device_Library/Core/Inc/usbd_def.h"
 1368              		.file 18 "Middlewares/ST/STM32_USB_Device_Library/Class/CDC/Inc/usbd_cdc.h"
 1369              		.file 19 "Drivers/STM32F1xx_HAL_Driver/Inc/stm32f1xx_hal_pcd_ex.h"
 1370              		.file 20 "Middlewares/ST/STM32_USB_Device_Library/Core/Inc/usbd_core.h"
 1371              		.file 21 "Drivers/STM32F1xx_HAL_Driver/Inc/stm32f1xx_hal_cortex.h"
ARM GAS  C:\Users\JCEM\AppData\Local\Temp\cckV0N5Q.s 			page 41

