
uCNC.elf:     file format elf32-avr


Disassembly of section .text:

00000000 <__vectors>:
       0:	0c 94 39 02 	jmp	0x472	; 0x472 <__ctors_end>
       4:	0c 94 56 02 	jmp	0x4ac	; 0x4ac <__bad_interrupt>
       8:	0c 94 56 02 	jmp	0x4ac	; 0x4ac <__bad_interrupt>
       c:	0c 94 56 02 	jmp	0x4ac	; 0x4ac <__bad_interrupt>
      10:	0c 94 56 02 	jmp	0x4ac	; 0x4ac <__bad_interrupt>
      14:	0c 94 2f 13 	jmp	0x265e	; 0x265e <__vector_5>
      18:	0c 94 56 02 	jmp	0x4ac	; 0x4ac <__bad_interrupt>
      1c:	0c 94 56 02 	jmp	0x4ac	; 0x4ac <__bad_interrupt>
      20:	0c 94 56 02 	jmp	0x4ac	; 0x4ac <__bad_interrupt>
      24:	0c 94 56 02 	jmp	0x4ac	; 0x4ac <__bad_interrupt>
      28:	0c 94 56 02 	jmp	0x4ac	; 0x4ac <__bad_interrupt>
      2c:	0c 94 89 13 	jmp	0x2712	; 0x2712 <__vector_11>
      30:	0c 94 5f 13 	jmp	0x26be	; 0x26be <__vector_12>
      34:	0c 94 56 02 	jmp	0x4ac	; 0x4ac <__bad_interrupt>
      38:	0c 94 56 02 	jmp	0x4ac	; 0x4ac <__bad_interrupt>
      3c:	0c 94 56 02 	jmp	0x4ac	; 0x4ac <__bad_interrupt>
      40:	0c 94 56 02 	jmp	0x4ac	; 0x4ac <__bad_interrupt>
      44:	0c 94 56 02 	jmp	0x4ac	; 0x4ac <__bad_interrupt>
      48:	0c 94 df 12 	jmp	0x25be	; 0x25be <__vector_18>
      4c:	0c 94 56 02 	jmp	0x4ac	; 0x4ac <__bad_interrupt>
      50:	0c 94 b5 12 	jmp	0x256a	; 0x256a <__vector_20>
      54:	0c 94 56 02 	jmp	0x4ac	; 0x4ac <__bad_interrupt>
      58:	0c 94 56 02 	jmp	0x4ac	; 0x4ac <__bad_interrupt>
      5c:	0c 94 56 02 	jmp	0x4ac	; 0x4ac <__bad_interrupt>
      60:	0c 94 56 02 	jmp	0x4ac	; 0x4ac <__bad_interrupt>
      64:	0c 94 56 02 	jmp	0x4ac	; 0x4ac <__bad_interrupt>
      68:	b5 09       	sbc	r27, r5
      6a:	c7 09       	sbc	r28, r7
      6c:	d9 09       	sbc	r29, r9
      6e:	eb 09       	sbc	r30, r11
      70:	cf 0a       	sbc	r12, r31
      72:	fd 09       	sbc	r31, r13
      74:	0c 08       	sbc	r0, r12
      76:	10 0a       	sbc	r1, r16
      78:	22 0a       	sbc	r2, r18
      7a:	34 0a       	sbc	r3, r20
      7c:	46 0a       	sbc	r4, r22
      7e:	58 0a       	sbc	r5, r24
      80:	04 09       	sbc	r16, r4
      82:	5d 09       	sbc	r21, r13
      84:	cf 0a       	sbc	r12, r31
      86:	6e 0a       	sbc	r6, r30
      88:	80 0a       	sbc	r8, r16
      8a:	92 0a       	sbc	r9, r18
      8c:	a5 0a       	sbc	r10, r21
      8e:	b7 0a       	sbc	r11, r23
      90:	cf 0a       	sbc	r12, r31
      92:	cf 0a       	sbc	r12, r31
      94:	cf 0a       	sbc	r12, r31
      96:	7f 09       	sbc	r23, r15
      98:	91 09       	sbc	r25, r1
      9a:	a3 09       	sbc	r26, r3
      9c:	23 08       	sbc	r2, r3
      9e:	23 08       	sbc	r2, r3
      a0:	23 08       	sbc	r2, r3
      a2:	23 08       	sbc	r2, r3
      a4:	d2 08       	sbc	r13, r2
      a6:	d9 0a       	sbc	r13, r25
      a8:	d9 0a       	sbc	r13, r25
      aa:	d9 0a       	sbc	r13, r25
      ac:	d9 0a       	sbc	r13, r25
      ae:	d9 0a       	sbc	r13, r25
      b0:	d2 08       	sbc	r13, r2
      b2:	d9 0a       	sbc	r13, r25
      b4:	d9 0a       	sbc	r13, r25
      b6:	d9 0a       	sbc	r13, r25
      b8:	d9 0a       	sbc	r13, r25
      ba:	d9 0a       	sbc	r13, r25
      bc:	d9 0a       	sbc	r13, r25
      be:	42 08       	sbc	r4, r2
      c0:	42 08       	sbc	r4, r2
      c2:	42 08       	sbc	r4, r2
      c4:	6c 08       	sbc	r6, r12
      c6:	6c 08       	sbc	r6, r12
      c8:	d9 0a       	sbc	r13, r25
      ca:	d9 0a       	sbc	r13, r25
      cc:	d9 0a       	sbc	r13, r25
      ce:	d9 0a       	sbc	r13, r25
      d0:	d9 0a       	sbc	r13, r25
      d2:	d9 0a       	sbc	r13, r25
      d4:	d2 08       	sbc	r13, r2
      d6:	d9 0a       	sbc	r13, r25
      d8:	d2 08       	sbc	r13, r2
      da:	d9 0a       	sbc	r13, r25
      dc:	d9 0a       	sbc	r13, r25
      de:	d9 0a       	sbc	r13, r25
      e0:	d9 0a       	sbc	r13, r25
      e2:	d9 0a       	sbc	r13, r25
      e4:	d9 0a       	sbc	r13, r25
      e6:	d9 0a       	sbc	r13, r25
      e8:	30 08       	sbc	r3, r0
      ea:	d9 0a       	sbc	r13, r25
      ec:	79 08       	sbc	r7, r9
      ee:	79 08       	sbc	r7, r9
      f0:	79 08       	sbc	r7, r9
      f2:	87 08       	sbc	r8, r7
      f4:	d9 0a       	sbc	r13, r25
      f6:	d9 0a       	sbc	r13, r25
      f8:	d9 0a       	sbc	r13, r25
      fa:	d9 0a       	sbc	r13, r25
      fc:	d9 0a       	sbc	r13, r25
      fe:	91 08       	sbc	r9, r1
     100:	d9 0a       	sbc	r13, r25
     102:	d9 0a       	sbc	r13, r25
     104:	d9 0a       	sbc	r13, r25
     106:	d2 08       	sbc	r13, r2
     108:	a9 08       	sbc	r10, r9
     10a:	a9 08       	sbc	r10, r9
     10c:	a9 08       	sbc	r10, r9
     10e:	a9 08       	sbc	r10, r9
     110:	a9 08       	sbc	r10, r9
     112:	a9 08       	sbc	r10, r9
     114:	d9 0a       	sbc	r13, r25
     116:	bd 08       	sbc	r11, r13
     118:	d9 0a       	sbc	r13, r25
     11a:	d9 0a       	sbc	r13, r25
     11c:	c7 08       	sbc	r12, r7
     11e:	d9 0a       	sbc	r13, r25
     120:	d9 0a       	sbc	r13, r25
     122:	d9 0a       	sbc	r13, r25
     124:	d9 0a       	sbc	r13, r25
     126:	d9 0a       	sbc	r13, r25
     128:	d9 0a       	sbc	r13, r25
     12a:	d9 0a       	sbc	r13, r25
     12c:	d9 0a       	sbc	r13, r25
     12e:	d9 0a       	sbc	r13, r25
     130:	d9 0a       	sbc	r13, r25
     132:	d9 0a       	sbc	r13, r25
     134:	d9 0a       	sbc	r13, r25
     136:	d9 0a       	sbc	r13, r25
     138:	d9 0a       	sbc	r13, r25
     13a:	d9 0a       	sbc	r13, r25
     13c:	34 08       	sbc	r3, r4
     13e:	34 08       	sbc	r3, r4
     140:	34 08       	sbc	r3, r4
     142:	34 08       	sbc	r3, r4
     144:	34 08       	sbc	r3, r4
     146:	34 08       	sbc	r3, r4
     148:	34 08       	sbc	r3, r4
     14a:	34 08       	sbc	r3, r4
     14c:	34 08       	sbc	r3, r4
     14e:	34 08       	sbc	r3, r4
     150:	52 08       	sbc	r5, r2
     152:	52 08       	sbc	r5, r2
     154:	d2 08       	sbc	r13, r2
     156:	5f 08       	sbc	r5, r15
     158:	5f 08       	sbc	r5, r15
     15a:	d9 0a       	sbc	r13, r25
     15c:	d9 0a       	sbc	r13, r25
     15e:	d9 0a       	sbc	r13, r25
     160:	9b 08       	sbc	r9, r11
     162:	9b 08       	sbc	r9, r11
     164:	19 09       	sbc	r17, r9
     166:	19 09       	sbc	r17, r9
     168:	19 09       	sbc	r17, r9
     16a:	31 09       	sbc	r19, r1
     16c:	31 09       	sbc	r19, r1
     16e:	31 09       	sbc	r19, r1
     170:	fd 0a       	sbc	r15, r29
     172:	42 09       	sbc	r20, r2
     174:	47 09       	sbc	r20, r7
     176:	4c 09       	sbc	r20, r12
     178:	fd 0a       	sbc	r15, r29
     17a:	fd 0a       	sbc	r15, r29
     17c:	fd 0a       	sbc	r15, r29
     17e:	fd 0a       	sbc	r15, r29
     180:	fd 0a       	sbc	r15, r29
     182:	fd 0a       	sbc	r15, r29
     184:	fd 0a       	sbc	r15, r29
     186:	fd 0a       	sbc	r15, r29
     188:	fd 0a       	sbc	r15, r29
     18a:	fd 0a       	sbc	r15, r29
     18c:	fd 0a       	sbc	r15, r29
     18e:	fd 0a       	sbc	r15, r29
     190:	fd 0a       	sbc	r15, r29
     192:	fd 0a       	sbc	r15, r29
     194:	fd 0a       	sbc	r15, r29
     196:	fd 0a       	sbc	r15, r29
     198:	fd 0a       	sbc	r15, r29
     19a:	fd 0a       	sbc	r15, r29
     19c:	fd 0a       	sbc	r15, r29
     19e:	fd 0a       	sbc	r15, r29
     1a0:	19 09       	sbc	r17, r9
     1a2:	fd 0a       	sbc	r15, r29
     1a4:	fd 0a       	sbc	r15, r29
     1a6:	fd 0a       	sbc	r15, r29
     1a8:	fd 0a       	sbc	r15, r29
     1aa:	fd 0a       	sbc	r15, r29
     1ac:	fd 0a       	sbc	r15, r29
     1ae:	fd 0a       	sbc	r15, r29
     1b0:	fd 0a       	sbc	r15, r29
     1b2:	fd 0a       	sbc	r15, r29
     1b4:	fd 0a       	sbc	r15, r29
     1b6:	fd 0a       	sbc	r15, r29
     1b8:	fd 0a       	sbc	r15, r29
     1ba:	fd 0a       	sbc	r15, r29
     1bc:	fd 0a       	sbc	r15, r29
     1be:	fd 0a       	sbc	r15, r29
     1c0:	fd 0a       	sbc	r15, r29
     1c2:	fd 0a       	sbc	r15, r29
     1c4:	51 09       	sbc	r21, r1
     1c6:	51 09       	sbc	r21, r1
     1c8:	fd 0a       	sbc	r15, r29
     1ca:	fd 0a       	sbc	r15, r29
     1cc:	fd 0a       	sbc	r15, r29
     1ce:	fd 0a       	sbc	r15, r29
     1d0:	fd 0a       	sbc	r15, r29
     1d2:	fd 0a       	sbc	r15, r29
     1d4:	fd 0a       	sbc	r15, r29
     1d6:	fd 0a       	sbc	r15, r29
     1d8:	fd 0a       	sbc	r15, r29
     1da:	fd 0a       	sbc	r15, r29
     1dc:	19 09       	sbc	r17, r9

000001de <__trampolines_end>:
     1de:	6e 61       	ori	r22, 0x1E	; 30
     1e0:	6e 00       	.word	0x006e	; ????

000001e2 <__c.2332>:
     1e2:	69 6e       	ori	r22, 0xE9	; 233
     1e4:	66 00       	.word	0x0066	; ????
     1e6:	00 40       	sbci	r16, 0x00	; 0
     1e8:	7a 10       	cpse	r7, r10
     1ea:	f3 5a       	subi	r31, 0xA3	; 163
     1ec:	00 a0       	ldd	r0, Z+32	; 0x20
     1ee:	72 4e       	sbci	r23, 0xE2	; 226
     1f0:	18 09       	sbc	r17, r8
     1f2:	00 10       	cpse	r0, r0
     1f4:	a5 d4       	rcall	.+2378   	; 0xb40 <planner_recalculate+0x178>
     1f6:	e8 00       	.word	0x00e8	; ????
     1f8:	00 e8       	ldi	r16, 0x80	; 128
     1fa:	76 48       	sbci	r23, 0x86	; 134
     1fc:	17 00       	.word	0x0017	; ????
     1fe:	00 e4       	ldi	r16, 0x40	; 64
     200:	0b 54       	subi	r16, 0x4B	; 75
     202:	02 00       	.word	0x0002	; ????
     204:	00 ca       	rjmp	.-3072   	; 0xfffff606 <__eeprom_end+0xff7ef606>
     206:	9a 3b       	cpi	r25, 0xBA	; 186
     208:	00 00       	nop
     20a:	00 e1       	ldi	r16, 0x10	; 16
     20c:	f5 05       	cpc	r31, r5
     20e:	00 00       	nop
     210:	80 96       	adiw	r24, 0x20	; 32
     212:	98 00       	.word	0x0098	; ????
     214:	00 00       	nop
     216:	40 42       	sbci	r20, 0x20	; 32
     218:	0f 00       	.word	0x000f	; ????
     21a:	00 00       	nop
     21c:	a0 86       	std	Z+8, r10	; 0x08
     21e:	01 00       	.word	0x0001	; ????
     220:	00 00       	nop
     222:	10 27       	eor	r17, r16
     224:	00 00       	nop
     226:	00 00       	nop
     228:	e8 03       	fmulsu	r22, r16
     22a:	00 00       	nop
     22c:	00 00       	nop
     22e:	64 00       	.word	0x0064	; ????
     230:	00 00       	nop
     232:	00 00       	nop
     234:	0a 00       	.word	0x000a	; ????
     236:	00 00       	nop
     238:	00 00       	nop
     23a:	01 00       	.word	0x0001	; ????
     23c:	00 00       	nop
     23e:	00 00       	nop
     240:	2c 76       	andi	r18, 0x6C	; 108
     242:	d8 88       	ldd	r13, Y+16	; 0x10
     244:	dc 67       	ori	r29, 0x7C	; 124
     246:	4f 08       	sbc	r4, r15
     248:	23 df       	rcall	.-442    	; 0x90 <__SREG__+0x51>
     24a:	c1 df       	rcall	.-126    	; 0x1ce <__SREG__+0x18f>
     24c:	ae 59       	subi	r26, 0x9E	; 158
     24e:	e1 b1       	in	r30, 0x01	; 1
     250:	b7 96       	adiw	r30, 0x27	; 39
     252:	e5 e3       	ldi	r30, 0x35	; 53
     254:	e4 53       	subi	r30, 0x34	; 52
     256:	c6 3a       	cpi	r28, 0xA6	; 166
     258:	e6 51       	subi	r30, 0x16	; 22
     25a:	99 76       	andi	r25, 0x69	; 105
     25c:	96 e8       	ldi	r25, 0x86	; 134
     25e:	e6 c2       	rjmp	.+1484   	; 0x82c <mcu_init+0x3a>
     260:	84 26       	eor	r8, r20
     262:	eb 89       	ldd	r30, Y+19	; 0x13
     264:	8c 9b       	sbis	0x11, 4	; 17
     266:	62 ed       	ldi	r22, 0xD2	; 210
     268:	40 7c       	andi	r20, 0xC0	; 192
     26a:	6f fc       	.word	0xfc6f	; ????
     26c:	ef bc       	out	0x2f, r14	; 47
     26e:	9c 9f       	mul	r25, r28
     270:	40 f2       	brcs	.-112    	; 0x202 <__c.2332+0x20>
     272:	ba a5       	ldd	r27, Y+42	; 0x2a
     274:	6f a5       	ldd	r22, Y+47	; 0x2f
     276:	f4 90       	lpm	r15, Z
     278:	05 5a       	subi	r16, 0xA5	; 165
     27a:	2a f7       	brpl	.-54     	; 0x246 <__c.2332+0x64>
     27c:	5c 93       	st	X, r21
     27e:	6b 6c       	ori	r22, 0xCB	; 203
     280:	f9 67       	ori	r31, 0x79	; 121
     282:	6d c1       	rjmp	.+730    	; 0x55e <parser_get_comment+0x26>
     284:	1b fc       	.word	0xfc1b	; ????
     286:	e0 e4       	ldi	r30, 0x40	; 64
     288:	0d 47       	sbci	r16, 0x7D	; 125
     28a:	fe f5       	brtc	.+126    	; 0x30a <crc7_table+0x2a>
     28c:	20 e6       	ldi	r18, 0x60	; 96
     28e:	b5 00       	.word	0x00b5	; ????
     290:	d0 ed       	ldi	r29, 0xD0	; 208
     292:	90 2e       	mov	r9, r16
     294:	03 00       	.word	0x0003	; ????
     296:	94 35       	cpi	r25, 0x54	; 84
     298:	77 05       	cpc	r23, r7
     29a:	00 80       	ld	r0, Z
     29c:	84 1e       	adc	r8, r20
     29e:	08 00       	.word	0x0008	; ????
     2a0:	00 20       	and	r0, r0
     2a2:	4e 0a       	sbc	r4, r30
     2a4:	00 00       	nop
     2a6:	00 c8       	rjmp	.-4096   	; 0xfffff2a8 <__eeprom_end+0xff7ef2a8>
     2a8:	0c 33       	cpi	r16, 0x3C	; 60
     2aa:	33 33       	cpi	r19, 0x33	; 51
     2ac:	33 0f       	add	r19, r19
     2ae:	98 6e       	ori	r25, 0xE8	; 232
     2b0:	12 83       	std	Z+2, r17	; 0x02
     2b2:	11 41       	sbci	r17, 0x11	; 17
     2b4:	ef 8d       	ldd	r30, Y+31	; 0x1f
     2b6:	21 14       	cp	r2, r1
     2b8:	89 3b       	cpi	r24, 0xB9	; 185
     2ba:	e6 55       	subi	r30, 0x56	; 86
     2bc:	16 cf       	rjmp	.-468    	; 0xea <__SREG__+0xab>
     2be:	fe e6       	ldi	r31, 0x6E	; 110
     2c0:	db 18       	sub	r13, r11
     2c2:	d1 84       	ldd	r13, Z+9	; 0x09
     2c4:	4b 38       	cpi	r20, 0x8B	; 139
     2c6:	1b f7       	brvc	.-58     	; 0x28e <__c.2332+0xac>
     2c8:	7c 1d       	adc	r23, r12
     2ca:	90 1d       	adc	r25, r0
     2cc:	a4 bb       	out	0x14, r26	; 20
     2ce:	e4 24       	eor	r14, r4
     2d0:	20 32       	cpi	r18, 0x20	; 32
     2d2:	84 72       	andi	r24, 0x24	; 36
     2d4:	5e 22       	and	r5, r30
     2d6:	81 00       	.word	0x0081	; ????
     2d8:	c9 f1       	breq	.+114    	; 0x34c <crc7_table+0x6c>
     2da:	24 ec       	ldi	r18, 0xC4	; 196
     2dc:	a1 e5       	ldi	r26, 0x51	; 81
     2de:	3d 27       	eor	r19, r29

000002e0 <crc7_table>:
     2e0:	00 09       	sbc	r16, r0
     2e2:	12 1b       	sub	r17, r18
     2e4:	24 2d       	mov	r18, r4
     2e6:	36 3f       	cpi	r19, 0xF6	; 246
     2e8:	48 41       	sbci	r20, 0x18	; 24
     2ea:	5a 53       	subi	r21, 0x3A	; 58
     2ec:	6c 65       	ori	r22, 0x5C	; 92
     2ee:	7e 77       	andi	r23, 0x7E	; 126
     2f0:	19 10       	cpse	r1, r9
     2f2:	0b 02       	muls	r16, r27
     2f4:	3d 34       	cpi	r19, 0x4D	; 77
     2f6:	2f 26       	eor	r2, r31
     2f8:	51 58       	subi	r21, 0x81	; 129
     2fa:	43 4a       	sbci	r20, 0xA3	; 163
     2fc:	75 7c       	andi	r23, 0xC5	; 197
     2fe:	67 6e       	ori	r22, 0xE7	; 231
     300:	32 3b       	cpi	r19, 0xB2	; 178
     302:	20 29       	or	r18, r0
     304:	16 1f       	adc	r17, r22
     306:	04 0d       	add	r16, r4
     308:	7a 73       	andi	r23, 0x3A	; 58
     30a:	68 61       	ori	r22, 0x18	; 24
     30c:	5e 57       	subi	r21, 0x7E	; 126
     30e:	4c 45       	sbci	r20, 0x5C	; 92
     310:	2b 22       	and	r2, r27
     312:	39 30       	cpi	r19, 0x09	; 9
     314:	0f 06       	cpc	r0, r31
     316:	1d 14       	cp	r1, r13
     318:	63 6a       	ori	r22, 0xA3	; 163
     31a:	71 78       	andi	r23, 0x81	; 129
     31c:	47 4e       	sbci	r20, 0xE7	; 231
     31e:	55 5c       	subi	r21, 0xC5	; 197
     320:	64 6d       	ori	r22, 0xD4	; 212
     322:	76 7f       	andi	r23, 0xF6	; 246
     324:	40 49       	sbci	r20, 0x90	; 144
     326:	52 5b       	subi	r21, 0xB2	; 178
     328:	2c 25       	eor	r18, r12
     32a:	3e 37       	cpi	r19, 0x7E	; 126
     32c:	08 01       	movw	r0, r16
     32e:	1a 13       	cpse	r17, r26
     330:	7d 74       	andi	r23, 0x4D	; 77
     332:	6f 66       	ori	r22, 0x6F	; 111
     334:	59 50       	subi	r21, 0x09	; 9
     336:	4b 42       	sbci	r20, 0x2B	; 43
     338:	35 3c       	cpi	r19, 0xC5	; 197
     33a:	27 2e       	mov	r2, r23
     33c:	11 18       	sub	r1, r1
     33e:	03 0a       	sbc	r0, r19
     340:	56 5f       	subi	r21, 0xF6	; 246
     342:	44 4d       	sbci	r20, 0xD4	; 212
     344:	72 7b       	andi	r23, 0xB2	; 178
     346:	60 69       	ori	r22, 0x90	; 144
     348:	1e 17       	cp	r17, r30
     34a:	0c 05       	cpc	r16, r12
     34c:	3a 33       	cpi	r19, 0x3A	; 58
     34e:	28 21       	and	r18, r8
     350:	4f 46       	sbci	r20, 0x6F	; 111
     352:	5d 54       	subi	r21, 0x4D	; 77
     354:	6b 62       	ori	r22, 0x2B	; 43
     356:	79 70       	andi	r23, 0x09	; 9
     358:	07 0e       	add	r0, r23
     35a:	15 1c       	adc	r1, r5
     35c:	23 2a       	or	r2, r19
     35e:	31 38       	cpi	r19, 0x81	; 129
     360:	41 48       	sbci	r20, 0x81	; 129
     362:	53 5a       	subi	r21, 0xA3	; 163
     364:	65 6c       	ori	r22, 0xC5	; 197
     366:	77 7e       	andi	r23, 0xE7	; 231
     368:	09 00       	.word	0x0009	; ????
     36a:	1b 12       	cpse	r1, r27
     36c:	2d 24       	eor	r2, r13
     36e:	3f 36       	cpi	r19, 0x6F	; 111
     370:	58 51       	subi	r21, 0x18	; 24
     372:	4a 43       	sbci	r20, 0x3A	; 58
     374:	7c 75       	andi	r23, 0x5C	; 92
     376:	6e 67       	ori	r22, 0x7E	; 126
     378:	10 19       	sub	r17, r0
     37a:	02 0b       	sbc	r16, r18
     37c:	34 3d       	cpi	r19, 0xD4	; 212
     37e:	26 2f       	mov	r18, r22
     380:	73 7a       	andi	r23, 0xA3	; 163
     382:	61 68       	ori	r22, 0x81	; 129
     384:	57 5e       	subi	r21, 0xE7	; 231
     386:	45 4c       	sbci	r20, 0xC5	; 197
     388:	3b 32       	cpi	r19, 0x2B	; 43
     38a:	29 20       	and	r2, r9
     38c:	1f 16       	cp	r1, r31
     38e:	0d 04       	cpc	r0, r13
     390:	6a 63       	ori	r22, 0x3A	; 58
     392:	78 71       	andi	r23, 0x18	; 24
     394:	4e 47       	sbci	r20, 0x7E	; 126
     396:	5c 55       	subi	r21, 0x5C	; 92
     398:	22 2b       	or	r18, r18
     39a:	30 39       	cpi	r19, 0x90	; 144
     39c:	06 0f       	add	r16, r22
     39e:	14 1d       	adc	r17, r4
     3a0:	25 2c       	mov	r2, r5
     3a2:	37 3e       	cpi	r19, 0xE7	; 231
     3a4:	01 08       	sbc	r0, r1
     3a6:	13 1a       	sub	r1, r19
     3a8:	6d 64       	ori	r22, 0x4D	; 77
     3aa:	7f 76       	andi	r23, 0x6F	; 111
     3ac:	49 40       	sbci	r20, 0x09	; 9
     3ae:	5b 52       	subi	r21, 0x2B	; 43
     3b0:	3c 35       	cpi	r19, 0x5C	; 92
     3b2:	2e 27       	eor	r18, r30
     3b4:	18 11       	cpse	r17, r8
     3b6:	0a 03       	fmul	r16, r18
     3b8:	74 7d       	andi	r23, 0xD4	; 212
     3ba:	66 6f       	ori	r22, 0xF6	; 246
     3bc:	50 59       	subi	r21, 0x90	; 144
     3be:	42 4b       	sbci	r20, 0xB2	; 178
     3c0:	17 1e       	adc	r1, r23
     3c2:	05 0c       	add	r0, r5
     3c4:	33 3a       	cpi	r19, 0xA3	; 163
     3c6:	21 28       	or	r2, r1
     3c8:	5f 56       	subi	r21, 0x6F	; 111
     3ca:	4d 44       	sbci	r20, 0x4D	; 77
     3cc:	7b 72       	andi	r23, 0x2B	; 43
     3ce:	69 60       	ori	r22, 0x09	; 9
     3d0:	0e 07       	cpc	r16, r30
     3d2:	1c 15       	cp	r17, r12
     3d4:	2a 23       	and	r18, r26
     3d6:	38 31       	cpi	r19, 0x18	; 24
     3d8:	46 4f       	sbci	r20, 0xF6	; 246
     3da:	54 5d       	subi	r21, 0xD4	; 212
     3dc:	62 6b       	ori	r22, 0xB2	; 178
     3de:	70 79       	andi	r23, 0x90	; 144

000003e0 <__c.2012>:
     3e0:	65 72       	andi	r22, 0x25	; 37
     3e2:	72 6f       	ori	r23, 0xF2	; 242
     3e4:	72 3a       	cpi	r23, 0xA2	; 162
     3e6:	25 64       	ori	r18, 0x45	; 69
     3e8:	0d 00       	.word	0x000d	; ????

000003ea <__c.2152>:
     3ea:	50 6c       	ori	r21, 0xC0	; 192
     3ec:	61 6e       	ori	r22, 0xE1	; 225
     3ee:	6e 65       	ori	r22, 0x5E	; 94
     3f0:	72 20       	and	r7, r2
     3f2:	69 6e       	ori	r22, 0xE9	; 233
     3f4:	69 74       	andi	r22, 0x49	; 73
     3f6:	69 61       	ori	r22, 0x19	; 25
     3f8:	6c 69       	ori	r22, 0x9C	; 156
     3fa:	7a 65       	ori	r23, 0x5A	; 90
     3fc:	64 0a       	sbc	r6, r20
	...

000003ff <__c.2457>:
     3ff:	75 43       	sbci	r23, 0x35	; 53
     401:	4e 43       	sbci	r20, 0x3E	; 62
     403:	20 25       	eor	r18, r0
     405:	30 64       	ori	r19, 0x40	; 64
     407:	2e 25       	eor	r18, r14
     409:	30 30       	cpi	r19, 0x00	; 0
     40b:	64 25       	eor	r22, r4
     40d:	63 20       	and	r6, r3
     40f:	5b 27       	eor	r21, r27
     411:	24 27       	eor	r18, r20
     413:	20 66       	ori	r18, 0x60	; 96
     415:	6f 72       	andi	r22, 0x2F	; 47
     417:	20 68       	ori	r18, 0x80	; 128
     419:	65 6c       	ori	r22, 0xC5	; 197
     41b:	70 5d       	subi	r23, 0xD0	; 208
     41d:	0d 00       	.word	0x000d	; ????

0000041f <__c.2466>:
     41f:	65 72       	andi	r22, 0x25	; 37
     421:	72 6f       	ori	r23, 0xF2	; 242
     423:	72 3a       	cpi	r23, 0xA2	; 162
     425:	25 64       	ori	r18, 0x45	; 69
     427:	0d 00       	.word	0x000d	; ????

00000429 <__c.2464>:
     429:	6f 6b       	ori	r22, 0xBF	; 191
     42b:	0d 00       	.word	0x000d	; ????

0000042d <__c.2723>:
     42d:	6f 6b       	ori	r22, 0xBF	; 191
     42f:	0d 00       	.word	0x000d	; ????

00000431 <__c.2721>:
     431:	5b 47       	sbci	r21, 0x7B	; 123
     433:	43 3a       	cpi	r20, 0xA3	; 163
     435:	47 25       	eor	r20, r7
     437:	64 20       	and	r6, r4
     439:	47 25       	eor	r20, r7
     43b:	64 20       	and	r6, r4
     43d:	47 25       	eor	r20, r7
     43f:	64 20       	and	r6, r4
     441:	47 25       	eor	r20, r7
     443:	64 20       	and	r6, r4
     445:	47 25       	eor	r20, r7
     447:	64 20       	and	r6, r4
     449:	47 25       	eor	r20, r7
     44b:	64 20       	and	r6, r4
     44d:	47 25       	eor	r20, r7
     44f:	64 20       	and	r6, r4
     451:	47 25       	eor	r20, r7
     453:	64 20       	and	r6, r4
     455:	47 25       	eor	r20, r7
     457:	64 20       	and	r6, r4
     459:	47 25       	eor	r20, r7
     45b:	64 20       	and	r6, r4
     45d:	4d 25       	eor	r20, r13
     45f:	64 20       	and	r6, r4
     461:	4d 25       	eor	r20, r13
     463:	64 20       	and	r6, r4
     465:	54 25       	eor	r21, r4
     467:	64 20       	and	r6, r4
     469:	46 25       	eor	r20, r6
     46b:	66 20       	and	r6, r6
     46d:	53 25       	eor	r21, r3
     46f:	64 0d       	add	r22, r4
	...

00000472 <__ctors_end>:
     472:	11 24       	eor	r1, r1
     474:	1f be       	out	0x3f, r1	; 63
     476:	cf ef       	ldi	r28, 0xFF	; 255
     478:	d8 e0       	ldi	r29, 0x08	; 8
     47a:	de bf       	out	0x3e, r29	; 62
     47c:	cd bf       	out	0x3d, r28	; 61

0000047e <__do_clear_bss>:
     47e:	26 e0       	ldi	r18, 0x06	; 6
     480:	aa e0       	ldi	r26, 0x0A	; 10
     482:	b2 e0       	ldi	r27, 0x02	; 2
     484:	01 c0       	rjmp	.+2      	; 0x488 <.do_clear_bss_start>

00000486 <.do_clear_bss_loop>:
     486:	1d 92       	st	X+, r1

00000488 <.do_clear_bss_start>:
     488:	a9 36       	cpi	r26, 0x69	; 105
     48a:	b2 07       	cpc	r27, r18
     48c:	e1 f7       	brne	.-8      	; 0x486 <.do_clear_bss_loop>

0000048e <__do_copy_data>:
     48e:	12 e0       	ldi	r17, 0x02	; 2
     490:	a0 e0       	ldi	r26, 0x00	; 0
     492:	b1 e0       	ldi	r27, 0x01	; 1
     494:	e4 e7       	ldi	r30, 0x74	; 116
     496:	fa e3       	ldi	r31, 0x3A	; 58
     498:	02 c0       	rjmp	.+4      	; 0x49e <__do_copy_data+0x10>
     49a:	05 90       	lpm	r0, Z+
     49c:	0d 92       	st	X+, r0
     49e:	aa 30       	cpi	r26, 0x0A	; 10
     4a0:	b1 07       	cpc	r27, r17
     4a2:	d9 f7       	brne	.-10     	; 0x49a <__do_copy_data+0xc>
     4a4:	0e 94 b3 13 	call	0x2766	; 0x2766 <main>
     4a8:	0c 94 38 1d 	jmp	0x3a70	; 0x3a70 <_exit>

000004ac <__bad_interrupt>:
     4ac:	0c 94 00 00 	jmp	0	; 0x0 <__vectors>

000004b0 <protocol_peek>:
     4b0:	80 91 11 06 	lds	r24, 0x0611	; 0x800611 <protocol_cmd_available>
     4b4:	88 23       	and	r24, r24
     4b6:	19 f0       	breq	.+6      	; 0x4be <protocol_peek+0xe>
     4b8:	80 91 92 05 	lds	r24, 0x0592	; 0x800592 <protocol_cmd_buffer+0x1>
     4bc:	08 95       	ret
     4be:	80 e0       	ldi	r24, 0x00	; 0
     4c0:	08 95       	ret

000004c2 <protocol_getc>:
     4c2:	80 91 11 06 	lds	r24, 0x0611	; 0x800611 <protocol_cmd_available>
     4c6:	88 23       	and	r24, r24
     4c8:	89 f0       	breq	.+34     	; 0x4ec <protocol_getc+0x2a>
     4ca:	90 91 90 05 	lds	r25, 0x0590	; 0x800590 <index.1990>
     4ce:	e9 2f       	mov	r30, r25
     4d0:	f0 e0       	ldi	r31, 0x00	; 0
     4d2:	ef 56       	subi	r30, 0x6F	; 111
     4d4:	fa 4f       	sbci	r31, 0xFA	; 250
     4d6:	80 81       	ld	r24, Z
     4d8:	9f 5f       	subi	r25, 0xFF	; 255
     4da:	90 93 90 05 	sts	0x0590, r25	; 0x800590 <index.1990>
     4de:	8d 30       	cpi	r24, 0x0D	; 13
     4e0:	31 f4       	brne	.+12     	; 0x4ee <protocol_getc+0x2c>
     4e2:	10 92 11 06 	sts	0x0611, r1	; 0x800611 <protocol_cmd_available>
     4e6:	10 92 90 05 	sts	0x0590, r1	; 0x800590 <index.1990>
     4ea:	08 95       	ret
     4ec:	80 e0       	ldi	r24, 0x00	; 0
     4ee:	08 95       	ret

000004f0 <protocol_received_cmd>:
     4f0:	80 91 11 06 	lds	r24, 0x0611	; 0x800611 <protocol_cmd_available>
     4f4:	08 95       	ret

000004f6 <protocol_read_char>:
     4f6:	cf 93       	push	r28
     4f8:	df 93       	push	r29
     4fa:	1f 92       	push	r1
     4fc:	cd b7       	in	r28, 0x3d	; 61
     4fe:	de b7       	in	r29, 0x3e	; 62
     500:	89 83       	std	Y+1, r24	; 0x01
     502:	e0 91 8f 05 	lds	r30, 0x058F	; 0x80058f <index.1979>
     506:	ae 2f       	mov	r26, r30
     508:	b0 e0       	ldi	r27, 0x00	; 0
     50a:	89 81       	ldd	r24, Y+1	; 0x01
     50c:	af 56       	subi	r26, 0x6F	; 111
     50e:	ba 4f       	sbci	r27, 0xFA	; 250
     510:	8c 93       	st	X, r24
     512:	ef 5f       	subi	r30, 0xFF	; 255
     514:	e0 93 8f 05 	sts	0x058F, r30	; 0x80058f <index.1979>
     518:	89 81       	ldd	r24, Y+1	; 0x01
     51a:	8d 30       	cpi	r24, 0x0D	; 13
     51c:	49 f4       	brne	.+18     	; 0x530 <protocol_read_char+0x3a>
     51e:	f0 e0       	ldi	r31, 0x00	; 0
     520:	ef 56       	subi	r30, 0x6F	; 111
     522:	fa 4f       	sbci	r31, 0xFA	; 250
     524:	10 82       	st	Z, r1
     526:	81 e0       	ldi	r24, 0x01	; 1
     528:	80 93 11 06 	sts	0x0611, r24	; 0x800611 <protocol_cmd_available>
     52c:	10 92 8f 05 	sts	0x058F, r1	; 0x80058f <index.1979>
     530:	0f 90       	pop	r0
     532:	df 91       	pop	r29
     534:	cf 91       	pop	r28
     536:	08 95       	ret

00000538 <parser_get_comment>:
     538:	cf 93       	push	r28
     53a:	c1 e0       	ldi	r28, 0x01	; 1
     53c:	0e 94 58 02 	call	0x4b0	; 0x4b0 <protocol_peek>
     540:	8d 30       	cpi	r24, 0x0D	; 13
     542:	a1 f0       	breq	.+40     	; 0x56c <parser_get_comment+0x34>
     544:	1c f4       	brge	.+6      	; 0x54c <parser_get_comment+0x14>
     546:	8a 30       	cpi	r24, 0x0A	; 10
     548:	89 f0       	breq	.+34     	; 0x56c <parser_get_comment+0x34>
     54a:	0d c0       	rjmp	.+26     	; 0x566 <parser_get_comment+0x2e>
     54c:	88 32       	cpi	r24, 0x28	; 40
     54e:	19 f0       	breq	.+6      	; 0x556 <parser_get_comment+0x1e>
     550:	89 32       	cpi	r24, 0x29	; 41
     552:	19 f0       	breq	.+6      	; 0x55a <parser_get_comment+0x22>
     554:	08 c0       	rjmp	.+16     	; 0x566 <parser_get_comment+0x2e>
     556:	cf 5f       	subi	r28, 0xFF	; 255
     558:	06 c0       	rjmp	.+12     	; 0x566 <parser_get_comment+0x2e>
     55a:	c1 50       	subi	r28, 0x01	; 1
     55c:	21 f4       	brne	.+8      	; 0x566 <parser_get_comment+0x2e>
     55e:	0e 94 61 02 	call	0x4c2	; 0x4c2 <protocol_getc>
     562:	81 e0       	ldi	r24, 0x01	; 1
     564:	04 c0       	rjmp	.+8      	; 0x56e <parser_get_comment+0x36>
     566:	0e 94 61 02 	call	0x4c2	; 0x4c2 <protocol_getc>
     56a:	e8 cf       	rjmp	.-48     	; 0x53c <parser_get_comment+0x4>
     56c:	80 e0       	ldi	r24, 0x00	; 0
     56e:	cf 91       	pop	r28
     570:	08 95       	ret

00000572 <parser_get_float>:
     572:	8f 92       	push	r8
     574:	9f 92       	push	r9
     576:	af 92       	push	r10
     578:	bf 92       	push	r11
     57a:	df 92       	push	r13
     57c:	ef 92       	push	r14
     57e:	ff 92       	push	r15
     580:	0f 93       	push	r16
     582:	1f 93       	push	r17
     584:	cf 93       	push	r28
     586:	df 93       	push	r29
     588:	8c 01       	movw	r16, r24
     58a:	7b 01       	movw	r14, r22
     58c:	0e 94 58 02 	call	0x4b0	; 0x4b0 <protocol_peek>
     590:	8d 32       	cpi	r24, 0x2D	; 45
     592:	31 f4       	brne	.+12     	; 0x5a0 <parser_get_float+0x2e>
     594:	0e 94 61 02 	call	0x4c2	; 0x4c2 <protocol_getc>
     598:	d0 e0       	ldi	r29, 0x00	; 0
     59a:	dd 24       	eor	r13, r13
     59c:	d3 94       	inc	r13
     59e:	10 c0       	rjmp	.+32     	; 0x5c0 <parser_get_float+0x4e>
     5a0:	8b 32       	cpi	r24, 0x2B	; 43
     5a2:	29 f4       	brne	.+10     	; 0x5ae <parser_get_float+0x3c>
     5a4:	0e 94 61 02 	call	0x4c2	; 0x4c2 <protocol_getc>
     5a8:	d0 e0       	ldi	r29, 0x00	; 0
     5aa:	d1 2c       	mov	r13, r1
     5ac:	09 c0       	rjmp	.+18     	; 0x5c0 <parser_get_float+0x4e>
     5ae:	8e 32       	cpi	r24, 0x2E	; 46
     5b0:	29 f4       	brne	.+10     	; 0x5bc <parser_get_float+0x4a>
     5b2:	0e 94 61 02 	call	0x4c2	; 0x4c2 <protocol_getc>
     5b6:	d1 e0       	ldi	r29, 0x01	; 1
     5b8:	d1 2c       	mov	r13, r1
     5ba:	02 c0       	rjmp	.+4      	; 0x5c0 <parser_get_float+0x4e>
     5bc:	d0 e0       	ldi	r29, 0x00	; 0
     5be:	d1 2c       	mov	r13, r1
     5c0:	c0 e0       	ldi	r28, 0x00	; 0
     5c2:	81 2c       	mov	r8, r1
     5c4:	91 2c       	mov	r9, r1
     5c6:	54 01       	movw	r10, r8
     5c8:	0e 94 58 02 	call	0x4b0	; 0x4b0 <protocol_peek>
     5cc:	8e 51       	subi	r24, 0x1E	; 30
     5ce:	8a 30       	cpi	r24, 0x0A	; 10
     5d0:	e0 f4       	brcc	.+56     	; 0x60a <parser_get_float+0x98>
     5d2:	b5 01       	movw	r22, r10
     5d4:	a4 01       	movw	r20, r8
     5d6:	44 0f       	add	r20, r20
     5d8:	55 1f       	adc	r21, r21
     5da:	66 1f       	adc	r22, r22
     5dc:	77 1f       	adc	r23, r23
     5de:	44 0f       	add	r20, r20
     5e0:	55 1f       	adc	r21, r21
     5e2:	66 1f       	adc	r22, r22
     5e4:	77 1f       	adc	r23, r23
     5e6:	48 0d       	add	r20, r8
     5e8:	59 1d       	adc	r21, r9
     5ea:	6a 1d       	adc	r22, r10
     5ec:	7b 1d       	adc	r23, r11
     5ee:	44 0f       	add	r20, r20
     5f0:	55 1f       	adc	r21, r21
     5f2:	66 1f       	adc	r22, r22
     5f4:	77 1f       	adc	r23, r23
     5f6:	4a 01       	movw	r8, r20
     5f8:	5b 01       	movw	r10, r22
     5fa:	88 0e       	add	r8, r24
     5fc:	91 1c       	adc	r9, r1
     5fe:	a1 1c       	adc	r10, r1
     600:	b1 1c       	adc	r11, r1
     602:	dd 23       	and	r29, r29
     604:	89 f0       	breq	.+34     	; 0x628 <parser_get_float+0xb6>
     606:	cf 5f       	subi	r28, 0xFF	; 255
     608:	0f c0       	rjmp	.+30     	; 0x628 <parser_get_float+0xb6>
     60a:	8e 32       	cpi	r24, 0x2E	; 46
     60c:	11 f4       	brne	.+4      	; 0x612 <parser_get_float+0xa0>
     60e:	dd 23       	and	r29, r29
     610:	51 f0       	breq	.+20     	; 0x626 <parser_get_float+0xb4>
     612:	c5 01       	movw	r24, r10
     614:	b4 01       	movw	r22, r8
     616:	0e 94 1c 1a 	call	0x3438	; 0x3438 <__floatunsisf>
     61a:	f8 01       	movw	r30, r16
     61c:	60 83       	st	Z, r22
     61e:	71 83       	std	Z+1, r23	; 0x01
     620:	82 83       	std	Z+2, r24	; 0x02
     622:	93 83       	std	Z+3, r25	; 0x03
     624:	04 c0       	rjmp	.+8      	; 0x62e <parser_get_float+0xbc>
     626:	d1 e0       	ldi	r29, 0x01	; 1
     628:	0e 94 61 02 	call	0x4c2	; 0x4c2 <protocol_getc>
     62c:	cd cf       	rjmp	.-102    	; 0x5c8 <parser_get_float+0x56>
     62e:	c3 30       	cpi	r28, 0x03	; 3
     630:	88 f0       	brcs	.+34     	; 0x654 <parser_get_float+0xe2>
     632:	2f e6       	ldi	r18, 0x6F	; 111
     634:	32 e1       	ldi	r19, 0x12	; 18
     636:	43 e8       	ldi	r20, 0x83	; 131
     638:	5a e3       	ldi	r21, 0x3A	; 58
     63a:	f8 01       	movw	r30, r16
     63c:	60 81       	ld	r22, Z
     63e:	71 81       	ldd	r23, Z+1	; 0x01
     640:	82 81       	ldd	r24, Z+2	; 0x02
     642:	93 81       	ldd	r25, Z+3	; 0x03
     644:	0e 94 d3 1a 	call	0x35a6	; 0x35a6 <__mulsf3>
     648:	f8 01       	movw	r30, r16
     64a:	60 83       	st	Z, r22
     64c:	71 83       	std	Z+1, r23	; 0x01
     64e:	82 83       	std	Z+2, r24	; 0x02
     650:	93 83       	std	Z+3, r25	; 0x03
     652:	c3 50       	subi	r28, 0x03	; 3
     654:	c2 30       	cpi	r28, 0x02	; 2
     656:	88 f0       	brcs	.+34     	; 0x67a <parser_get_float+0x108>
     658:	2a e0       	ldi	r18, 0x0A	; 10
     65a:	37 ed       	ldi	r19, 0xD7	; 215
     65c:	43 e2       	ldi	r20, 0x23	; 35
     65e:	5c e3       	ldi	r21, 0x3C	; 60
     660:	f8 01       	movw	r30, r16
     662:	60 81       	ld	r22, Z
     664:	71 81       	ldd	r23, Z+1	; 0x01
     666:	82 81       	ldd	r24, Z+2	; 0x02
     668:	93 81       	ldd	r25, Z+3	; 0x03
     66a:	0e 94 d3 1a 	call	0x35a6	; 0x35a6 <__mulsf3>
     66e:	f8 01       	movw	r30, r16
     670:	60 83       	st	Z, r22
     672:	71 83       	std	Z+1, r23	; 0x01
     674:	82 83       	std	Z+2, r24	; 0x02
     676:	93 83       	std	Z+3, r25	; 0x03
     678:	c2 50       	subi	r28, 0x02	; 2
     67a:	cc 23       	and	r28, r28
     67c:	89 f0       	breq	.+34     	; 0x6a0 <parser_get_float+0x12e>
     67e:	2d ec       	ldi	r18, 0xCD	; 205
     680:	3c ec       	ldi	r19, 0xCC	; 204
     682:	4c ec       	ldi	r20, 0xCC	; 204
     684:	5d e3       	ldi	r21, 0x3D	; 61
     686:	f8 01       	movw	r30, r16
     688:	60 81       	ld	r22, Z
     68a:	71 81       	ldd	r23, Z+1	; 0x01
     68c:	82 81       	ldd	r24, Z+2	; 0x02
     68e:	93 81       	ldd	r25, Z+3	; 0x03
     690:	0e 94 d3 1a 	call	0x35a6	; 0x35a6 <__mulsf3>
     694:	f8 01       	movw	r30, r16
     696:	60 83       	st	Z, r22
     698:	71 83       	std	Z+1, r23	; 0x01
     69a:	82 83       	std	Z+2, r24	; 0x02
     69c:	93 83       	std	Z+3, r25	; 0x03
     69e:	c1 50       	subi	r28, 0x01	; 1
     6a0:	c1 11       	cpse	r28, r1
     6a2:	c5 cf       	rjmp	.-118    	; 0x62e <parser_get_float+0xbc>
     6a4:	81 e0       	ldi	r24, 0x01	; 1
     6a6:	d8 27       	eor	r29, r24
     6a8:	f7 01       	movw	r30, r14
     6aa:	d0 83       	st	Z, r29
     6ac:	dd 20       	and	r13, r13
     6ae:	51 f0       	breq	.+20     	; 0x6c4 <parser_get_float+0x152>
     6b0:	f8 01       	movw	r30, r16
     6b2:	80 81       	ld	r24, Z
     6b4:	91 81       	ldd	r25, Z+1	; 0x01
     6b6:	a2 81       	ldd	r26, Z+2	; 0x02
     6b8:	b3 81       	ldd	r27, Z+3	; 0x03
     6ba:	b0 58       	subi	r27, 0x80	; 128
     6bc:	80 83       	st	Z, r24
     6be:	91 83       	std	Z+1, r25	; 0x01
     6c0:	a2 83       	std	Z+2, r26	; 0x02
     6c2:	b3 83       	std	Z+3, r27	; 0x03
     6c4:	80 e0       	ldi	r24, 0x00	; 0
     6c6:	df 91       	pop	r29
     6c8:	cf 91       	pop	r28
     6ca:	1f 91       	pop	r17
     6cc:	0f 91       	pop	r16
     6ce:	ff 90       	pop	r15
     6d0:	ef 90       	pop	r14
     6d2:	df 90       	pop	r13
     6d4:	bf 90       	pop	r11
     6d6:	af 90       	pop	r10
     6d8:	9f 90       	pop	r9
     6da:	8f 90       	pop	r8
     6dc:	08 95       	ret

000006de <mcu_eeprom_getc>:
     6de:	08 95       	ret

000006e0 <mcu_attachOnStepReset>:
     6e0:	90 93 9f 04 	sts	0x049F, r25	; 0x80049f <g_mcu_stepResetCallback+0x1>
     6e4:	80 93 9e 04 	sts	0x049E, r24	; 0x80049e <g_mcu_stepResetCallback>
     6e8:	08 95       	ret

000006ea <mcu_attachOnStep>:
     6ea:	90 93 9d 04 	sts	0x049D, r25	; 0x80049d <g_mcu_stepCallback+0x1>
     6ee:	80 93 9c 04 	sts	0x049C, r24	; 0x80049c <g_mcu_stepCallback>
     6f2:	08 95       	ret

000006f4 <mcu_stopStepISR>:
     6f4:	10 92 81 00 	sts	0x0081, r1	; 0x800081 <__TEXT_REGION_LENGTH__+0x7e0081>
     6f8:	ef e6       	ldi	r30, 0x6F	; 111
     6fa:	f0 e0       	ldi	r31, 0x00	; 0
     6fc:	80 81       	ld	r24, Z
     6fe:	89 7f       	andi	r24, 0xF9	; 249
     700:	80 83       	st	Z, r24
     702:	08 95       	ret

00000704 <mcu_changeStepISR>:
     704:	e1 e8       	ldi	r30, 0x81	; 129
     706:	f0 e0       	ldi	r31, 0x00	; 0
     708:	10 82       	st	Z, r1
     70a:	a8 e8       	ldi	r26, 0x88	; 136
     70c:	b0 e0       	ldi	r27, 0x00	; 0
     70e:	11 96       	adiw	r26, 0x01	; 1
     710:	9c 93       	st	X, r25
     712:	8e 93       	st	-X, r24
     714:	8d 91       	ld	r24, X+
     716:	9c 91       	ld	r25, X
     718:	96 95       	lsr	r25
     71a:	87 95       	ror	r24
     71c:	90 93 8b 00 	sts	0x008B, r25	; 0x80008b <__TEXT_REGION_LENGTH__+0x7e008b>
     720:	80 93 8a 00 	sts	0x008A, r24	; 0x80008a <__TEXT_REGION_LENGTH__+0x7e008a>
     724:	10 92 85 00 	sts	0x0085, r1	; 0x800085 <__TEXT_REGION_LENGTH__+0x7e0085>
     728:	10 92 84 00 	sts	0x0084, r1	; 0x800084 <__TEXT_REGION_LENGTH__+0x7e0084>
     72c:	60 83       	st	Z, r22
     72e:	08 95       	ret

00000730 <mcu_startStepISR>:
     730:	e1 e8       	ldi	r30, 0x81	; 129
     732:	f0 e0       	ldi	r31, 0x00	; 0
     734:	10 82       	st	Z, r1
     736:	10 92 80 00 	sts	0x0080, r1	; 0x800080 <__TEXT_REGION_LENGTH__+0x7e0080>
     73a:	10 92 85 00 	sts	0x0085, r1	; 0x800085 <__TEXT_REGION_LENGTH__+0x7e0085>
     73e:	10 92 84 00 	sts	0x0084, r1	; 0x800084 <__TEXT_REGION_LENGTH__+0x7e0084>
     742:	a8 e8       	ldi	r26, 0x88	; 136
     744:	b0 e0       	ldi	r27, 0x00	; 0
     746:	11 96       	adiw	r26, 0x01	; 1
     748:	9c 93       	st	X, r25
     74a:	8e 93       	st	-X, r24
     74c:	8d 91       	ld	r24, X+
     74e:	9c 91       	ld	r25, X
     750:	96 95       	lsr	r25
     752:	87 95       	ror	r24
     754:	90 93 8b 00 	sts	0x008B, r25	; 0x80008b <__TEXT_REGION_LENGTH__+0x7e008b>
     758:	80 93 8a 00 	sts	0x008A, r24	; 0x80008a <__TEXT_REGION_LENGTH__+0x7e008a>
     75c:	16 ba       	out	0x16, r1	; 22
     75e:	af e6       	ldi	r26, 0x6F	; 111
     760:	b0 e0       	ldi	r27, 0x00	; 0
     762:	8c 91       	ld	r24, X
     764:	86 60       	ori	r24, 0x06	; 6
     766:	8c 93       	st	X, r24
     768:	60 83       	st	Z, r22
     76a:	08 95       	ret

0000076c <mcu_attachOnSentChar>:
     76c:	90 93 9b 04 	sts	0x049B, r25	; 0x80049b <g_mcu_rs232TxCallback+0x1>
     770:	80 93 9a 04 	sts	0x049A, r24	; 0x80049a <g_mcu_rs232TxCallback>
     774:	08 95       	ret

00000776 <mcu_attachOnReadChar>:
     776:	90 93 99 04 	sts	0x0499, r25	; 0x800499 <g_mcu_rs232RxCallback+0x1>
     77a:	80 93 98 04 	sts	0x0498, r24	; 0x800498 <g_mcu_rs232RxCallback>
     77e:	08 95       	ret

00000780 <mcu_putc>:
     780:	90 91 c0 00 	lds	r25, 0x00C0	; 0x8000c0 <__TEXT_REGION_LENGTH__+0x7e00c0>
     784:	95 ff       	sbrs	r25, 5
     786:	fc cf       	rjmp	.-8      	; 0x780 <mcu_putc>
     788:	80 93 c6 00 	sts	0x00C6, r24	; 0x8000c6 <__TEXT_REGION_LENGTH__+0x7e00c6>
     78c:	08 95       	ret

0000078e <protocol_write_char>:
     78e:	e0 91 fe 01 	lds	r30, 0x01FE	; 0x8001fe <index.1982>
     792:	91 e0       	ldi	r25, 0x01	; 1
     794:	9e 0f       	add	r25, r30
     796:	90 93 fe 01 	sts	0x01FE, r25	; 0x8001fe <index.1982>
     79a:	f0 e0       	ldi	r31, 0x00	; 0
     79c:	ee 5e       	subi	r30, 0xEE	; 238
     79e:	f9 4f       	sbci	r31, 0xF9	; 249
     7a0:	80 81       	ld	r24, Z
     7a2:	81 11       	cpse	r24, r1
     7a4:	06 c0       	rjmp	.+12     	; 0x7b2 <protocol_write_char+0x24>
     7a6:	10 92 52 06 	sts	0x0652, r1	; 0x800652 <protocol_send_busy>
     7aa:	81 e0       	ldi	r24, 0x01	; 1
     7ac:	80 93 fe 01 	sts	0x01FE, r24	; 0x8001fe <index.1982>
     7b0:	08 95       	ret
     7b2:	8a 30       	cpi	r24, 0x0A	; 10
     7b4:	11 f0       	breq	.+4      	; 0x7ba <protocol_write_char+0x2c>
     7b6:	8d 30       	cpi	r24, 0x0D	; 13
     7b8:	31 f4       	brne	.+12     	; 0x7c6 <protocol_write_char+0x38>
     7ba:	e9 2f       	mov	r30, r25
     7bc:	f0 e0       	ldi	r31, 0x00	; 0
     7be:	ee 5e       	subi	r30, 0xEE	; 238
     7c0:	f9 4f       	sbci	r31, 0xF9	; 249
     7c2:	10 82       	st	Z, r1
     7c4:	8d e0       	ldi	r24, 0x0D	; 13
     7c6:	0e 94 c0 03 	call	0x780	; 0x780 <mcu_putc>
     7ca:	08 95       	ret

000007cc <mcu_putchar>:
     7cc:	cf 93       	push	r28
     7ce:	c8 2f       	mov	r28, r24
     7d0:	0e 94 c0 03 	call	0x780	; 0x780 <mcu_putc>
     7d4:	8c 2f       	mov	r24, r28
     7d6:	cc 0f       	add	r28, r28
     7d8:	99 0b       	sbc	r25, r25
     7da:	cf 91       	pop	r28
     7dc:	08 95       	ret

000007de <mcu_setDirs>:
     7de:	98 b1       	in	r25, 0x08	; 8
     7e0:	97 7c       	andi	r25, 0xC7	; 199
     7e2:	89 2b       	or	r24, r25
     7e4:	88 b9       	out	0x08, r24	; 8
     7e6:	08 95       	ret

000007e8 <mcu_setSteps>:
     7e8:	98 b1       	in	r25, 0x08	; 8
     7ea:	98 7f       	andi	r25, 0xF8	; 248
     7ec:	89 2b       	or	r24, r25
     7ee:	88 b9       	out	0x08, r24	; 8
     7f0:	08 95       	ret

000007f2 <mcu_init>:
     7f2:	10 92 9d 04 	sts	0x049D, r1	; 0x80049d <g_mcu_stepCallback+0x1>
     7f6:	10 92 9c 04 	sts	0x049C, r1	; 0x80049c <g_mcu_stepCallback>
     7fa:	10 92 9f 04 	sts	0x049F, r1	; 0x80049f <g_mcu_stepResetCallback+0x1>
     7fe:	10 92 9e 04 	sts	0x049E, r1	; 0x80049e <g_mcu_stepResetCallback>
     802:	10 92 97 04 	sts	0x0497, r1	; 0x800497 <mcu_limit_trigger_callback+0x1>
     806:	10 92 96 04 	sts	0x0496, r1	; 0x800496 <mcu_limit_trigger_callback>
     80a:	10 92 99 04 	sts	0x0499, r1	; 0x800499 <g_mcu_rs232RxCallback+0x1>
     80e:	10 92 98 04 	sts	0x0498, r1	; 0x800498 <g_mcu_rs232RxCallback>
     812:	10 92 9b 04 	sts	0x049B, r1	; 0x80049b <g_mcu_rs232TxCallback+0x1>
     816:	10 92 9a 04 	sts	0x049A, r1	; 0x80049a <g_mcu_rs232TxCallback>
     81a:	a8 95       	wdr
     81c:	84 b7       	in	r24, 0x34	; 52
     81e:	87 7f       	andi	r24, 0xF7	; 247
     820:	84 bf       	out	0x34, r24	; 52
     822:	e0 e6       	ldi	r30, 0x60	; 96
     824:	f0 e0       	ldi	r31, 0x00	; 0
     826:	80 81       	ld	r24, Z
     828:	88 61       	ori	r24, 0x18	; 24
     82a:	80 83       	st	Z, r24
     82c:	10 82       	st	Z, r1
     82e:	1a b8       	out	0x0a, r1	; 10
     830:	1a b8       	out	0x0a, r1	; 10
     832:	1a b8       	out	0x0a, r1	; 10
     834:	1a b8       	out	0x0a, r1	; 10
     836:	1b b8       	out	0x0b, r1	; 11
     838:	1b b8       	out	0x0b, r1	; 11
     83a:	1b b8       	out	0x0b, r1	; 11
     83c:	87 b1       	in	r24, 0x07	; 7
     83e:	87 60       	ori	r24, 0x07	; 7
     840:	87 b9       	out	0x07, r24	; 7
     842:	87 b1       	in	r24, 0x07	; 7
     844:	88 63       	ori	r24, 0x38	; 56
     846:	87 b9       	out	0x07, r24	; 7
     848:	8a b1       	in	r24, 0x0a	; 10
     84a:	82 60       	ori	r24, 0x02	; 2
     84c:	8a b9       	out	0x0a, r24	; 10
     84e:	10 92 92 04 	sts	0x0492, r1	; 0x800492 <g_mcu_inputs>
     852:	10 92 93 04 	sts	0x0493, r1	; 0x800493 <g_mcu_inputs+0x1>
     856:	10 92 94 04 	sts	0x0494, r1	; 0x800494 <g_mcu_inputs+0x2>
     85a:	10 92 95 04 	sts	0x0495, r1	; 0x800495 <g_mcu_inputs+0x3>
     85e:	89 b1       	in	r24, 0x09	; 9
     860:	80 93 94 04 	sts	0x0494, r24	; 0x800494 <g_mcu_inputs+0x2>
     864:	8a b1       	in	r24, 0x0a	; 10
     866:	10 92 91 04 	sts	0x0491, r1	; 0x800491 <g_mcu_rxhead>
     86a:	10 92 90 04 	sts	0x0490, r1	; 0x800490 <g_mcu_rxcount>
     86e:	80 ef       	ldi	r24, 0xF0	; 240
     870:	91 e0       	ldi	r25, 0x01	; 1
     872:	90 93 62 06 	sts	0x0662, r25	; 0x800662 <__iob+0x3>
     876:	80 93 61 06 	sts	0x0661, r24	; 0x800661 <__iob+0x2>
     87a:	e0 ec       	ldi	r30, 0xC0	; 192
     87c:	f0 e0       	ldi	r31, 0x00	; 0
     87e:	80 81       	ld	r24, Z
     880:	8d 7f       	andi	r24, 0xFD	; 253
     882:	80 83       	st	Z, r24
     884:	10 92 c5 00 	sts	0x00C5, r1	; 0x8000c5 <__TEXT_REGION_LENGTH__+0x7e00c5>
     888:	87 e6       	ldi	r24, 0x67	; 103
     88a:	80 93 c4 00 	sts	0x00C4, r24	; 0x8000c4 <__TEXT_REGION_LENGTH__+0x7e00c4>
     88e:	e1 ec       	ldi	r30, 0xC1	; 193
     890:	f0 e0       	ldi	r31, 0x00	; 0
     892:	80 81       	ld	r24, Z
     894:	88 69       	ori	r24, 0x98	; 152
     896:	80 83       	st	Z, r24
     898:	78 94       	sei
     89a:	08 95       	ret

0000089c <buffer_get_next>:
     89c:	fc 01       	movw	r30, r24
     89e:	80 81       	ld	r24, Z
     8a0:	91 81       	ldd	r25, Z+1	; 0x01
     8a2:	a5 81       	ldd	r26, Z+5	; 0x05
     8a4:	24 81       	ldd	r18, Z+4	; 0x04
     8a6:	30 e0       	ldi	r19, 0x00	; 0
     8a8:	21 50       	subi	r18, 0x01	; 1
     8aa:	31 09       	sbc	r19, r1
     8ac:	a2 9f       	mul	r26, r18
     8ae:	a0 01       	movw	r20, r0
     8b0:	a3 9f       	mul	r26, r19
     8b2:	50 0d       	add	r21, r0
     8b4:	11 24       	eor	r1, r1
     8b6:	9c 01       	movw	r18, r24
     8b8:	24 0f       	add	r18, r20
     8ba:	35 1f       	adc	r19, r21
     8bc:	26 17       	cp	r18, r22
     8be:	37 07       	cpc	r19, r23
     8c0:	19 f0       	breq	.+6      	; 0x8c8 <buffer_get_next+0x2c>
     8c2:	cb 01       	movw	r24, r22
     8c4:	8a 0f       	add	r24, r26
     8c6:	91 1d       	adc	r25, r1
     8c8:	08 95       	ret

000008ca <is_buffer_empty>:
     8ca:	fc 01       	movw	r30, r24
     8cc:	87 81       	ldd	r24, Z+7	; 0x07
     8ce:	08 95       	ret

000008d0 <buffer_get_first>:
     8d0:	cf 93       	push	r28
     8d2:	df 93       	push	r29
     8d4:	ec 01       	movw	r28, r24
     8d6:	0e 94 65 04 	call	0x8ca	; 0x8ca <is_buffer_empty>
     8da:	81 11       	cpse	r24, r1
     8dc:	09 c0       	rjmp	.+18     	; 0x8f0 <buffer_get_first+0x20>
     8de:	88 81       	ld	r24, Y
     8e0:	99 81       	ldd	r25, Y+1	; 0x01
     8e2:	3d 81       	ldd	r19, Y+5	; 0x05
     8e4:	2b 81       	ldd	r18, Y+3	; 0x03
     8e6:	32 9f       	mul	r19, r18
     8e8:	80 0d       	add	r24, r0
     8ea:	91 1d       	adc	r25, r1
     8ec:	11 24       	eor	r1, r1
     8ee:	02 c0       	rjmp	.+4      	; 0x8f4 <buffer_get_first+0x24>
     8f0:	80 e0       	ldi	r24, 0x00	; 0
     8f2:	90 e0       	ldi	r25, 0x00	; 0
     8f4:	df 91       	pop	r29
     8f6:	cf 91       	pop	r28
     8f8:	08 95       	ret

000008fa <buffer_get_prev>:
     8fa:	0f 93       	push	r16
     8fc:	1f 93       	push	r17
     8fe:	cf 93       	push	r28
     900:	df 93       	push	r29
     902:	8c 01       	movw	r16, r24
     904:	eb 01       	movw	r28, r22
     906:	0e 94 68 04 	call	0x8d0	; 0x8d0 <buffer_get_first>
     90a:	c8 17       	cp	r28, r24
     90c:	d9 07       	cpc	r29, r25
     90e:	d1 f0       	breq	.+52     	; 0x944 <__stack+0x45>
     910:	f8 01       	movw	r30, r16
     912:	20 81       	ld	r18, Z
     914:	31 81       	ldd	r19, Z+1	; 0x01
     916:	c2 17       	cp	r28, r18
     918:	d3 07       	cpc	r29, r19
     91a:	31 f0       	breq	.+12     	; 0x928 <__stack+0x29>
     91c:	85 81       	ldd	r24, Z+5	; 0x05
     91e:	9e 01       	movw	r18, r28
     920:	28 1b       	sub	r18, r24
     922:	31 09       	sbc	r19, r1
     924:	c9 01       	movw	r24, r18
     926:	10 c0       	rjmp	.+32     	; 0x948 <__stack+0x49>
     928:	f8 01       	movw	r30, r16
     92a:	65 81       	ldd	r22, Z+5	; 0x05
     92c:	44 81       	ldd	r20, Z+4	; 0x04
     92e:	50 e0       	ldi	r21, 0x00	; 0
     930:	41 50       	subi	r20, 0x01	; 1
     932:	51 09       	sbc	r21, r1
     934:	64 9f       	mul	r22, r20
     936:	c0 01       	movw	r24, r0
     938:	65 9f       	mul	r22, r21
     93a:	90 0d       	add	r25, r0
     93c:	11 24       	eor	r1, r1
     93e:	82 0f       	add	r24, r18
     940:	93 1f       	adc	r25, r19
     942:	02 c0       	rjmp	.+4      	; 0x948 <__stack+0x49>
     944:	80 e0       	ldi	r24, 0x00	; 0
     946:	90 e0       	ldi	r25, 0x00	; 0
     948:	df 91       	pop	r29
     94a:	cf 91       	pop	r28
     94c:	1f 91       	pop	r17
     94e:	0f 91       	pop	r16
     950:	08 95       	ret

00000952 <is_buffer_full>:
     952:	fc 01       	movw	r30, r24
     954:	86 81       	ldd	r24, Z+6	; 0x06
     956:	08 95       	ret

00000958 <buffer_get_next_free>:
     958:	cf 93       	push	r28
     95a:	df 93       	push	r29
     95c:	ec 01       	movw	r28, r24
     95e:	0e 94 a9 04 	call	0x952	; 0x952 <is_buffer_full>
     962:	81 11       	cpse	r24, r1
     964:	09 c0       	rjmp	.+18     	; 0x978 <buffer_get_next_free+0x20>
     966:	88 81       	ld	r24, Y
     968:	99 81       	ldd	r25, Y+1	; 0x01
     96a:	3d 81       	ldd	r19, Y+5	; 0x05
     96c:	2a 81       	ldd	r18, Y+2	; 0x02
     96e:	32 9f       	mul	r19, r18
     970:	80 0d       	add	r24, r0
     972:	91 1d       	adc	r25, r1
     974:	11 24       	eor	r1, r1
     976:	02 c0       	rjmp	.+4      	; 0x97c <buffer_get_next_free+0x24>
     978:	80 e0       	ldi	r24, 0x00	; 0
     97a:	90 e0       	ldi	r25, 0x00	; 0
     97c:	df 91       	pop	r29
     97e:	cf 91       	pop	r28
     980:	08 95       	ret

00000982 <next_read>:
     982:	fc 01       	movw	r30, r24
     984:	83 81       	ldd	r24, Z+3	; 0x03
     986:	8f 5f       	subi	r24, 0xFF	; 255
     988:	83 83       	std	Z+3, r24	; 0x03
     98a:	94 81       	ldd	r25, Z+4	; 0x04
     98c:	89 13       	cpse	r24, r25
     98e:	01 c0       	rjmp	.+2      	; 0x992 <next_read+0x10>
     990:	13 82       	std	Z+3, r1	; 0x03
     992:	16 82       	std	Z+6, r1	; 0x06
     994:	22 81       	ldd	r18, Z+2	; 0x02
     996:	93 81       	ldd	r25, Z+3	; 0x03
     998:	81 e0       	ldi	r24, 0x01	; 1
     99a:	29 13       	cpse	r18, r25
     99c:	80 e0       	ldi	r24, 0x00	; 0
     99e:	87 83       	std	Z+7, r24	; 0x07
     9a0:	08 95       	ret

000009a2 <interpolator_stepReset>:
     9a2:	80 e0       	ldi	r24, 0x00	; 0
     9a4:	0e 94 f4 03 	call	0x7e8	; 0x7e8 <mcu_setSteps>
     9a8:	90 91 83 04 	lds	r25, 0x0483	; 0x800483 <prev_dirbits.2428>
     9ac:	80 91 84 04 	lds	r24, 0x0484	; 0x800484 <interpolator_dirbits>
     9b0:	98 17       	cp	r25, r24
     9b2:	41 f0       	breq	.+16     	; 0x9c4 <interpolator_stepReset+0x22>
     9b4:	80 91 84 04 	lds	r24, 0x0484	; 0x800484 <interpolator_dirbits>
     9b8:	0e 94 ef 03 	call	0x7de	; 0x7de <mcu_setDirs>
     9bc:	80 91 84 04 	lds	r24, 0x0484	; 0x800484 <interpolator_dirbits>
     9c0:	80 93 83 04 	sts	0x0483, r24	; 0x800483 <prev_dirbits.2428>
     9c4:	08 95       	ret

000009c6 <interpolator_update>:
     9c6:	08 95       	ret

000009c8 <planner_recalculate>:
     9c8:	4f 92       	push	r4
     9ca:	5f 92       	push	r5
     9cc:	6f 92       	push	r6
     9ce:	7f 92       	push	r7
     9d0:	8f 92       	push	r8
     9d2:	9f 92       	push	r9
     9d4:	af 92       	push	r10
     9d6:	bf 92       	push	r11
     9d8:	cf 92       	push	r12
     9da:	df 92       	push	r13
     9dc:	ef 92       	push	r14
     9de:	ff 92       	push	r15
     9e0:	0f 93       	push	r16
     9e2:	1f 93       	push	r17
     9e4:	cf 93       	push	r28
     9e6:	df 93       	push	r29
     9e8:	c0 91 58 03 	lds	r28, 0x0358	; 0x800358 <g_planner_buffer>
     9ec:	d0 91 59 03 	lds	r29, 0x0359	; 0x800359 <g_planner_buffer+0x1>
     9f0:	ce 01       	movw	r24, r28
     9f2:	0e 94 ac 04 	call	0x958	; 0x958 <buffer_get_next_free>
     9f6:	8c 01       	movw	r16, r24
     9f8:	ce 01       	movw	r24, r28
     9fa:	0e 94 68 04 	call	0x8d0	; 0x8d0 <buffer_get_first>
     9fe:	6c 01       	movw	r12, r24
     a00:	f8 01       	movw	r30, r16
     a02:	61 8d       	ldd	r22, Z+25	; 0x19
     a04:	72 8d       	ldd	r23, Z+26	; 0x1a
     a06:	83 8d       	ldd	r24, Z+27	; 0x1b
     a08:	94 8d       	ldd	r25, Z+28	; 0x1c
     a0a:	9b 01       	movw	r18, r22
     a0c:	ac 01       	movw	r20, r24
     a0e:	0e 94 0a 19 	call	0x3214	; 0x3214 <__addsf3>
     a12:	f8 01       	movw	r30, r16
     a14:	21 a9       	ldd	r18, Z+49	; 0x31
     a16:	32 a9       	ldd	r19, Z+50	; 0x32
     a18:	43 a9       	ldd	r20, Z+51	; 0x33
     a1a:	54 a9       	ldd	r21, Z+52	; 0x34
     a1c:	0e 94 d3 1a 	call	0x35a6	; 0x35a6 <__mulsf3>
     a20:	a6 2e       	mov	r10, r22
     a22:	b7 2e       	mov	r11, r23
     a24:	e8 2e       	mov	r14, r24
     a26:	f9 2e       	mov	r15, r25
     a28:	f8 01       	movw	r30, r16
     a2a:	d5 a1       	ldd	r29, Z+37	; 0x25
     a2c:	c6 a1       	ldd	r28, Z+38	; 0x26
     a2e:	97 a0       	ldd	r9, Z+39	; 0x27
     a30:	80 a4       	ldd	r8, Z+40	; 0x28
     a32:	2d 2f       	mov	r18, r29
     a34:	3c 2f       	mov	r19, r28
     a36:	49 2d       	mov	r20, r9
     a38:	58 2d       	mov	r21, r8
     a3a:	0e 94 ce 1a 	call	0x359c	; 0x359c <__gesf2>
     a3e:	18 16       	cp	r1, r24
     a40:	24 f0       	brlt	.+8      	; 0xa4a <planner_recalculate+0x82>
     a42:	da 2d       	mov	r29, r10
     a44:	cb 2d       	mov	r28, r11
     a46:	9e 2c       	mov	r9, r14
     a48:	8f 2c       	mov	r8, r15
     a4a:	8d 2f       	mov	r24, r29
     a4c:	9c 2f       	mov	r25, r28
     a4e:	a9 2d       	mov	r26, r9
     a50:	b8 2d       	mov	r27, r8
     a52:	f8 01       	movw	r30, r16
     a54:	81 a3       	std	Z+33, r24	; 0x21
     a56:	92 a3       	std	Z+34, r25	; 0x22
     a58:	a3 a3       	std	Z+35, r26	; 0x23
     a5a:	b4 a3       	std	Z+36, r27	; 0x24
     a5c:	b8 01       	movw	r22, r16
     a5e:	80 91 58 03 	lds	r24, 0x0358	; 0x800358 <g_planner_buffer>
     a62:	90 91 59 03 	lds	r25, 0x0359	; 0x800359 <g_planner_buffer+0x1>
     a66:	0e 94 7d 04 	call	0x8fa	; 0x8fa <buffer_get_prev>
     a6a:	ec 01       	movw	r28, r24
     a6c:	78 01       	movw	r14, r16
     a6e:	4e c0       	rjmp	.+156    	; 0xb0c <planner_recalculate+0x144>
     a70:	69 a1       	ldd	r22, Y+33	; 0x21
     a72:	7a a1       	ldd	r23, Y+34	; 0x22
     a74:	8b a1       	ldd	r24, Y+35	; 0x23
     a76:	9c a1       	ldd	r25, Y+36	; 0x24
     a78:	bd a0       	ldd	r11, Y+37	; 0x25
     a7a:	ae a0       	ldd	r10, Y+38	; 0x26
     a7c:	9f a0       	ldd	r9, Y+39	; 0x27
     a7e:	88 a4       	ldd	r8, Y+40	; 0x28
     a80:	2b 2d       	mov	r18, r11
     a82:	3a 2d       	mov	r19, r10
     a84:	49 2d       	mov	r20, r9
     a86:	58 2d       	mov	r21, r8
     a88:	0e 94 76 19 	call	0x32ec	; 0x32ec <__cmpsf2>
     a8c:	88 23       	and	r24, r24
     a8e:	a9 f1       	breq	.+106    	; 0xafa <planner_recalculate+0x132>
     a90:	f7 01       	movw	r30, r14
     a92:	41 a0       	ldd	r4, Z+33	; 0x21
     a94:	52 a0       	ldd	r5, Z+34	; 0x22
     a96:	63 a0       	ldd	r6, Z+35	; 0x23
     a98:	74 a0       	ldd	r7, Z+36	; 0x24
     a9a:	69 8d       	ldd	r22, Y+25	; 0x19
     a9c:	7a 8d       	ldd	r23, Y+26	; 0x1a
     a9e:	8b 8d       	ldd	r24, Y+27	; 0x1b
     aa0:	9c 8d       	ldd	r25, Y+28	; 0x1c
     aa2:	9b 01       	movw	r18, r22
     aa4:	ac 01       	movw	r20, r24
     aa6:	0e 94 0a 19 	call	0x3214	; 0x3214 <__addsf3>
     aaa:	29 a9       	ldd	r18, Y+49	; 0x31
     aac:	3a a9       	ldd	r19, Y+50	; 0x32
     aae:	4b a9       	ldd	r20, Y+51	; 0x33
     ab0:	5c a9       	ldd	r21, Y+52	; 0x34
     ab2:	0e 94 d3 1a 	call	0x35a6	; 0x35a6 <__mulsf3>
     ab6:	9b 01       	movw	r18, r22
     ab8:	ac 01       	movw	r20, r24
     aba:	c3 01       	movw	r24, r6
     abc:	b2 01       	movw	r22, r4
     abe:	0e 94 0a 19 	call	0x3214	; 0x3214 <__addsf3>
     ac2:	f6 2e       	mov	r15, r22
     ac4:	e7 2e       	mov	r14, r23
     ac6:	78 2e       	mov	r7, r24
     ac8:	69 2e       	mov	r6, r25
     aca:	26 2f       	mov	r18, r22
     acc:	37 2f       	mov	r19, r23
     ace:	48 2f       	mov	r20, r24
     ad0:	59 2f       	mov	r21, r25
     ad2:	6b 2d       	mov	r22, r11
     ad4:	7a 2d       	mov	r23, r10
     ad6:	89 2d       	mov	r24, r9
     ad8:	98 2d       	mov	r25, r8
     ada:	0e 94 76 19 	call	0x32ec	; 0x32ec <__cmpsf2>
     ade:	88 23       	and	r24, r24
     ae0:	24 f0       	brlt	.+8      	; 0xaea <planner_recalculate+0x122>
     ae2:	bf 2c       	mov	r11, r15
     ae4:	ae 2c       	mov	r10, r14
     ae6:	97 2c       	mov	r9, r7
     ae8:	86 2c       	mov	r8, r6
     aea:	8b 2d       	mov	r24, r11
     aec:	9a 2d       	mov	r25, r10
     aee:	a9 2d       	mov	r26, r9
     af0:	b8 2d       	mov	r27, r8
     af2:	89 a3       	std	Y+33, r24	; 0x21
     af4:	9a a3       	std	Y+34, r25	; 0x22
     af6:	ab a3       	std	Y+35, r26	; 0x23
     af8:	bc a3       	std	Y+36, r27	; 0x24
     afa:	be 01       	movw	r22, r28
     afc:	80 91 58 03 	lds	r24, 0x0358	; 0x800358 <g_planner_buffer>
     b00:	90 91 59 03 	lds	r25, 0x0359	; 0x800359 <g_planner_buffer+0x1>
     b04:	0e 94 7d 04 	call	0x8fa	; 0x8fa <buffer_get_prev>
     b08:	7e 01       	movw	r14, r28
     b0a:	ec 01       	movw	r28, r24
     b0c:	89 ad       	ldd	r24, Y+57	; 0x39
     b0e:	81 11       	cpse	r24, r1
     b10:	44 c0       	rjmp	.+136    	; 0xb9a <planner_recalculate+0x1d2>
     b12:	cc 15       	cp	r28, r12
     b14:	dd 05       	cpc	r29, r13
     b16:	09 f0       	breq	.+2      	; 0xb1a <planner_recalculate+0x152>
     b18:	ab cf       	rjmp	.-170    	; 0xa70 <planner_recalculate+0xa8>
     b1a:	3f c0       	rjmp	.+126    	; 0xb9a <planner_recalculate+0x1d2>
     b1c:	49 a0       	ldd	r4, Y+33	; 0x21
     b1e:	5a a0       	ldd	r5, Y+34	; 0x22
     b20:	6b a0       	ldd	r6, Y+35	; 0x23
     b22:	7c a0       	ldd	r7, Y+36	; 0x24
     b24:	f7 01       	movw	r30, r14
     b26:	81 a0       	ldd	r8, Z+33	; 0x21
     b28:	92 a0       	ldd	r9, Z+34	; 0x22
     b2a:	a3 a0       	ldd	r10, Z+35	; 0x23
     b2c:	b4 a0       	ldd	r11, Z+36	; 0x24
     b2e:	a5 01       	movw	r20, r10
     b30:	94 01       	movw	r18, r8
     b32:	c3 01       	movw	r24, r6
     b34:	b2 01       	movw	r22, r4
     b36:	0e 94 76 19 	call	0x32ec	; 0x32ec <__cmpsf2>
     b3a:	88 23       	and	r24, r24
     b3c:	2c f5       	brge	.+74     	; 0xb88 <planner_recalculate+0x1c0>
     b3e:	69 8d       	ldd	r22, Y+25	; 0x19
     b40:	7a 8d       	ldd	r23, Y+26	; 0x1a
     b42:	8b 8d       	ldd	r24, Y+27	; 0x1b
     b44:	9c 8d       	ldd	r25, Y+28	; 0x1c
     b46:	9b 01       	movw	r18, r22
     b48:	ac 01       	movw	r20, r24
     b4a:	0e 94 0a 19 	call	0x3214	; 0x3214 <__addsf3>
     b4e:	29 a9       	ldd	r18, Y+49	; 0x31
     b50:	3a a9       	ldd	r19, Y+50	; 0x32
     b52:	4b a9       	ldd	r20, Y+51	; 0x33
     b54:	5c a9       	ldd	r21, Y+52	; 0x34
     b56:	0e 94 d3 1a 	call	0x35a6	; 0x35a6 <__mulsf3>
     b5a:	9b 01       	movw	r18, r22
     b5c:	ac 01       	movw	r20, r24
     b5e:	c3 01       	movw	r24, r6
     b60:	b2 01       	movw	r22, r4
     b62:	0e 94 0a 19 	call	0x3214	; 0x3214 <__addsf3>
     b66:	2b 01       	movw	r4, r22
     b68:	3c 01       	movw	r6, r24
     b6a:	9b 01       	movw	r18, r22
     b6c:	ac 01       	movw	r20, r24
     b6e:	c5 01       	movw	r24, r10
     b70:	b4 01       	movw	r22, r8
     b72:	0e 94 ce 1a 	call	0x359c	; 0x359c <__gesf2>
     b76:	18 16       	cp	r1, r24
     b78:	3c f4       	brge	.+14     	; 0xb88 <planner_recalculate+0x1c0>
     b7a:	f7 01       	movw	r30, r14
     b7c:	41 a2       	std	Z+33, r4	; 0x21
     b7e:	52 a2       	std	Z+34, r5	; 0x22
     b80:	63 a2       	std	Z+35, r6	; 0x23
     b82:	74 a2       	std	Z+36, r7	; 0x24
     b84:	81 e0       	ldi	r24, 0x01	; 1
     b86:	81 af       	std	Z+57, r24	; 0x39
     b88:	b7 01       	movw	r22, r14
     b8a:	80 91 58 03 	lds	r24, 0x0358	; 0x800358 <g_planner_buffer>
     b8e:	90 91 59 03 	lds	r25, 0x0359	; 0x800359 <g_planner_buffer+0x1>
     b92:	0e 94 4e 04 	call	0x89c	; 0x89c <buffer_get_next>
     b96:	e7 01       	movw	r28, r14
     b98:	7c 01       	movw	r14, r24
     b9a:	c0 17       	cp	r28, r16
     b9c:	d1 07       	cpc	r29, r17
     b9e:	09 f0       	breq	.+2      	; 0xba2 <planner_recalculate+0x1da>
     ba0:	bd cf       	rjmp	.-134    	; 0xb1c <planner_recalculate+0x154>
     ba2:	df 91       	pop	r29
     ba4:	cf 91       	pop	r28
     ba6:	1f 91       	pop	r17
     ba8:	0f 91       	pop	r16
     baa:	ff 90       	pop	r15
     bac:	ef 90       	pop	r14
     bae:	df 90       	pop	r13
     bb0:	cf 90       	pop	r12
     bb2:	bf 90       	pop	r11
     bb4:	af 90       	pop	r10
     bb6:	9f 90       	pop	r9
     bb8:	8f 90       	pop	r8
     bba:	7f 90       	pop	r7
     bbc:	6f 90       	pop	r6
     bbe:	5f 90       	pop	r5
     bc0:	4f 90       	pop	r4
     bc2:	08 95       	ret

00000bc4 <planner_buffer_full>:
     bc4:	80 91 58 03 	lds	r24, 0x0358	; 0x800358 <g_planner_buffer>
     bc8:	90 91 59 03 	lds	r25, 0x0359	; 0x800359 <g_planner_buffer+0x1>
     bcc:	0e 94 a9 04 	call	0x952	; 0x952 <is_buffer_full>
     bd0:	08 95       	ret

00000bd2 <parser_is_ready>:
     bd2:	0e 94 e2 05 	call	0xbc4	; 0xbc4 <planner_buffer_full>
     bd6:	91 e0       	ldi	r25, 0x01	; 1
     bd8:	89 27       	eor	r24, r25
     bda:	08 95       	ret

00000bdc <kinematics_init>:
     bdc:	08 95       	ret

00000bde <settings_crc7>:
     bde:	db 01       	movw	r26, r22
     be0:	9d 01       	movw	r18, r26
     be2:	2f 5f       	subi	r18, 0xFF	; 255
     be4:	3f 4f       	sbci	r19, 0xFF	; 255
     be6:	9c 91       	ld	r25, X
     be8:	e8 2f       	mov	r30, r24
     bea:	e9 27       	eor	r30, r25
     bec:	f0 e0       	ldi	r31, 0x00	; 0
     bee:	e0 52       	subi	r30, 0x20	; 32
     bf0:	fd 4f       	sbci	r31, 0xFD	; 253
     bf2:	e4 91       	lpm	r30, Z
     bf4:	f0 e0       	ldi	r31, 0x00	; 0
     bf6:	80 81       	ld	r24, Z
     bf8:	41 50       	subi	r20, 0x01	; 1
     bfa:	51 09       	sbc	r21, r1
     bfc:	d9 01       	movw	r26, r18
     bfe:	81 f7       	brne	.-32     	; 0xbe0 <settings_crc7+0x2>
     c00:	08 95       	ret

00000c02 <mc_init>:
     c02:	8c e0       	ldi	r24, 0x0C	; 12
     c04:	e3 e5       	ldi	r30, 0x53	; 83
     c06:	f6 e0       	ldi	r31, 0x06	; 6
     c08:	df 01       	movw	r26, r30
     c0a:	1d 92       	st	X+, r1
     c0c:	8a 95       	dec	r24
     c0e:	e9 f7       	brne	.-6      	; 0xc0a <mc_init+0x8>
     c10:	08 95       	ret

00000c12 <protocol_init>:
     c12:	10 92 11 06 	sts	0x0611, r1	; 0x800611 <protocol_cmd_available>
     c16:	10 92 52 06 	sts	0x0652, r1	; 0x800652 <protocol_send_busy>
     c1a:	80 e8       	ldi	r24, 0x80	; 128
     c1c:	e1 e9       	ldi	r30, 0x91	; 145
     c1e:	f5 e0       	ldi	r31, 0x05	; 5
     c20:	df 01       	movw	r26, r30
     c22:	1d 92       	st	X+, r1
     c24:	8a 95       	dec	r24
     c26:	e9 f7       	brne	.-6      	; 0xc22 <protocol_init+0x10>
     c28:	80 e4       	ldi	r24, 0x40	; 64
     c2a:	e2 e1       	ldi	r30, 0x12	; 18
     c2c:	f6 e0       	ldi	r31, 0x06	; 6
     c2e:	df 01       	movw	r26, r30
     c30:	1d 92       	st	X+, r1
     c32:	8a 95       	dec	r24
     c34:	e9 f7       	brne	.-6      	; 0xc30 <protocol_init+0x1e>
     c36:	8b e7       	ldi	r24, 0x7B	; 123
     c38:	92 e0       	ldi	r25, 0x02	; 2
     c3a:	0e 94 bb 03 	call	0x776	; 0x776 <mcu_attachOnReadChar>
     c3e:	87 ec       	ldi	r24, 0xC7	; 199
     c40:	93 e0       	ldi	r25, 0x03	; 3
     c42:	0e 94 b6 03 	call	0x76c	; 0x76c <mcu_attachOnSentChar>
     c46:	08 95       	ret

00000c48 <parser_init>:
     c48:	bf 92       	push	r11
     c4a:	cf 92       	push	r12
     c4c:	df 92       	push	r13
     c4e:	ef 92       	push	r14
     c50:	ff 92       	push	r15
     c52:	0f 93       	push	r16
     c54:	1f 93       	push	r17
     c56:	cf 93       	push	r28
     c58:	df 93       	push	r29
     c5a:	81 e4       	ldi	r24, 0x41	; 65
     c5c:	ee e4       	ldi	r30, 0x4E	; 78
     c5e:	f5 e0       	ldi	r31, 0x05	; 5
     c60:	df 01       	movw	r26, r30
     c62:	1d 92       	st	X+, r1
     c64:	8a 95       	dec	r24
     c66:	e9 f7       	brne	.-6      	; 0xc62 <parser_init+0x1a>
     c68:	30 e0       	ldi	r19, 0x00	; 0
     c6a:	19 c0       	rjmp	.+50     	; 0xc9e <parser_init+0x56>
     c6c:	83 2f       	mov	r24, r19
     c6e:	90 e0       	ldi	r25, 0x00	; 0
     c70:	fc 01       	movw	r30, r24
     c72:	ee 0f       	add	r30, r30
     c74:	ff 1f       	adc	r31, r31
     c76:	e8 0f       	add	r30, r24
     c78:	f9 1f       	adc	r31, r25
     c7a:	e2 0f       	add	r30, r18
     c7c:	f1 1d       	adc	r31, r1
     c7e:	ee 0f       	add	r30, r30
     c80:	ff 1f       	adc	r31, r31
     c82:	ee 0f       	add	r30, r30
     c84:	ff 1f       	adc	r31, r31
     c86:	ea 5f       	subi	r30, 0xFA	; 250
     c88:	fa 4f       	sbci	r31, 0xFA	; 250
     c8a:	10 82       	st	Z, r1
     c8c:	11 82       	std	Z+1, r1	; 0x01
     c8e:	12 82       	std	Z+2, r1	; 0x02
     c90:	13 82       	std	Z+3, r1	; 0x03
     c92:	2f 5f       	subi	r18, 0xFF	; 255
     c94:	01 c0       	rjmp	.+2      	; 0xc98 <parser_init+0x50>
     c96:	20 e0       	ldi	r18, 0x00	; 0
     c98:	23 30       	cpi	r18, 0x03	; 3
     c9a:	40 f3       	brcs	.-48     	; 0xc6c <parser_init+0x24>
     c9c:	3f 5f       	subi	r19, 0xFF	; 255
     c9e:	36 30       	cpi	r19, 0x06	; 6
     ca0:	d0 f3       	brcs	.-12     	; 0xc96 <parser_init+0x4e>
     ca2:	e2 e5       	ldi	r30, 0x52	; 82
     ca4:	f5 e0       	ldi	r31, 0x05	; 5
     ca6:	81 81       	ldd	r24, Z+1	; 0x01
     ca8:	81 60       	ori	r24, 0x01	; 1
     caa:	81 83       	std	Z+1, r24	; 0x01
     cac:	80 81       	ld	r24, Z
     cae:	80 68       	ori	r24, 0x80	; 128
     cb0:	80 83       	st	Z, r24
     cb2:	c0 e0       	ldi	r28, 0x00	; 0
     cb4:	31 c0       	rjmp	.+98     	; 0xd18 <parser_init+0xd0>
     cb6:	ec 2f       	mov	r30, r28
     cb8:	f0 e0       	ldi	r31, 0x00	; 0
     cba:	ee 0f       	add	r30, r30
     cbc:	ff 1f       	adc	r31, r31
     cbe:	ee 0f       	add	r30, r30
     cc0:	ff 1f       	adc	r31, r31
     cc2:	e2 54       	subi	r30, 0x42	; 66
     cc4:	fb 4f       	sbci	r31, 0xFB	; 251
     cc6:	07 85       	ldd	r16, Z+15	; 0x0f
     cc8:	10 89       	ldd	r17, Z+16	; 0x10
     cca:	d1 89       	ldd	r29, Z+17	; 0x11
     ccc:	f2 88       	ldd	r15, Z+18	; 0x12
     cce:	b0 90 ba 04 	lds	r11, 0x04BA	; 0x8004ba <parser_max_feed_rate>
     cd2:	c0 90 bb 04 	lds	r12, 0x04BB	; 0x8004bb <parser_max_feed_rate+0x1>
     cd6:	d0 90 bc 04 	lds	r13, 0x04BC	; 0x8004bc <parser_max_feed_rate+0x2>
     cda:	e0 90 bd 04 	lds	r14, 0x04BD	; 0x8004bd <parser_max_feed_rate+0x3>
     cde:	2b 2d       	mov	r18, r11
     ce0:	3c 2d       	mov	r19, r12
     ce2:	4d 2d       	mov	r20, r13
     ce4:	5e 2d       	mov	r21, r14
     ce6:	60 2f       	mov	r22, r16
     ce8:	71 2f       	mov	r23, r17
     cea:	8d 2f       	mov	r24, r29
     cec:	9f 2d       	mov	r25, r15
     cee:	0e 94 76 19 	call	0x32ec	; 0x32ec <__cmpsf2>
     cf2:	88 23       	and	r24, r24
     cf4:	24 f4       	brge	.+8      	; 0xcfe <parser_init+0xb6>
     cf6:	0b 2d       	mov	r16, r11
     cf8:	1c 2d       	mov	r17, r12
     cfa:	dd 2d       	mov	r29, r13
     cfc:	fe 2c       	mov	r15, r14
     cfe:	80 2f       	mov	r24, r16
     d00:	91 2f       	mov	r25, r17
     d02:	ad 2f       	mov	r26, r29
     d04:	bf 2d       	mov	r27, r15
     d06:	80 93 ba 04 	sts	0x04BA, r24	; 0x8004ba <parser_max_feed_rate>
     d0a:	90 93 bb 04 	sts	0x04BB, r25	; 0x8004bb <parser_max_feed_rate+0x1>
     d0e:	a0 93 bc 04 	sts	0x04BC, r26	; 0x8004bc <parser_max_feed_rate+0x2>
     d12:	b0 93 bd 04 	sts	0x04BD, r27	; 0x8004bd <parser_max_feed_rate+0x3>
     d16:	cf 5f       	subi	r28, 0xFF	; 255
     d18:	c3 30       	cpi	r28, 0x03	; 3
     d1a:	68 f2       	brcs	.-102    	; 0xcb6 <parser_init+0x6e>
     d1c:	df 91       	pop	r29
     d1e:	cf 91       	pop	r28
     d20:	1f 91       	pop	r17
     d22:	0f 91       	pop	r16
     d24:	ff 90       	pop	r15
     d26:	ef 90       	pop	r14
     d28:	df 90       	pop	r13
     d2a:	cf 90       	pop	r12
     d2c:	bf 90       	pop	r11
     d2e:	08 95       	ret

00000d30 <protocol_printf>:
     d30:	cf 93       	push	r28
     d32:	df 93       	push	r29
     d34:	cd b7       	in	r28, 0x3d	; 61
     d36:	de b7       	in	r29, 0x3e	; 62
     d38:	c0 54       	subi	r28, 0x40	; 64
     d3a:	d1 09       	sbc	r29, r1
     d3c:	0f b6       	in	r0, 0x3f	; 63
     d3e:	f8 94       	cli
     d40:	de bf       	out	0x3e, r29	; 62
     d42:	0f be       	out	0x3f, r0	; 63
     d44:	cd bf       	out	0x3d, r28	; 61
     d46:	80 91 52 06 	lds	r24, 0x0652	; 0x800652 <protocol_send_busy>
     d4a:	81 11       	cpse	r24, r1
     d4c:	fc cf       	rjmp	.-8      	; 0xd46 <protocol_printf+0x16>
     d4e:	81 e0       	ldi	r24, 0x01	; 1
     d50:	80 93 52 06 	sts	0x0652, r24	; 0x800652 <protocol_send_busy>
     d54:	40 e4       	ldi	r20, 0x40	; 64
     d56:	50 e0       	ldi	r21, 0x00	; 0
     d58:	27 96       	adiw	r28, 0x07	; 7
     d5a:	6e ad       	ldd	r22, Y+62	; 0x3e
     d5c:	7f ad       	ldd	r23, Y+63	; 0x3f
     d5e:	27 97       	sbiw	r28, 0x07	; 7
     d60:	ce 01       	movw	r24, r28
     d62:	01 96       	adiw	r24, 0x01	; 1
     d64:	0e 94 4a 18 	call	0x3094	; 0x3094 <strncpy_P>
     d68:	ae 01       	movw	r20, r28
     d6a:	49 5b       	subi	r20, 0xB9	; 185
     d6c:	5f 4f       	sbci	r21, 0xFF	; 255
     d6e:	bc 01       	movw	r22, r24
     d70:	82 e1       	ldi	r24, 0x12	; 18
     d72:	96 e0       	ldi	r25, 0x06	; 6
     d74:	0e 94 1c 1d 	call	0x3a38	; 0x3a38 <vsprintf>
     d78:	80 91 12 06 	lds	r24, 0x0612	; 0x800612 <protocol_resp_buffer>
     d7c:	0e 94 c0 03 	call	0x780	; 0x780 <mcu_putc>
     d80:	c0 5c       	subi	r28, 0xC0	; 192
     d82:	df 4f       	sbci	r29, 0xFF	; 255
     d84:	0f b6       	in	r0, 0x3f	; 63
     d86:	f8 94       	cli
     d88:	de bf       	out	0x3e, r29	; 62
     d8a:	0f be       	out	0x3f, r0	; 63
     d8c:	cd bf       	out	0x3d, r28	; 61
     d8e:	df 91       	pop	r29
     d90:	cf 91       	pop	r28
     d92:	08 95       	ret

00000d94 <protocol_puts>:
     d94:	bc 01       	movw	r22, r24
     d96:	90 91 52 06 	lds	r25, 0x0652	; 0x800652 <protocol_send_busy>
     d9a:	91 11       	cpse	r25, r1
     d9c:	fc cf       	rjmp	.-8      	; 0xd96 <protocol_puts+0x2>
     d9e:	81 e0       	ldi	r24, 0x01	; 1
     da0:	80 93 52 06 	sts	0x0652, r24	; 0x800652 <protocol_send_busy>
     da4:	40 e4       	ldi	r20, 0x40	; 64
     da6:	50 e0       	ldi	r21, 0x00	; 0
     da8:	82 e1       	ldi	r24, 0x12	; 18
     daa:	96 e0       	ldi	r25, 0x06	; 6
     dac:	0e 94 4a 18 	call	0x3094	; 0x3094 <strncpy_P>
     db0:	80 91 12 06 	lds	r24, 0x0612	; 0x800612 <protocol_resp_buffer>
     db4:	0e 94 c0 03 	call	0x780	; 0x780 <mcu_putc>
     db8:	08 95       	ret

00000dba <parser_print_states>:
     dba:	3f 92       	push	r3
     dbc:	4f 92       	push	r4
     dbe:	5f 92       	push	r5
     dc0:	6f 92       	push	r6
     dc2:	7f 92       	push	r7
     dc4:	8f 92       	push	r8
     dc6:	9f 92       	push	r9
     dc8:	af 92       	push	r10
     dca:	bf 92       	push	r11
     dcc:	cf 92       	push	r12
     dce:	df 92       	push	r13
     dd0:	ef 92       	push	r14
     dd2:	ff 92       	push	r15
     dd4:	0f 93       	push	r16
     dd6:	1f 93       	push	r17
     dd8:	cf 93       	push	r28
     dda:	df 93       	push	r29
     ddc:	c0 91 52 05 	lds	r28, 0x0552	; 0x800552 <g_parser_state+0x4>
     de0:	8c 2f       	mov	r24, r28
     de2:	8f 70       	andi	r24, 0x0F	; 15
     de4:	38 2e       	mov	r3, r24
     de6:	0c 2f       	mov	r16, r28
     de8:	02 95       	swap	r16
     dea:	0f 70       	andi	r16, 0x0F	; 15
     dec:	03 70       	andi	r16, 0x03	; 3
     dee:	0f 5e       	subi	r16, 0xEF	; 239
     df0:	c6 fb       	bst	r28, 6
     df2:	88 27       	eor	r24, r24
     df4:	80 f9       	bld	r24, 0
     df6:	0f 2e       	mov	r0, r31
     df8:	fa e5       	ldi	r31, 0x5A	; 90
     dfa:	df 2e       	mov	r13, r31
     dfc:	f0 2d       	mov	r31, r0
     dfe:	d8 0e       	add	r13, r24
     e00:	c7 fb       	bst	r28, 7
     e02:	cc 27       	eor	r28, r28
     e04:	c0 f9       	bld	r28, 0
     e06:	c3 5a       	subi	r28, 0xA3	; 163
     e08:	80 91 53 05 	lds	r24, 0x0553	; 0x800553 <g_parser_state+0x5>
     e0c:	98 2f       	mov	r25, r24
     e0e:	91 70       	andi	r25, 0x01	; 1
     e10:	0f 2e       	mov	r0, r31
     e12:	f4 e1       	ldi	r31, 0x14	; 20
     e14:	cf 2e       	mov	r12, r31
     e16:	f0 2d       	mov	r31, r0
     e18:	c9 0e       	add	r12, r25
     e1a:	98 2f       	mov	r25, r24
     e1c:	96 95       	lsr	r25
     e1e:	93 70       	andi	r25, 0x03	; 3
     e20:	0f 2e       	mov	r0, r31
     e22:	f8 e2       	ldi	r31, 0x28	; 40
     e24:	ff 2e       	mov	r15, r31
     e26:	f0 2d       	mov	r31, r0
     e28:	f9 0e       	add	r15, r25
     e2a:	83 ff       	sbrs	r24, 3
     e2c:	05 c0       	rjmp	.+10     	; 0xe38 <parser_print_states+0x7e>
     e2e:	0f 2e       	mov	r0, r31
     e30:	fb e2       	ldi	r31, 0x2B	; 43
     e32:	9f 2e       	mov	r9, r31
     e34:	f0 2d       	mov	r31, r0
     e36:	04 c0       	rjmp	.+8      	; 0xe40 <parser_print_states+0x86>
     e38:	0f 2e       	mov	r0, r31
     e3a:	f1 e3       	ldi	r31, 0x31	; 49
     e3c:	9f 2e       	mov	r9, r31
     e3e:	f0 2d       	mov	r31, r0
     e40:	d0 91 53 05 	lds	r29, 0x0553	; 0x800553 <g_parser_state+0x5>
     e44:	d4 fb       	bst	r29, 4
     e46:	88 27       	eor	r24, r24
     e48:	80 f9       	bld	r24, 0
     e4a:	0f 2e       	mov	r0, r31
     e4c:	f2 e6       	ldi	r31, 0x62	; 98
     e4e:	bf 2e       	mov	r11, r31
     e50:	f0 2d       	mov	r31, r0
     e52:	b8 0e       	add	r11, r24
     e54:	d2 95       	swap	r29
     e56:	d6 95       	lsr	r29
     e58:	d7 70       	andi	r29, 0x07	; 7
     e5a:	da 5c       	subi	r29, 0xCA	; 202
     e5c:	10 91 54 05 	lds	r17, 0x0554	; 0x800554 <g_parser_state+0x6>
     e60:	81 2f       	mov	r24, r17
     e62:	83 70       	andi	r24, 0x03	; 3
     e64:	0f 2e       	mov	r0, r31
     e66:	f1 e1       	ldi	r31, 0x11	; 17
     e68:	af 2e       	mov	r10, r31
     e6a:	f0 2d       	mov	r31, r0
     e6c:	a8 0e       	add	r10, r24
     e6e:	12 95       	swap	r17
     e70:	16 95       	lsr	r17
     e72:	16 95       	lsr	r17
     e74:	13 70       	andi	r17, 0x03	; 3
     e76:	1d 5f       	subi	r17, 0xFD	; 253
     e78:	80 91 55 05 	lds	r24, 0x0555	; 0x800555 <g_parser_state+0x7>
     e7c:	83 70       	andi	r24, 0x03	; 3
     e7e:	0f 2e       	mov	r0, r31
     e80:	f7 e0       	ldi	r31, 0x07	; 7
     e82:	ef 2e       	mov	r14, r31
     e84:	f0 2d       	mov	r31, r0
     e86:	e8 0e       	add	r14, r24
     e88:	ee e4       	ldi	r30, 0x4E	; 78
     e8a:	f5 e0       	ldi	r31, 0x05	; 5
     e8c:	80 90 8e 05 	lds	r8, 0x058E	; 0x80058e <g_parser_state+0x40>
     e90:	70 8c       	ldd	r7, Z+24	; 0x18
     e92:	61 8c       	ldd	r6, Z+25	; 0x19
     e94:	52 8c       	ldd	r5, Z+26	; 0x1a
     e96:	43 8c       	ldd	r4, Z+27	; 0x1b
     e98:	64 ad       	ldd	r22, Z+60	; 0x3c
     e9a:	75 ad       	ldd	r23, Z+61	; 0x3d
     e9c:	86 ad       	ldd	r24, Z+62	; 0x3e
     e9e:	97 ad       	ldd	r25, Z+63	; 0x3f
     ea0:	0e 94 ed 19 	call	0x33da	; 0x33da <__fixunssfsi>
     ea4:	1f 92       	push	r1
     ea6:	6f 93       	push	r22
     ea8:	4f 92       	push	r4
     eaa:	5f 92       	push	r5
     eac:	6f 92       	push	r6
     eae:	7f 92       	push	r7
     eb0:	1f 92       	push	r1
     eb2:	8f 92       	push	r8
     eb4:	1f 92       	push	r1
     eb6:	ef 92       	push	r14
     eb8:	1f 92       	push	r1
     eba:	1f 93       	push	r17
     ebc:	1f 92       	push	r1
     ebe:	af 92       	push	r10
     ec0:	1f 92       	push	r1
     ec2:	df 93       	push	r29
     ec4:	1f 92       	push	r1
     ec6:	bf 92       	push	r11
     ec8:	1f 92       	push	r1
     eca:	9f 92       	push	r9
     ecc:	1f 92       	push	r1
     ece:	ff 92       	push	r15
     ed0:	1f 92       	push	r1
     ed2:	cf 92       	push	r12
     ed4:	1f 92       	push	r1
     ed6:	cf 93       	push	r28
     ed8:	1f 92       	push	r1
     eda:	df 92       	push	r13
     edc:	1f 92       	push	r1
     ede:	0f 93       	push	r16
     ee0:	1f 92       	push	r1
     ee2:	3f 92       	push	r3
     ee4:	81 e3       	ldi	r24, 0x31	; 49
     ee6:	94 e0       	ldi	r25, 0x04	; 4
     ee8:	9f 93       	push	r25
     eea:	8f 93       	push	r24
     eec:	0e 94 98 06 	call	0xd30	; 0xd30 <protocol_printf>
     ef0:	8d b7       	in	r24, 0x3d	; 61
     ef2:	9e b7       	in	r25, 0x3e	; 62
     ef4:	82 96       	adiw	r24, 0x22	; 34
     ef6:	0f b6       	in	r0, 0x3f	; 63
     ef8:	f8 94       	cli
     efa:	9e bf       	out	0x3e, r25	; 62
     efc:	0f be       	out	0x3f, r0	; 63
     efe:	8d bf       	out	0x3d, r24	; 61
     f00:	8d e2       	ldi	r24, 0x2D	; 45
     f02:	94 e0       	ldi	r25, 0x04	; 4
     f04:	0e 94 ca 06 	call	0xd94	; 0xd94 <protocol_puts>
     f08:	df 91       	pop	r29
     f0a:	cf 91       	pop	r28
     f0c:	1f 91       	pop	r17
     f0e:	0f 91       	pop	r16
     f10:	ff 90       	pop	r15
     f12:	ef 90       	pop	r14
     f14:	df 90       	pop	r13
     f16:	cf 90       	pop	r12
     f18:	bf 90       	pop	r11
     f1a:	af 90       	pop	r10
     f1c:	9f 90       	pop	r9
     f1e:	8f 90       	pop	r8
     f20:	7f 90       	pop	r7
     f22:	6f 90       	pop	r6
     f24:	5f 90       	pop	r5
     f26:	4f 90       	pop	r4
     f28:	3f 90       	pop	r3
     f2a:	08 95       	ret

00000f2c <parser_fetch_command>:
     f2c:	3f 92       	push	r3
     f2e:	4f 92       	push	r4
     f30:	5f 92       	push	r5
     f32:	6f 92       	push	r6
     f34:	7f 92       	push	r7
     f36:	8f 92       	push	r8
     f38:	9f 92       	push	r9
     f3a:	af 92       	push	r10
     f3c:	bf 92       	push	r11
     f3e:	cf 92       	push	r12
     f40:	df 92       	push	r13
     f42:	ef 92       	push	r14
     f44:	ff 92       	push	r15
     f46:	0f 93       	push	r16
     f48:	1f 93       	push	r17
     f4a:	cf 93       	push	r28
     f4c:	df 93       	push	r29
     f4e:	00 d0       	rcall	.+0      	; 0xf50 <parser_fetch_command+0x24>
     f50:	00 d0       	rcall	.+0      	; 0xf52 <parser_fetch_command+0x26>
     f52:	1f 92       	push	r1
     f54:	cd b7       	in	r28, 0x3d	; 61
     f56:	de b7       	in	r29, 0x3e	; 62
     f58:	7c 01       	movw	r14, r24
     f5a:	19 82       	std	Y+1, r1	; 0x01
     f5c:	1a 82       	std	Y+2, r1	; 0x02
     f5e:	1b 82       	std	Y+3, r1	; 0x03
     f60:	1c 82       	std	Y+4, r1	; 0x04
     f62:	c1 2c       	mov	r12, r1
     f64:	d1 2c       	mov	r13, r1
     f66:	31 2c       	mov	r3, r1
     f68:	a1 2c       	mov	r10, r1
     f6a:	b1 2c       	mov	r11, r1
     f6c:	10 e0       	ldi	r17, 0x00	; 0
     f6e:	0e 94 58 02 	call	0x4b0	; 0x4b0 <protocol_peek>
     f72:	08 2f       	mov	r16, r24
     f74:	1d 82       	std	Y+5, r1	; 0x05
     f76:	8d 30       	cpi	r24, 0x0D	; 13
     f78:	09 f4       	brne	.+2      	; 0xf7c <parser_fetch_command+0x50>
     f7a:	13 c3       	rjmp	.+1574   	; 0x15a2 <parser_fetch_command+0x676>
     f7c:	34 f4       	brge	.+12     	; 0xf8a <parser_fetch_command+0x5e>
     f7e:	89 30       	cpi	r24, 0x09	; 9
     f80:	49 f0       	breq	.+18     	; 0xf94 <parser_fetch_command+0x68>
     f82:	8a 30       	cpi	r24, 0x0A	; 10
     f84:	09 f4       	brne	.+2      	; 0xf88 <parser_fetch_command+0x5c>
     f86:	0d c3       	rjmp	.+1562   	; 0x15a2 <parser_fetch_command+0x676>
     f88:	15 c0       	rjmp	.+42     	; 0xfb4 <parser_fetch_command+0x88>
     f8a:	80 32       	cpi	r24, 0x20	; 32
     f8c:	19 f0       	breq	.+6      	; 0xf94 <parser_fetch_command+0x68>
     f8e:	88 32       	cpi	r24, 0x28	; 40
     f90:	59 f0       	breq	.+22     	; 0xfa8 <parser_fetch_command+0x7c>
     f92:	10 c0       	rjmp	.+32     	; 0xfb4 <parser_fetch_command+0x88>
     f94:	0e 94 61 02 	call	0x4c2	; 0x4c2 <protocol_getc>
     f98:	0e 94 58 02 	call	0x4b0	; 0x4b0 <protocol_peek>
     f9c:	08 2f       	mov	r16, r24
     f9e:	80 32       	cpi	r24, 0x20	; 32
     fa0:	c9 f3       	breq	.-14     	; 0xf94 <parser_fetch_command+0x68>
     fa2:	89 30       	cpi	r24, 0x09	; 9
     fa4:	b9 f3       	breq	.-18     	; 0xf94 <parser_fetch_command+0x68>
     fa6:	0c c0       	rjmp	.+24     	; 0xfc0 <parser_fetch_command+0x94>
     fa8:	0e 94 9c 02 	call	0x538	; 0x538 <parser_get_comment>
     fac:	81 11       	cpse	r24, r1
     fae:	08 c0       	rjmp	.+16     	; 0xfc0 <parser_fetch_command+0x94>
     fb0:	87 e2       	ldi	r24, 0x27	; 39
     fb2:	74 c3       	rjmp	.+1768   	; 0x169c <parser_fetch_command+0x770>
     fb4:	8f e9       	ldi	r24, 0x9F	; 159
     fb6:	80 0f       	add	r24, r16
     fb8:	8a 31       	cpi	r24, 0x1A	; 26
     fba:	08 f0       	brcs	.+2      	; 0xfbe <parser_fetch_command+0x92>
     fbc:	f4 c2       	rjmp	.+1512   	; 0x15a6 <parser_fetch_command+0x67a>
     fbe:	00 52       	subi	r16, 0x20	; 32
     fc0:	0e 94 61 02 	call	0x4c2	; 0x4c2 <protocol_getc>
     fc4:	0e 94 58 02 	call	0x4b0	; 0x4b0 <protocol_peek>
     fc8:	90 ed       	ldi	r25, 0xD0	; 208
     fca:	98 0f       	add	r25, r24
     fcc:	9a 30       	cpi	r25, 0x0A	; 10
     fce:	30 f0       	brcs	.+12     	; 0xfdc <parser_fetch_command+0xb0>
     fd0:	8b 32       	cpi	r24, 0x2B	; 43
     fd2:	21 f0       	breq	.+8      	; 0xfdc <parser_fetch_command+0xb0>
     fd4:	8d 32       	cpi	r24, 0x2D	; 45
     fd6:	11 f0       	breq	.+4      	; 0xfdc <parser_fetch_command+0xb0>
     fd8:	8e 32       	cpi	r24, 0x2E	; 46
     fda:	69 f4       	brne	.+26     	; 0xff6 <parser_fetch_command+0xca>
     fdc:	be 01       	movw	r22, r28
     fde:	6b 5f       	subi	r22, 0xFB	; 251
     fe0:	7f 4f       	sbci	r23, 0xFF	; 255
     fe2:	ce 01       	movw	r24, r28
     fe4:	01 96       	adiw	r24, 0x01	; 1
     fe6:	0e 94 b9 02 	call	0x572	; 0x572 <parser_get_float>
     fea:	88 23       	and	r24, r24
     fec:	09 f4       	brne	.+2      	; 0xff0 <parser_fetch_command+0xc4>
     fee:	dd c2       	rjmp	.+1466   	; 0x15aa <parser_fetch_command+0x67e>
     ff0:	88 24       	eor	r8, r8
     ff2:	83 94       	inc	r8
     ff4:	01 c0       	rjmp	.+2      	; 0xff8 <parser_fetch_command+0xcc>
     ff6:	81 2c       	mov	r8, r1
     ff8:	80 2f       	mov	r24, r16
     ffa:	00 0f       	add	r16, r16
     ffc:	99 0b       	sbc	r25, r25
     ffe:	aa 0b       	sbc	r26, r26
    1000:	bb 0b       	sbc	r27, r27
    1002:	fc 01       	movw	r30, r24
    1004:	e1 54       	subi	r30, 0x41	; 65
    1006:	f1 09       	sbc	r31, r1
    1008:	ea 31       	cpi	r30, 0x1A	; 26
    100a:	f1 05       	cpc	r31, r1
    100c:	08 f0       	brcs	.+2      	; 0x1010 <parser_fetch_command+0xe4>
    100e:	c7 c2       	rjmp	.+1422   	; 0x159e <parser_fetch_command+0x672>
    1010:	ec 5c       	subi	r30, 0xCC	; 204
    1012:	ff 4f       	sbci	r31, 0xFF	; 255
    1014:	0c 94 da 1b 	jmp	0x37b4	; 0x37b4 <__tablejump2__>
    1018:	88 20       	and	r8, r8
    101a:	09 f4       	brne	.+2      	; 0x101e <parser_fetch_command+0xf2>
    101c:	c8 c2       	rjmp	.+1424   	; 0x15ae <parser_fetch_command+0x682>
    101e:	49 80       	ldd	r4, Y+1	; 0x01
    1020:	5a 80       	ldd	r5, Y+2	; 0x02
    1022:	6b 80       	ldd	r6, Y+3	; 0x03
    1024:	7c 80       	ldd	r7, Y+4	; 0x04
    1026:	c3 01       	movw	r24, r6
    1028:	b2 01       	movw	r22, r4
    102a:	0e 94 ed 19 	call	0x33da	; 0x33da <__fixunssfsi>
    102e:	96 2e       	mov	r9, r22
    1030:	86 2f       	mov	r24, r22
    1032:	90 e0       	ldi	r25, 0x00	; 0
    1034:	84 36       	cpi	r24, 0x64	; 100
    1036:	91 05       	cpc	r25, r1
    1038:	08 f0       	brcs	.+2      	; 0x103c <parser_fetch_command+0x110>
    103a:	bb c2       	rjmp	.+1398   	; 0x15b2 <parser_fetch_command+0x686>
    103c:	fc 01       	movw	r30, r24
    103e:	e2 5b       	subi	r30, 0xB2	; 178
    1040:	ff 4f       	sbci	r31, 0xFF	; 255
    1042:	0c 94 da 1b 	jmp	0x37b4	; 0x37b4 <__tablejump2__>
    1046:	b0 fc       	sbrc	r11, 0
    1048:	b6 c2       	rjmp	.+1388   	; 0x15b6 <parser_fetch_command+0x68a>
    104a:	8b 2d       	mov	r24, r11
    104c:	81 60       	ori	r24, 0x01	; 1
    104e:	b8 2e       	mov	r11, r24
    1050:	89 2d       	mov	r24, r9
    1052:	8f 70       	andi	r24, 0x0F	; 15
    1054:	f7 01       	movw	r30, r14
    1056:	94 81       	ldd	r25, Z+4	; 0x04
    1058:	90 7f       	andi	r25, 0xF0	; 240
    105a:	89 2b       	or	r24, r25
    105c:	84 83       	std	Z+4, r24	; 0x04
    105e:	9f c2       	rjmp	.+1342   	; 0x159e <parser_fetch_command+0x672>
    1060:	b0 fe       	sbrs	r11, 0
    1062:	ab c2       	rjmp	.+1366   	; 0x15ba <parser_fetch_command+0x68e>
    1064:	85 e1       	ldi	r24, 0x15	; 21
    1066:	1a c3       	rjmp	.+1588   	; 0x169c <parser_fetch_command+0x770>
    1068:	b0 fc       	sbrc	r11, 0
    106a:	a9 c2       	rjmp	.+1362   	; 0x15be <parser_fetch_command+0x692>
    106c:	fb 2d       	mov	r31, r11
    106e:	f1 60       	ori	r31, 0x01	; 1
    1070:	bf 2e       	mov	r11, r31
    1072:	85 eb       	ldi	r24, 0xB5	; 181
    1074:	89 0d       	add	r24, r9
    1076:	8f 70       	andi	r24, 0x0F	; 15
    1078:	f7 01       	movw	r30, r14
    107a:	94 81       	ldd	r25, Z+4	; 0x04
    107c:	90 7f       	andi	r25, 0xF0	; 240
    107e:	89 2b       	or	r24, r25
    1080:	84 83       	std	Z+4, r24	; 0x04
    1082:	8d c2       	rjmp	.+1306   	; 0x159e <parser_fetch_command+0x672>
    1084:	b1 fc       	sbrc	r11, 1
    1086:	9d c2       	rjmp	.+1338   	; 0x15c2 <parser_fetch_command+0x696>
    1088:	fb 2d       	mov	r31, r11
    108a:	f2 60       	ori	r31, 0x02	; 2
    108c:	bf 2e       	mov	r11, r31
    108e:	8f ee       	ldi	r24, 0xEF	; 239
    1090:	89 0d       	add	r24, r9
    1092:	83 70       	andi	r24, 0x03	; 3
    1094:	82 95       	swap	r24
    1096:	80 7f       	andi	r24, 0xF0	; 240
    1098:	f7 01       	movw	r30, r14
    109a:	94 81       	ldd	r25, Z+4	; 0x04
    109c:	9f 7c       	andi	r25, 0xCF	; 207
    109e:	89 2b       	or	r24, r25
    10a0:	84 83       	std	Z+4, r24	; 0x04
    10a2:	7d c2       	rjmp	.+1274   	; 0x159e <parser_fetch_command+0x672>
    10a4:	b2 fc       	sbrc	r11, 2
    10a6:	8f c2       	rjmp	.+1310   	; 0x15c6 <parser_fetch_command+0x69a>
    10a8:	fb 2d       	mov	r31, r11
    10aa:	f4 60       	ori	r31, 0x04	; 4
    10ac:	bf 2e       	mov	r11, r31
    10ae:	96 ea       	ldi	r25, 0xA6	; 166
    10b0:	99 0d       	add	r25, r9
    10b2:	f7 01       	movw	r30, r14
    10b4:	84 81       	ldd	r24, Z+4	; 0x04
    10b6:	90 fb       	bst	r25, 0
    10b8:	86 f9       	bld	r24, 6
    10ba:	84 83       	std	Z+4, r24	; 0x04
    10bc:	70 c2       	rjmp	.+1248   	; 0x159e <parser_fetch_command+0x672>
    10be:	b3 fc       	sbrc	r11, 3
    10c0:	84 c2       	rjmp	.+1288   	; 0x15ca <parser_fetch_command+0x69e>
    10c2:	fb 2d       	mov	r31, r11
    10c4:	f8 60       	ori	r31, 0x08	; 8
    10c6:	bf 2e       	mov	r11, r31
    10c8:	93 ea       	ldi	r25, 0xA3	; 163
    10ca:	99 0d       	add	r25, r9
    10cc:	f7 01       	movw	r30, r14
    10ce:	84 81       	ldd	r24, Z+4	; 0x04
    10d0:	90 fb       	bst	r25, 0
    10d2:	87 f9       	bld	r24, 7
    10d4:	84 83       	std	Z+4, r24	; 0x04
    10d6:	63 c2       	rjmp	.+1222   	; 0x159e <parser_fetch_command+0x672>
    10d8:	b4 fc       	sbrc	r11, 4
    10da:	79 c2       	rjmp	.+1266   	; 0x15ce <parser_fetch_command+0x6a2>
    10dc:	fb 2d       	mov	r31, r11
    10de:	f0 61       	ori	r31, 0x10	; 16
    10e0:	bf 2e       	mov	r11, r31
    10e2:	9c ee       	ldi	r25, 0xEC	; 236
    10e4:	99 0d       	add	r25, r9
    10e6:	f7 01       	movw	r30, r14
    10e8:	85 81       	ldd	r24, Z+5	; 0x05
    10ea:	90 fb       	bst	r25, 0
    10ec:	80 f9       	bld	r24, 0
    10ee:	85 83       	std	Z+5, r24	; 0x05
    10f0:	56 c2       	rjmp	.+1196   	; 0x159e <parser_fetch_command+0x672>
    10f2:	b5 fc       	sbrc	r11, 5
    10f4:	6e c2       	rjmp	.+1244   	; 0x15d2 <parser_fetch_command+0x6a6>
    10f6:	fb 2d       	mov	r31, r11
    10f8:	f0 62       	ori	r31, 0x20	; 32
    10fa:	bf 2e       	mov	r11, r31
    10fc:	89 2d       	mov	r24, r9
    10fe:	83 70       	andi	r24, 0x03	; 3
    1100:	88 0f       	add	r24, r24
    1102:	f7 01       	movw	r30, r14
    1104:	95 81       	ldd	r25, Z+5	; 0x05
    1106:	99 7f       	andi	r25, 0xF9	; 249
    1108:	89 2b       	or	r24, r25
    110a:	85 83       	std	Z+5, r24	; 0x05
    110c:	48 c2       	rjmp	.+1168   	; 0x159e <parser_fetch_command+0x672>
    110e:	b6 fc       	sbrc	r11, 6
    1110:	62 c2       	rjmp	.+1220   	; 0x15d6 <parser_fetch_command+0x6aa>
    1112:	fb 2d       	mov	r31, r11
    1114:	f0 64       	ori	r31, 0x40	; 64
    1116:	bf 2e       	mov	r11, r31
    1118:	f7 01       	movw	r30, r14
    111a:	85 81       	ldd	r24, Z+5	; 0x05
    111c:	87 7f       	andi	r24, 0xF7	; 247
    111e:	85 83       	std	Z+5, r24	; 0x05
    1120:	3e c2       	rjmp	.+1148   	; 0x159e <parser_fetch_command+0x672>
    1122:	b6 fc       	sbrc	r11, 6
    1124:	5a c2       	rjmp	.+1204   	; 0x15da <parser_fetch_command+0x6ae>
    1126:	fb 2d       	mov	r31, r11
    1128:	f0 64       	ori	r31, 0x40	; 64
    112a:	bf 2e       	mov	r11, r31
    112c:	f7 01       	movw	r30, r14
    112e:	85 81       	ldd	r24, Z+5	; 0x05
    1130:	88 60       	ori	r24, 0x08	; 8
    1132:	85 83       	std	Z+5, r24	; 0x05
    1134:	34 c2       	rjmp	.+1128   	; 0x159e <parser_fetch_command+0x672>
    1136:	bb 20       	and	r11, r11
    1138:	0c f4       	brge	.+2      	; 0x113c <parser_fetch_command+0x210>
    113a:	51 c2       	rjmp	.+1186   	; 0x15de <parser_fetch_command+0x6b2>
    113c:	fb 2d       	mov	r31, r11
    113e:	f0 68       	ori	r31, 0x80	; 128
    1140:	bf 2e       	mov	r11, r31
    1142:	9e e9       	ldi	r25, 0x9E	; 158
    1144:	99 0d       	add	r25, r9
    1146:	f7 01       	movw	r30, r14
    1148:	85 81       	ldd	r24, Z+5	; 0x05
    114a:	90 fb       	bst	r25, 0
    114c:	84 f9       	bld	r24, 4
    114e:	85 83       	std	Z+5, r24	; 0x05
    1150:	26 c2       	rjmp	.+1100   	; 0x159e <parser_fetch_command+0x672>
    1152:	a0 fc       	sbrc	r10, 0
    1154:	46 c2       	rjmp	.+1164   	; 0x15e2 <parser_fetch_command+0x6b6>
    1156:	fa 2d       	mov	r31, r10
    1158:	f1 60       	ori	r31, 0x01	; 1
    115a:	af 2e       	mov	r10, r31
    115c:	8b e3       	ldi	r24, 0x3B	; 59
    115e:	98 16       	cp	r9, r24
    1160:	09 f4       	brne	.+2      	; 0x1164 <parser_fetch_command+0x238>
    1162:	41 c2       	rjmp	.+1154   	; 0x15e6 <parser_fetch_command+0x6ba>
    1164:	8a ec       	ldi	r24, 0xCA	; 202
    1166:	89 0d       	add	r24, r9
    1168:	82 95       	swap	r24
    116a:	88 0f       	add	r24, r24
    116c:	80 7e       	andi	r24, 0xE0	; 224
    116e:	f7 01       	movw	r30, r14
    1170:	95 81       	ldd	r25, Z+5	; 0x05
    1172:	9f 71       	andi	r25, 0x1F	; 31
    1174:	89 2b       	or	r24, r25
    1176:	85 83       	std	Z+5, r24	; 0x05
    1178:	12 c2       	rjmp	.+1060   	; 0x159e <parser_fetch_command+0x672>
    117a:	a1 fc       	sbrc	r10, 1
    117c:	36 c2       	rjmp	.+1132   	; 0x15ea <parser_fetch_command+0x6be>
    117e:	fa 2d       	mov	r31, r10
    1180:	f2 60       	ori	r31, 0x02	; 2
    1182:	af 2e       	mov	r10, r31
    1184:	f7 01       	movw	r30, r14
    1186:	86 81       	ldd	r24, Z+6	; 0x06
    1188:	8c 7f       	andi	r24, 0xFC	; 252
    118a:	86 83       	std	Z+6, r24	; 0x06
    118c:	08 c2       	rjmp	.+1040   	; 0x159e <parser_fetch_command+0x672>
    118e:	a1 fc       	sbrc	r10, 1
    1190:	2e c2       	rjmp	.+1116   	; 0x15ee <parser_fetch_command+0x6c2>
    1192:	fa 2d       	mov	r31, r10
    1194:	f2 60       	ori	r31, 0x02	; 2
    1196:	af 2e       	mov	r10, r31
    1198:	f7 01       	movw	r30, r14
    119a:	86 81       	ldd	r24, Z+6	; 0x06
    119c:	8c 7f       	andi	r24, 0xFC	; 252
    119e:	81 60       	ori	r24, 0x01	; 1
    11a0:	86 83       	std	Z+6, r24	; 0x06
    11a2:	fd c1       	rjmp	.+1018   	; 0x159e <parser_fetch_command+0x672>
    11a4:	69 2d       	mov	r22, r9
    11a6:	70 e0       	ldi	r23, 0x00	; 0
    11a8:	80 e0       	ldi	r24, 0x00	; 0
    11aa:	90 e0       	ldi	r25, 0x00	; 0
    11ac:	0e 94 1e 1a 	call	0x343c	; 0x343c <__floatsisf>
    11b0:	9b 01       	movw	r18, r22
    11b2:	ac 01       	movw	r20, r24
    11b4:	c3 01       	movw	r24, r6
    11b6:	b2 01       	movw	r22, r4
    11b8:	0e 94 09 19 	call	0x3212	; 0x3212 <__subsf3>
    11bc:	20 e0       	ldi	r18, 0x00	; 0
    11be:	30 e0       	ldi	r19, 0x00	; 0
    11c0:	40 e2       	ldi	r20, 0x20	; 32
    11c2:	51 e4       	ldi	r21, 0x41	; 65
    11c4:	0e 94 d3 1a 	call	0x35a6	; 0x35a6 <__mulsf3>
    11c8:	0e 94 40 1b 	call	0x3680	; 0x3680 <round>
    11cc:	0e 94 ed 19 	call	0x33da	; 0x33da <__fixunssfsi>
    11d0:	f9 e0       	ldi	r31, 0x09	; 9
    11d2:	f9 15       	cp	r31, r9
    11d4:	40 f4       	brcc	.+16     	; 0x11e6 <parser_fetch_command+0x2ba>
    11d6:	8d ec       	ldi	r24, 0xCD	; 205
    11d8:	98 9e       	mul	r9, r24
    11da:	91 2c       	mov	r9, r1
    11dc:	11 24       	eor	r1, r1
    11de:	96 94       	lsr	r9
    11e0:	96 94       	lsr	r9
    11e2:	96 94       	lsr	r9
    11e4:	96 0e       	add	r9, r22
    11e6:	aa 20       	and	r10, r10
    11e8:	0c f4       	brge	.+2      	; 0x11ec <parser_fetch_command+0x2c0>
    11ea:	03 c2       	rjmp	.+1030   	; 0x15f2 <parser_fetch_command+0x6c6>
    11ec:	8a 2d       	mov	r24, r10
    11ee:	80 68       	ori	r24, 0x80	; 128
    11f0:	a8 2e       	mov	r10, r24
    11f2:	89 2d       	mov	r24, r9
    11f4:	8f 70       	andi	r24, 0x0F	; 15
    11f6:	88 0f       	add	r24, r24
    11f8:	88 0f       	add	r24, r24
    11fa:	88 0f       	add	r24, r24
    11fc:	f7 01       	movw	r30, r14
    11fe:	97 81       	ldd	r25, Z+7	; 0x07
    1200:	97 78       	andi	r25, 0x87	; 135
    1202:	89 2b       	or	r24, r25
    1204:	87 83       	std	Z+7, r24	; 0x07
    1206:	cb c1       	rjmp	.+918    	; 0x159e <parser_fetch_command+0x672>
    1208:	8d 81       	ldd	r24, Y+5	; 0x05
    120a:	88 23       	and	r24, r24
    120c:	09 f4       	brne	.+2      	; 0x1210 <parser_fetch_command+0x2e4>
    120e:	f3 c1       	rjmp	.+998    	; 0x15f6 <parser_fetch_command+0x6ca>
    1210:	69 81       	ldd	r22, Y+1	; 0x01
    1212:	7a 81       	ldd	r23, Y+2	; 0x02
    1214:	8b 81       	ldd	r24, Y+3	; 0x03
    1216:	9c 81       	ldd	r25, Y+4	; 0x04
    1218:	0e 94 ed 19 	call	0x33da	; 0x33da <__fixunssfsi>
    121c:	86 2f       	mov	r24, r22
    121e:	90 e0       	ldi	r25, 0x00	; 0
    1220:	8d 33       	cpi	r24, 0x3D	; 61
    1222:	91 05       	cpc	r25, r1
    1224:	08 f0       	brcs	.+2      	; 0x1228 <parser_fetch_command+0x2fc>
    1226:	e9 c1       	rjmp	.+978    	; 0x15fa <parser_fetch_command+0x6ce>
    1228:	fc 01       	movw	r30, r24
    122a:	ee 54       	subi	r30, 0x4E	; 78
    122c:	ff 4f       	sbci	r31, 0xFF	; 255
    122e:	0c 94 da 1b 	jmp	0x37b4	; 0x37b4 <__tablejump2__>
    1232:	a2 fc       	sbrc	r10, 2
    1234:	e4 c1       	rjmp	.+968    	; 0x15fe <parser_fetch_command+0x6d2>
    1236:	fa 2d       	mov	r31, r10
    1238:	f4 60       	ori	r31, 0x04	; 4
    123a:	af 2e       	mov	r10, r31
    123c:	6a 30       	cpi	r22, 0x0A	; 10
    123e:	38 f0       	brcs	.+14     	; 0x124e <parser_fetch_command+0x322>
    1240:	8d ec       	ldi	r24, 0xCD	; 205
    1242:	68 9f       	mul	r22, r24
    1244:	61 2d       	mov	r22, r1
    1246:	11 24       	eor	r1, r1
    1248:	66 95       	lsr	r22
    124a:	66 95       	lsr	r22
    124c:	66 95       	lsr	r22
    124e:	86 2f       	mov	r24, r22
    1250:	87 70       	andi	r24, 0x07	; 7
    1252:	88 0f       	add	r24, r24
    1254:	88 0f       	add	r24, r24
    1256:	f7 01       	movw	r30, r14
    1258:	96 81       	ldd	r25, Z+6	; 0x06
    125a:	93 7e       	andi	r25, 0xE3	; 227
    125c:	89 2b       	or	r24, r25
    125e:	86 83       	std	Z+6, r24	; 0x06
    1260:	9e c1       	rjmp	.+828    	; 0x159e <parser_fetch_command+0x672>
    1262:	a4 fc       	sbrc	r10, 4
    1264:	ce c1       	rjmp	.+924    	; 0x1602 <parser_fetch_command+0x6d6>
    1266:	fa 2d       	mov	r31, r10
    1268:	f0 61       	ori	r31, 0x10	; 16
    126a:	af 2e       	mov	r10, r31
    126c:	8d ef       	ldi	r24, 0xFD	; 253
    126e:	86 0f       	add	r24, r22
    1270:	82 95       	swap	r24
    1272:	88 0f       	add	r24, r24
    1274:	88 0f       	add	r24, r24
    1276:	80 7c       	andi	r24, 0xC0	; 192
    1278:	f7 01       	movw	r30, r14
    127a:	96 81       	ldd	r25, Z+6	; 0x06
    127c:	9f 73       	andi	r25, 0x3F	; 63
    127e:	89 2b       	or	r24, r25
    1280:	86 83       	std	Z+6, r24	; 0x06
    1282:	8d c1       	rjmp	.+794    	; 0x159e <parser_fetch_command+0x672>
    1284:	f7 01       	movw	r30, r14
    1286:	87 81       	ldd	r24, Z+7	; 0x07
    1288:	81 60       	ori	r24, 0x01	; 1
    128a:	87 83       	std	Z+7, r24	; 0x07
    128c:	88 c1       	rjmp	.+784    	; 0x159e <parser_fetch_command+0x672>
    128e:	f7 01       	movw	r30, r14
    1290:	87 81       	ldd	r24, Z+7	; 0x07
    1292:	82 60       	ori	r24, 0x02	; 2
    1294:	87 83       	std	Z+7, r24	; 0x07
    1296:	83 c1       	rjmp	.+774    	; 0x159e <parser_fetch_command+0x672>
    1298:	f7 01       	movw	r30, r14
    129a:	87 81       	ldd	r24, Z+7	; 0x07
    129c:	8c 7f       	andi	r24, 0xFC	; 252
    129e:	87 83       	std	Z+7, r24	; 0x07
    12a0:	7e c1       	rjmp	.+764    	; 0x159e <parser_fetch_command+0x672>
    12a2:	a6 fc       	sbrc	r10, 6
    12a4:	b0 c1       	rjmp	.+864    	; 0x1606 <parser_fetch_command+0x6da>
    12a6:	fa 2d       	mov	r31, r10
    12a8:	f0 64       	ori	r31, 0x40	; 64
    12aa:	af 2e       	mov	r10, r31
    12ac:	60 53       	subi	r22, 0x30	; 48
    12ae:	f7 01       	movw	r30, r14
    12b0:	87 81       	ldd	r24, Z+7	; 0x07
    12b2:	60 fb       	bst	r22, 0
    12b4:	82 f9       	bld	r24, 2
    12b6:	87 83       	std	Z+7, r24	; 0x07
    12b8:	72 c1       	rjmp	.+740    	; 0x159e <parser_fetch_command+0x672>
    12ba:	c2 fc       	sbrc	r12, 2
    12bc:	a6 c1       	rjmp	.+844    	; 0x160a <parser_fetch_command+0x6de>
    12be:	88 20       	and	r8, r8
    12c0:	09 f4       	brne	.+2      	; 0x12c4 <parser_fetch_command+0x398>
    12c2:	a5 c1       	rjmp	.+842    	; 0x160e <parser_fetch_command+0x6e2>
    12c4:	8d 81       	ldd	r24, Y+5	; 0x05
    12c6:	88 23       	and	r24, r24
    12c8:	09 f4       	brne	.+2      	; 0x12cc <parser_fetch_command+0x3a0>
    12ca:	a3 c1       	rjmp	.+838    	; 0x1612 <parser_fetch_command+0x6e6>
    12cc:	11 11       	cpse	r17, r1
    12ce:	a3 c1       	rjmp	.+838    	; 0x1616 <parser_fetch_command+0x6ea>
    12d0:	49 80       	ldd	r4, Y+1	; 0x01
    12d2:	5a 80       	ldd	r5, Y+2	; 0x02
    12d4:	6b 80       	ldd	r6, Y+3	; 0x03
    12d6:	7c 80       	ldd	r7, Y+4	; 0x04
    12d8:	20 e0       	ldi	r18, 0x00	; 0
    12da:	30 e0       	ldi	r19, 0x00	; 0
    12dc:	a9 01       	movw	r20, r18
    12de:	c3 01       	movw	r24, r6
    12e0:	b2 01       	movw	r22, r4
    12e2:	0e 94 76 19 	call	0x32ec	; 0x32ec <__cmpsf2>
    12e6:	88 23       	and	r24, r24
    12e8:	0c f4       	brge	.+2      	; 0x12ec <parser_fetch_command+0x3c0>
    12ea:	97 c1       	rjmp	.+814    	; 0x161a <parser_fetch_command+0x6ee>
    12ec:	c3 01       	movw	r24, r6
    12ee:	b2 01       	movw	r22, r4
    12f0:	0e 94 ed 19 	call	0x33da	; 0x33da <__fixunssfsi>
    12f4:	f7 01       	movw	r30, r14
    12f6:	60 83       	st	Z, r22
    12f8:	71 83       	std	Z+1, r23	; 0x01
    12fa:	82 83       	std	Z+2, r24	; 0x02
    12fc:	93 83       	std	Z+3, r25	; 0x03
    12fe:	30 fc       	sbrc	r3, 0
    1300:	8e c1       	rjmp	.+796    	; 0x161e <parser_fetch_command+0x6f2>
    1302:	f3 2d       	mov	r31, r3
    1304:	f1 60       	ori	r31, 0x01	; 1
    1306:	3f 2e       	mov	r3, r31
    1308:	88 20       	and	r8, r8
    130a:	09 f4       	brne	.+2      	; 0x130e <parser_fetch_command+0x3e2>
    130c:	48 c1       	rjmp	.+656    	; 0x159e <parser_fetch_command+0x672>
    130e:	89 81       	ldd	r24, Y+1	; 0x01
    1310:	9a 81       	ldd	r25, Y+2	; 0x02
    1312:	ab 81       	ldd	r26, Y+3	; 0x03
    1314:	bc 81       	ldd	r27, Y+4	; 0x04
    1316:	f7 01       	movw	r30, r14
    1318:	80 87       	std	Z+8, r24	; 0x08
    131a:	91 87       	std	Z+9, r25	; 0x09
    131c:	a2 87       	std	Z+10, r26	; 0x0a
    131e:	b3 87       	std	Z+11, r27	; 0x0b
    1320:	3e c1       	rjmp	.+636    	; 0x159e <parser_fetch_command+0x672>
    1322:	31 fc       	sbrc	r3, 1
    1324:	7e c1       	rjmp	.+764    	; 0x1622 <parser_fetch_command+0x6f6>
    1326:	f3 2d       	mov	r31, r3
    1328:	f2 60       	ori	r31, 0x02	; 2
    132a:	3f 2e       	mov	r3, r31
    132c:	88 20       	and	r8, r8
    132e:	09 f4       	brne	.+2      	; 0x1332 <parser_fetch_command+0x406>
    1330:	36 c1       	rjmp	.+620    	; 0x159e <parser_fetch_command+0x672>
    1332:	89 81       	ldd	r24, Y+1	; 0x01
    1334:	9a 81       	ldd	r25, Y+2	; 0x02
    1336:	ab 81       	ldd	r26, Y+3	; 0x03
    1338:	bc 81       	ldd	r27, Y+4	; 0x04
    133a:	f7 01       	movw	r30, r14
    133c:	84 87       	std	Z+12, r24	; 0x0c
    133e:	95 87       	std	Z+13, r25	; 0x0d
    1340:	a6 87       	std	Z+14, r26	; 0x0e
    1342:	b7 87       	std	Z+15, r27	; 0x0f
    1344:	2c c1       	rjmp	.+600    	; 0x159e <parser_fetch_command+0x672>
    1346:	32 fc       	sbrc	r3, 2
    1348:	6e c1       	rjmp	.+732    	; 0x1626 <parser_fetch_command+0x6fa>
    134a:	f3 2d       	mov	r31, r3
    134c:	f4 60       	ori	r31, 0x04	; 4
    134e:	3f 2e       	mov	r3, r31
    1350:	88 20       	and	r8, r8
    1352:	09 f4       	brne	.+2      	; 0x1356 <parser_fetch_command+0x42a>
    1354:	24 c1       	rjmp	.+584    	; 0x159e <parser_fetch_command+0x672>
    1356:	89 81       	ldd	r24, Y+1	; 0x01
    1358:	9a 81       	ldd	r25, Y+2	; 0x02
    135a:	ab 81       	ldd	r26, Y+3	; 0x03
    135c:	bc 81       	ldd	r27, Y+4	; 0x04
    135e:	f7 01       	movw	r30, r14
    1360:	80 8b       	std	Z+16, r24	; 0x10
    1362:	91 8b       	std	Z+17, r25	; 0x11
    1364:	a2 8b       	std	Z+18, r26	; 0x12
    1366:	b3 8b       	std	Z+19, r27	; 0x13
    1368:	1a c1       	rjmp	.+564    	; 0x159e <parser_fetch_command+0x672>
    136a:	33 fc       	sbrc	r3, 3
    136c:	5e c1       	rjmp	.+700    	; 0x162a <parser_fetch_command+0x6fe>
    136e:	f3 2d       	mov	r31, r3
    1370:	f8 60       	ori	r31, 0x08	; 8
    1372:	3f 2e       	mov	r3, r31
    1374:	88 20       	and	r8, r8
    1376:	09 f4       	brne	.+2      	; 0x137a <parser_fetch_command+0x44e>
    1378:	12 c1       	rjmp	.+548    	; 0x159e <parser_fetch_command+0x672>
    137a:	89 81       	ldd	r24, Y+1	; 0x01
    137c:	9a 81       	ldd	r25, Y+2	; 0x02
    137e:	ab 81       	ldd	r26, Y+3	; 0x03
    1380:	bc 81       	ldd	r27, Y+4	; 0x04
    1382:	f7 01       	movw	r30, r14
    1384:	84 8b       	std	Z+20, r24	; 0x14
    1386:	95 8b       	std	Z+21, r25	; 0x15
    1388:	a6 8b       	std	Z+22, r26	; 0x16
    138a:	b7 8b       	std	Z+23, r27	; 0x17
    138c:	08 c1       	rjmp	.+528    	; 0x159e <parser_fetch_command+0x672>
    138e:	34 fc       	sbrc	r3, 4
    1390:	4e c1       	rjmp	.+668    	; 0x162e <parser_fetch_command+0x702>
    1392:	f3 2d       	mov	r31, r3
    1394:	f0 61       	ori	r31, 0x10	; 16
    1396:	3f 2e       	mov	r3, r31
    1398:	88 20       	and	r8, r8
    139a:	09 f4       	brne	.+2      	; 0x139e <parser_fetch_command+0x472>
    139c:	00 c1       	rjmp	.+512    	; 0x159e <parser_fetch_command+0x672>
    139e:	89 81       	ldd	r24, Y+1	; 0x01
    13a0:	9a 81       	ldd	r25, Y+2	; 0x02
    13a2:	ab 81       	ldd	r26, Y+3	; 0x03
    13a4:	bc 81       	ldd	r27, Y+4	; 0x04
    13a6:	f7 01       	movw	r30, r14
    13a8:	80 8f       	std	Z+24, r24	; 0x18
    13aa:	91 8f       	std	Z+25, r25	; 0x19
    13ac:	a2 8f       	std	Z+26, r26	; 0x1a
    13ae:	b3 8f       	std	Z+27, r27	; 0x1b
    13b0:	f6 c0       	rjmp	.+492    	; 0x159e <parser_fetch_command+0x672>
    13b2:	35 fc       	sbrc	r3, 5
    13b4:	3e c1       	rjmp	.+636    	; 0x1632 <parser_fetch_command+0x706>
    13b6:	f3 2d       	mov	r31, r3
    13b8:	f0 62       	ori	r31, 0x20	; 32
    13ba:	3f 2e       	mov	r3, r31
    13bc:	88 20       	and	r8, r8
    13be:	09 f4       	brne	.+2      	; 0x13c2 <parser_fetch_command+0x496>
    13c0:	ee c0       	rjmp	.+476    	; 0x159e <parser_fetch_command+0x672>
    13c2:	89 81       	ldd	r24, Y+1	; 0x01
    13c4:	9a 81       	ldd	r25, Y+2	; 0x02
    13c6:	ab 81       	ldd	r26, Y+3	; 0x03
    13c8:	bc 81       	ldd	r27, Y+4	; 0x04
    13ca:	f7 01       	movw	r30, r14
    13cc:	84 8f       	std	Z+28, r24	; 0x1c
    13ce:	95 8f       	std	Z+29, r25	; 0x1d
    13d0:	a6 8f       	std	Z+30, r26	; 0x1e
    13d2:	b7 8f       	std	Z+31, r27	; 0x1f
    13d4:	e4 c0       	rjmp	.+456    	; 0x159e <parser_fetch_command+0x672>
    13d6:	36 fc       	sbrc	r3, 6
    13d8:	2e c1       	rjmp	.+604    	; 0x1636 <parser_fetch_command+0x70a>
    13da:	88 20       	and	r8, r8
    13dc:	09 f4       	brne	.+2      	; 0x13e0 <parser_fetch_command+0x4b4>
    13de:	2d c1       	rjmp	.+602    	; 0x163a <parser_fetch_command+0x70e>
    13e0:	f3 2d       	mov	r31, r3
    13e2:	f0 64       	ori	r31, 0x40	; 64
    13e4:	3f 2e       	mov	r3, r31
    13e6:	89 81       	ldd	r24, Y+1	; 0x01
    13e8:	9a 81       	ldd	r25, Y+2	; 0x02
    13ea:	ab 81       	ldd	r26, Y+3	; 0x03
    13ec:	bc 81       	ldd	r27, Y+4	; 0x04
    13ee:	f7 01       	movw	r30, r14
    13f0:	84 8b       	std	Z+20, r24	; 0x14
    13f2:	95 8b       	std	Z+21, r25	; 0x15
    13f4:	a6 8b       	std	Z+22, r26	; 0x16
    13f6:	b7 8b       	std	Z+23, r27	; 0x17
    13f8:	d2 c0       	rjmp	.+420    	; 0x159e <parser_fetch_command+0x672>
    13fa:	33 20       	and	r3, r3
    13fc:	0c f4       	brge	.+2      	; 0x1400 <parser_fetch_command+0x4d4>
    13fe:	1f c1       	rjmp	.+574    	; 0x163e <parser_fetch_command+0x712>
    1400:	88 20       	and	r8, r8
    1402:	09 f4       	brne	.+2      	; 0x1406 <parser_fetch_command+0x4da>
    1404:	1e c1       	rjmp	.+572    	; 0x1642 <parser_fetch_command+0x716>
    1406:	f3 2d       	mov	r31, r3
    1408:	f0 68       	ori	r31, 0x80	; 128
    140a:	3f 2e       	mov	r3, r31
    140c:	89 81       	ldd	r24, Y+1	; 0x01
    140e:	9a 81       	ldd	r25, Y+2	; 0x02
    1410:	ab 81       	ldd	r26, Y+3	; 0x03
    1412:	bc 81       	ldd	r27, Y+4	; 0x04
    1414:	f7 01       	movw	r30, r14
    1416:	80 8f       	std	Z+24, r24	; 0x18
    1418:	91 8f       	std	Z+25, r25	; 0x19
    141a:	a2 8f       	std	Z+26, r26	; 0x1a
    141c:	b3 8f       	std	Z+27, r27	; 0x1b
    141e:	bf c0       	rjmp	.+382    	; 0x159e <parser_fetch_command+0x672>
    1420:	d0 fc       	sbrc	r13, 0
    1422:	11 c1       	rjmp	.+546    	; 0x1646 <parser_fetch_command+0x71a>
    1424:	88 20       	and	r8, r8
    1426:	09 f4       	brne	.+2      	; 0x142a <parser_fetch_command+0x4fe>
    1428:	10 c1       	rjmp	.+544    	; 0x164a <parser_fetch_command+0x71e>
    142a:	fd 2d       	mov	r31, r13
    142c:	f1 60       	ori	r31, 0x01	; 1
    142e:	df 2e       	mov	r13, r31
    1430:	89 81       	ldd	r24, Y+1	; 0x01
    1432:	9a 81       	ldd	r25, Y+2	; 0x02
    1434:	ab 81       	ldd	r26, Y+3	; 0x03
    1436:	bc 81       	ldd	r27, Y+4	; 0x04
    1438:	f7 01       	movw	r30, r14
    143a:	84 8f       	std	Z+28, r24	; 0x1c
    143c:	95 8f       	std	Z+29, r25	; 0x1d
    143e:	a6 8f       	std	Z+30, r26	; 0x1e
    1440:	b7 8f       	std	Z+31, r27	; 0x1f
    1442:	ad c0       	rjmp	.+346    	; 0x159e <parser_fetch_command+0x672>
    1444:	d1 fc       	sbrc	r13, 1
    1446:	03 c1       	rjmp	.+518    	; 0x164e <parser_fetch_command+0x722>
    1448:	88 20       	and	r8, r8
    144a:	09 f4       	brne	.+2      	; 0x144e <parser_fetch_command+0x522>
    144c:	02 c1       	rjmp	.+516    	; 0x1652 <parser_fetch_command+0x726>
    144e:	fd 2d       	mov	r31, r13
    1450:	f2 60       	ori	r31, 0x02	; 2
    1452:	df 2e       	mov	r13, r31
    1454:	89 81       	ldd	r24, Y+1	; 0x01
    1456:	9a 81       	ldd	r25, Y+2	; 0x02
    1458:	ab 81       	ldd	r26, Y+3	; 0x03
    145a:	bc 81       	ldd	r27, Y+4	; 0x04
    145c:	f7 01       	movw	r30, r14
    145e:	80 a3       	std	Z+32, r24	; 0x20
    1460:	91 a3       	std	Z+33, r25	; 0x21
    1462:	a2 a3       	std	Z+34, r26	; 0x22
    1464:	b3 a3       	std	Z+35, r27	; 0x23
    1466:	9b c0       	rjmp	.+310    	; 0x159e <parser_fetch_command+0x672>
    1468:	d2 fc       	sbrc	r13, 2
    146a:	f5 c0       	rjmp	.+490    	; 0x1656 <parser_fetch_command+0x72a>
    146c:	88 20       	and	r8, r8
    146e:	09 f4       	brne	.+2      	; 0x1472 <parser_fetch_command+0x546>
    1470:	f4 c0       	rjmp	.+488    	; 0x165a <parser_fetch_command+0x72e>
    1472:	fd 2d       	mov	r31, r13
    1474:	f4 60       	ori	r31, 0x04	; 4
    1476:	df 2e       	mov	r13, r31
    1478:	89 81       	ldd	r24, Y+1	; 0x01
    147a:	9a 81       	ldd	r25, Y+2	; 0x02
    147c:	ab 81       	ldd	r26, Y+3	; 0x03
    147e:	bc 81       	ldd	r27, Y+4	; 0x04
    1480:	f7 01       	movw	r30, r14
    1482:	84 a3       	std	Z+36, r24	; 0x24
    1484:	95 a3       	std	Z+37, r25	; 0x25
    1486:	a6 a3       	std	Z+38, r26	; 0x26
    1488:	b7 a3       	std	Z+39, r27	; 0x27
    148a:	89 c0       	rjmp	.+274    	; 0x159e <parser_fetch_command+0x672>
    148c:	d3 fc       	sbrc	r13, 3
    148e:	e7 c0       	rjmp	.+462    	; 0x165e <parser_fetch_command+0x732>
    1490:	88 20       	and	r8, r8
    1492:	09 f4       	brne	.+2      	; 0x1496 <parser_fetch_command+0x56a>
    1494:	e6 c0       	rjmp	.+460    	; 0x1662 <parser_fetch_command+0x736>
    1496:	fd 2d       	mov	r31, r13
    1498:	f8 60       	ori	r31, 0x08	; 8
    149a:	df 2e       	mov	r13, r31
    149c:	89 81       	ldd	r24, Y+1	; 0x01
    149e:	9a 81       	ldd	r25, Y+2	; 0x02
    14a0:	ab 81       	ldd	r26, Y+3	; 0x03
    14a2:	bc 81       	ldd	r27, Y+4	; 0x04
    14a4:	f7 01       	movw	r30, r14
    14a6:	80 a7       	std	Z+40, r24	; 0x28
    14a8:	91 a7       	std	Z+41, r25	; 0x29
    14aa:	a2 a7       	std	Z+42, r26	; 0x2a
    14ac:	b3 a7       	std	Z+43, r27	; 0x2b
    14ae:	77 c0       	rjmp	.+238    	; 0x159e <parser_fetch_command+0x672>
    14b0:	d4 fc       	sbrc	r13, 4
    14b2:	d9 c0       	rjmp	.+434    	; 0x1666 <parser_fetch_command+0x73a>
    14b4:	88 20       	and	r8, r8
    14b6:	09 f4       	brne	.+2      	; 0x14ba <parser_fetch_command+0x58e>
    14b8:	d8 c0       	rjmp	.+432    	; 0x166a <parser_fetch_command+0x73e>
    14ba:	8d 81       	ldd	r24, Y+5	; 0x05
    14bc:	88 23       	and	r24, r24
    14be:	09 f4       	brne	.+2      	; 0x14c2 <parser_fetch_command+0x596>
    14c0:	d6 c0       	rjmp	.+428    	; 0x166e <parser_fetch_command+0x742>
    14c2:	fd 2d       	mov	r31, r13
    14c4:	f0 61       	ori	r31, 0x10	; 16
    14c6:	df 2e       	mov	r13, r31
    14c8:	89 81       	ldd	r24, Y+1	; 0x01
    14ca:	9a 81       	ldd	r25, Y+2	; 0x02
    14cc:	ab 81       	ldd	r26, Y+3	; 0x03
    14ce:	bc 81       	ldd	r27, Y+4	; 0x04
    14d0:	f7 01       	movw	r30, r14
    14d2:	84 a7       	std	Z+44, r24	; 0x2c
    14d4:	95 a7       	std	Z+45, r25	; 0x2d
    14d6:	a6 a7       	std	Z+46, r26	; 0x2e
    14d8:	b7 a7       	std	Z+47, r27	; 0x2f
    14da:	61 c0       	rjmp	.+194    	; 0x159e <parser_fetch_command+0x672>
    14dc:	d5 fc       	sbrc	r13, 5
    14de:	c9 c0       	rjmp	.+402    	; 0x1672 <parser_fetch_command+0x746>
    14e0:	88 20       	and	r8, r8
    14e2:	09 f4       	brne	.+2      	; 0x14e6 <parser_fetch_command+0x5ba>
    14e4:	c8 c0       	rjmp	.+400    	; 0x1676 <parser_fetch_command+0x74a>
    14e6:	fd 2d       	mov	r31, r13
    14e8:	f0 62       	ori	r31, 0x20	; 32
    14ea:	df 2e       	mov	r13, r31
    14ec:	89 81       	ldd	r24, Y+1	; 0x01
    14ee:	9a 81       	ldd	r25, Y+2	; 0x02
    14f0:	ab 81       	ldd	r26, Y+3	; 0x03
    14f2:	bc 81       	ldd	r27, Y+4	; 0x04
    14f4:	f7 01       	movw	r30, r14
    14f6:	80 ab       	std	Z+48, r24	; 0x30
    14f8:	91 ab       	std	Z+49, r25	; 0x31
    14fa:	a2 ab       	std	Z+50, r26	; 0x32
    14fc:	b3 ab       	std	Z+51, r27	; 0x33
    14fe:	4f c0       	rjmp	.+158    	; 0x159e <parser_fetch_command+0x672>
    1500:	d6 fc       	sbrc	r13, 6
    1502:	bb c0       	rjmp	.+374    	; 0x167a <parser_fetch_command+0x74e>
    1504:	88 20       	and	r8, r8
    1506:	09 f4       	brne	.+2      	; 0x150a <parser_fetch_command+0x5de>
    1508:	ba c0       	rjmp	.+372    	; 0x167e <parser_fetch_command+0x752>
    150a:	fd 2d       	mov	r31, r13
    150c:	f0 64       	ori	r31, 0x40	; 64
    150e:	df 2e       	mov	r13, r31
    1510:	89 81       	ldd	r24, Y+1	; 0x01
    1512:	9a 81       	ldd	r25, Y+2	; 0x02
    1514:	ab 81       	ldd	r26, Y+3	; 0x03
    1516:	bc 81       	ldd	r27, Y+4	; 0x04
    1518:	f7 01       	movw	r30, r14
    151a:	84 ab       	std	Z+52, r24	; 0x34
    151c:	95 ab       	std	Z+53, r25	; 0x35
    151e:	a6 ab       	std	Z+54, r26	; 0x36
    1520:	b7 ab       	std	Z+55, r27	; 0x37
    1522:	3d c0       	rjmp	.+122    	; 0x159e <parser_fetch_command+0x672>
    1524:	dd 20       	and	r13, r13
    1526:	0c f4       	brge	.+2      	; 0x152a <parser_fetch_command+0x5fe>
    1528:	ac c0       	rjmp	.+344    	; 0x1682 <parser_fetch_command+0x756>
    152a:	88 20       	and	r8, r8
    152c:	09 f4       	brne	.+2      	; 0x1530 <parser_fetch_command+0x604>
    152e:	ab c0       	rjmp	.+342    	; 0x1686 <parser_fetch_command+0x75a>
    1530:	fd 2d       	mov	r31, r13
    1532:	f0 68       	ori	r31, 0x80	; 128
    1534:	df 2e       	mov	r13, r31
    1536:	89 81       	ldd	r24, Y+1	; 0x01
    1538:	9a 81       	ldd	r25, Y+2	; 0x02
    153a:	ab 81       	ldd	r26, Y+3	; 0x03
    153c:	bc 81       	ldd	r27, Y+4	; 0x04
    153e:	f7 01       	movw	r30, r14
    1540:	80 af       	std	Z+56, r24	; 0x38
    1542:	91 af       	std	Z+57, r25	; 0x39
    1544:	a2 af       	std	Z+58, r26	; 0x3a
    1546:	b3 af       	std	Z+59, r27	; 0x3b
    1548:	2a c0       	rjmp	.+84     	; 0x159e <parser_fetch_command+0x672>
    154a:	c0 fc       	sbrc	r12, 0
    154c:	9e c0       	rjmp	.+316    	; 0x168a <parser_fetch_command+0x75e>
    154e:	88 20       	and	r8, r8
    1550:	09 f4       	brne	.+2      	; 0x1554 <parser_fetch_command+0x628>
    1552:	9d c0       	rjmp	.+314    	; 0x168e <parser_fetch_command+0x762>
    1554:	fc 2d       	mov	r31, r12
    1556:	f1 60       	ori	r31, 0x01	; 1
    1558:	cf 2e       	mov	r12, r31
    155a:	89 81       	ldd	r24, Y+1	; 0x01
    155c:	9a 81       	ldd	r25, Y+2	; 0x02
    155e:	ab 81       	ldd	r26, Y+3	; 0x03
    1560:	bc 81       	ldd	r27, Y+4	; 0x04
    1562:	f7 01       	movw	r30, r14
    1564:	84 af       	std	Z+60, r24	; 0x3c
    1566:	95 af       	std	Z+61, r25	; 0x3d
    1568:	a6 af       	std	Z+62, r26	; 0x3e
    156a:	b7 af       	std	Z+63, r27	; 0x3f
    156c:	18 c0       	rjmp	.+48     	; 0x159e <parser_fetch_command+0x672>
    156e:	c1 fc       	sbrc	r12, 1
    1570:	90 c0       	rjmp	.+288    	; 0x1692 <parser_fetch_command+0x766>
    1572:	88 20       	and	r8, r8
    1574:	09 f4       	brne	.+2      	; 0x1578 <parser_fetch_command+0x64c>
    1576:	8f c0       	rjmp	.+286    	; 0x1696 <parser_fetch_command+0x76a>
    1578:	8d 81       	ldd	r24, Y+5	; 0x05
    157a:	88 23       	and	r24, r24
    157c:	09 f4       	brne	.+2      	; 0x1580 <parser_fetch_command+0x654>
    157e:	8d c0       	rjmp	.+282    	; 0x169a <parser_fetch_command+0x76e>
    1580:	fc 2d       	mov	r31, r12
    1582:	f2 60       	ori	r31, 0x02	; 2
    1584:	cf 2e       	mov	r12, r31
    1586:	47 01       	movw	r8, r14
    1588:	80 e4       	ldi	r24, 0x40	; 64
    158a:	88 0e       	add	r8, r24
    158c:	91 1c       	adc	r9, r1
    158e:	69 81       	ldd	r22, Y+1	; 0x01
    1590:	7a 81       	ldd	r23, Y+2	; 0x02
    1592:	8b 81       	ldd	r24, Y+3	; 0x03
    1594:	9c 81       	ldd	r25, Y+4	; 0x04
    1596:	0e 94 ed 19 	call	0x33da	; 0x33da <__fixunssfsi>
    159a:	f4 01       	movw	r30, r8
    159c:	60 83       	st	Z, r22
    159e:	1f 5f       	subi	r17, 0xFF	; 255
    15a0:	e6 cc       	rjmp	.-1588   	; 0xf6e <parser_fetch_command+0x42>
    15a2:	80 e0       	ldi	r24, 0x00	; 0
    15a4:	7b c0       	rjmp	.+246    	; 0x169c <parser_fetch_command+0x770>
    15a6:	83 e0       	ldi	r24, 0x03	; 3
    15a8:	79 c0       	rjmp	.+242    	; 0x169c <parser_fetch_command+0x770>
    15aa:	82 e0       	ldi	r24, 0x02	; 2
    15ac:	77 c0       	rjmp	.+238    	; 0x169c <parser_fetch_command+0x770>
    15ae:	83 e0       	ldi	r24, 0x03	; 3
    15b0:	75 c0       	rjmp	.+234    	; 0x169c <parser_fetch_command+0x770>
    15b2:	84 e1       	ldi	r24, 0x14	; 20
    15b4:	73 c0       	rjmp	.+230    	; 0x169c <parser_fetch_command+0x770>
    15b6:	85 e1       	ldi	r24, 0x15	; 21
    15b8:	71 c0       	rjmp	.+226    	; 0x169c <parser_fetch_command+0x770>
    15ba:	84 e1       	ldi	r24, 0x14	; 20
    15bc:	6f c0       	rjmp	.+222    	; 0x169c <parser_fetch_command+0x770>
    15be:	85 e1       	ldi	r24, 0x15	; 21
    15c0:	6d c0       	rjmp	.+218    	; 0x169c <parser_fetch_command+0x770>
    15c2:	85 e1       	ldi	r24, 0x15	; 21
    15c4:	6b c0       	rjmp	.+214    	; 0x169c <parser_fetch_command+0x770>
    15c6:	85 e1       	ldi	r24, 0x15	; 21
    15c8:	69 c0       	rjmp	.+210    	; 0x169c <parser_fetch_command+0x770>
    15ca:	85 e1       	ldi	r24, 0x15	; 21
    15cc:	67 c0       	rjmp	.+206    	; 0x169c <parser_fetch_command+0x770>
    15ce:	85 e1       	ldi	r24, 0x15	; 21
    15d0:	65 c0       	rjmp	.+202    	; 0x169c <parser_fetch_command+0x770>
    15d2:	85 e1       	ldi	r24, 0x15	; 21
    15d4:	63 c0       	rjmp	.+198    	; 0x169c <parser_fetch_command+0x770>
    15d6:	85 e1       	ldi	r24, 0x15	; 21
    15d8:	61 c0       	rjmp	.+194    	; 0x169c <parser_fetch_command+0x770>
    15da:	85 e1       	ldi	r24, 0x15	; 21
    15dc:	5f c0       	rjmp	.+190    	; 0x169c <parser_fetch_command+0x770>
    15de:	85 e1       	ldi	r24, 0x15	; 21
    15e0:	5d c0       	rjmp	.+186    	; 0x169c <parser_fetch_command+0x770>
    15e2:	85 e1       	ldi	r24, 0x15	; 21
    15e4:	5b c0       	rjmp	.+182    	; 0x169c <parser_fetch_command+0x770>
    15e6:	84 e1       	ldi	r24, 0x14	; 20
    15e8:	59 c0       	rjmp	.+178    	; 0x169c <parser_fetch_command+0x770>
    15ea:	85 e1       	ldi	r24, 0x15	; 21
    15ec:	57 c0       	rjmp	.+174    	; 0x169c <parser_fetch_command+0x770>
    15ee:	85 e1       	ldi	r24, 0x15	; 21
    15f0:	55 c0       	rjmp	.+170    	; 0x169c <parser_fetch_command+0x770>
    15f2:	85 e1       	ldi	r24, 0x15	; 21
    15f4:	53 c0       	rjmp	.+166    	; 0x169c <parser_fetch_command+0x770>
    15f6:	84 e1       	ldi	r24, 0x14	; 20
    15f8:	51 c0       	rjmp	.+162    	; 0x169c <parser_fetch_command+0x770>
    15fa:	84 e1       	ldi	r24, 0x14	; 20
    15fc:	4f c0       	rjmp	.+158    	; 0x169c <parser_fetch_command+0x770>
    15fe:	85 e1       	ldi	r24, 0x15	; 21
    1600:	4d c0       	rjmp	.+154    	; 0x169c <parser_fetch_command+0x770>
    1602:	85 e1       	ldi	r24, 0x15	; 21
    1604:	4b c0       	rjmp	.+150    	; 0x169c <parser_fetch_command+0x770>
    1606:	85 e1       	ldi	r24, 0x15	; 21
    1608:	49 c0       	rjmp	.+146    	; 0x169c <parser_fetch_command+0x770>
    160a:	89 e1       	ldi	r24, 0x19	; 25
    160c:	47 c0       	rjmp	.+142    	; 0x169c <parser_fetch_command+0x770>
    160e:	8b e1       	ldi	r24, 0x1B	; 27
    1610:	45 c0       	rjmp	.+138    	; 0x169c <parser_fetch_command+0x770>
    1612:	8b e1       	ldi	r24, 0x1B	; 27
    1614:	43 c0       	rjmp	.+134    	; 0x169c <parser_fetch_command+0x770>
    1616:	8b e1       	ldi	r24, 0x1B	; 27
    1618:	41 c0       	rjmp	.+130    	; 0x169c <parser_fetch_command+0x770>
    161a:	8b e1       	ldi	r24, 0x1B	; 27
    161c:	3f c0       	rjmp	.+126    	; 0x169c <parser_fetch_command+0x770>
    161e:	89 e1       	ldi	r24, 0x19	; 25
    1620:	3d c0       	rjmp	.+122    	; 0x169c <parser_fetch_command+0x770>
    1622:	89 e1       	ldi	r24, 0x19	; 25
    1624:	3b c0       	rjmp	.+118    	; 0x169c <parser_fetch_command+0x770>
    1626:	89 e1       	ldi	r24, 0x19	; 25
    1628:	39 c0       	rjmp	.+114    	; 0x169c <parser_fetch_command+0x770>
    162a:	89 e1       	ldi	r24, 0x19	; 25
    162c:	37 c0       	rjmp	.+110    	; 0x169c <parser_fetch_command+0x770>
    162e:	89 e1       	ldi	r24, 0x19	; 25
    1630:	35 c0       	rjmp	.+106    	; 0x169c <parser_fetch_command+0x770>
    1632:	89 e1       	ldi	r24, 0x19	; 25
    1634:	33 c0       	rjmp	.+102    	; 0x169c <parser_fetch_command+0x770>
    1636:	89 e1       	ldi	r24, 0x19	; 25
    1638:	31 c0       	rjmp	.+98     	; 0x169c <parser_fetch_command+0x770>
    163a:	8c e1       	ldi	r24, 0x1C	; 28
    163c:	2f c0       	rjmp	.+94     	; 0x169c <parser_fetch_command+0x770>
    163e:	89 e1       	ldi	r24, 0x19	; 25
    1640:	2d c0       	rjmp	.+90     	; 0x169c <parser_fetch_command+0x770>
    1642:	8c e1       	ldi	r24, 0x1C	; 28
    1644:	2b c0       	rjmp	.+86     	; 0x169c <parser_fetch_command+0x770>
    1646:	89 e1       	ldi	r24, 0x19	; 25
    1648:	29 c0       	rjmp	.+82     	; 0x169c <parser_fetch_command+0x770>
    164a:	8c e1       	ldi	r24, 0x1C	; 28
    164c:	27 c0       	rjmp	.+78     	; 0x169c <parser_fetch_command+0x770>
    164e:	89 e1       	ldi	r24, 0x19	; 25
    1650:	25 c0       	rjmp	.+74     	; 0x169c <parser_fetch_command+0x770>
    1652:	8c e1       	ldi	r24, 0x1C	; 28
    1654:	23 c0       	rjmp	.+70     	; 0x169c <parser_fetch_command+0x770>
    1656:	89 e1       	ldi	r24, 0x19	; 25
    1658:	21 c0       	rjmp	.+66     	; 0x169c <parser_fetch_command+0x770>
    165a:	8c e1       	ldi	r24, 0x1C	; 28
    165c:	1f c0       	rjmp	.+62     	; 0x169c <parser_fetch_command+0x770>
    165e:	89 e1       	ldi	r24, 0x19	; 25
    1660:	1d c0       	rjmp	.+58     	; 0x169c <parser_fetch_command+0x770>
    1662:	8c e1       	ldi	r24, 0x1C	; 28
    1664:	1b c0       	rjmp	.+54     	; 0x169c <parser_fetch_command+0x770>
    1666:	89 e1       	ldi	r24, 0x19	; 25
    1668:	19 c0       	rjmp	.+50     	; 0x169c <parser_fetch_command+0x770>
    166a:	8c e1       	ldi	r24, 0x1C	; 28
    166c:	17 c0       	rjmp	.+46     	; 0x169c <parser_fetch_command+0x770>
    166e:	87 e1       	ldi	r24, 0x17	; 23
    1670:	15 c0       	rjmp	.+42     	; 0x169c <parser_fetch_command+0x770>
    1672:	89 e1       	ldi	r24, 0x19	; 25
    1674:	13 c0       	rjmp	.+38     	; 0x169c <parser_fetch_command+0x770>
    1676:	8c e1       	ldi	r24, 0x1C	; 28
    1678:	11 c0       	rjmp	.+34     	; 0x169c <parser_fetch_command+0x770>
    167a:	89 e1       	ldi	r24, 0x19	; 25
    167c:	0f c0       	rjmp	.+30     	; 0x169c <parser_fetch_command+0x770>
    167e:	8c e1       	ldi	r24, 0x1C	; 28
    1680:	0d c0       	rjmp	.+26     	; 0x169c <parser_fetch_command+0x770>
    1682:	89 e1       	ldi	r24, 0x19	; 25
    1684:	0b c0       	rjmp	.+22     	; 0x169c <parser_fetch_command+0x770>
    1686:	8c e1       	ldi	r24, 0x1C	; 28
    1688:	09 c0       	rjmp	.+18     	; 0x169c <parser_fetch_command+0x770>
    168a:	89 e1       	ldi	r24, 0x19	; 25
    168c:	07 c0       	rjmp	.+14     	; 0x169c <parser_fetch_command+0x770>
    168e:	8c e1       	ldi	r24, 0x1C	; 28
    1690:	05 c0       	rjmp	.+10     	; 0x169c <parser_fetch_command+0x770>
    1692:	89 e1       	ldi	r24, 0x19	; 25
    1694:	03 c0       	rjmp	.+6      	; 0x169c <parser_fetch_command+0x770>
    1696:	8c e1       	ldi	r24, 0x1C	; 28
    1698:	01 c0       	rjmp	.+2      	; 0x169c <parser_fetch_command+0x770>
    169a:	87 e1       	ldi	r24, 0x17	; 23
    169c:	0f 90       	pop	r0
    169e:	0f 90       	pop	r0
    16a0:	0f 90       	pop	r0
    16a2:	0f 90       	pop	r0
    16a4:	0f 90       	pop	r0
    16a6:	df 91       	pop	r29
    16a8:	cf 91       	pop	r28
    16aa:	1f 91       	pop	r17
    16ac:	0f 91       	pop	r16
    16ae:	ff 90       	pop	r15
    16b0:	ef 90       	pop	r14
    16b2:	df 90       	pop	r13
    16b4:	cf 90       	pop	r12
    16b6:	bf 90       	pop	r11
    16b8:	af 90       	pop	r10
    16ba:	9f 90       	pop	r9
    16bc:	8f 90       	pop	r8
    16be:	7f 90       	pop	r7
    16c0:	6f 90       	pop	r6
    16c2:	5f 90       	pop	r5
    16c4:	4f 90       	pop	r4
    16c6:	3f 90       	pop	r3
    16c8:	08 95       	ret

000016ca <mcu_printfp>:
    16ca:	0f 93       	push	r16
    16cc:	1f 93       	push	r17
    16ce:	cf 93       	push	r28
    16d0:	df 93       	push	r29
    16d2:	cd b7       	in	r28, 0x3d	; 61
    16d4:	de b7       	in	r29, 0x3e	; 62
    16d6:	c4 56       	subi	r28, 0x64	; 100
    16d8:	d1 09       	sbc	r29, r1
    16da:	0f b6       	in	r0, 0x3f	; 63
    16dc:	f8 94       	cli
    16de:	de bf       	out	0x3e, r29	; 62
    16e0:	0f be       	out	0x3f, r0	; 63
    16e2:	cd bf       	out	0x3d, r28	; 61
    16e4:	8e 01       	movw	r16, r28
    16e6:	05 59       	subi	r16, 0x95	; 149
    16e8:	1f 4f       	sbci	r17, 0xFF	; 255
    16ea:	f8 01       	movw	r30, r16
    16ec:	61 91       	ld	r22, Z+
    16ee:	71 91       	ld	r23, Z+
    16f0:	8f 01       	movw	r16, r30
    16f2:	ce 01       	movw	r24, r28
    16f4:	01 96       	adiw	r24, 0x01	; 1
    16f6:	0e 94 43 18 	call	0x3086	; 0x3086 <strcpy_P>
    16fa:	b8 01       	movw	r22, r16
    16fc:	0e 94 13 1d 	call	0x3a26	; 0x3a26 <vprintf>
    1700:	cc 59       	subi	r28, 0x9C	; 156
    1702:	df 4f       	sbci	r29, 0xFF	; 255
    1704:	0f b6       	in	r0, 0x3f	; 63
    1706:	f8 94       	cli
    1708:	de bf       	out	0x3e, r29	; 62
    170a:	0f be       	out	0x3f, r0	; 63
    170c:	cd bf       	out	0x3d, r28	; 61
    170e:	df 91       	pop	r29
    1710:	cf 91       	pop	r28
    1712:	1f 91       	pop	r17
    1714:	0f 91       	pop	r16
    1716:	08 95       	ret

00001718 <buffer_write>:
    1718:	ef 92       	push	r14
    171a:	ff 92       	push	r15
    171c:	0f 93       	push	r16
    171e:	1f 93       	push	r17
    1720:	cf 93       	push	r28
    1722:	df 93       	push	r29
    1724:	ec 01       	movw	r28, r24
    1726:	7b 01       	movw	r14, r22
    1728:	0e 94 a9 04 	call	0x952	; 0x952 <is_buffer_full>
    172c:	81 11       	cpse	r24, r1
    172e:	21 c0       	rjmp	.+66     	; 0x1772 <buffer_write+0x5a>
    1730:	08 81       	ld	r16, Y
    1732:	19 81       	ldd	r17, Y+1	; 0x01
    1734:	4d 81       	ldd	r20, Y+5	; 0x05
    1736:	8a 81       	ldd	r24, Y+2	; 0x02
    1738:	48 9f       	mul	r20, r24
    173a:	00 0d       	add	r16, r0
    173c:	11 1d       	adc	r17, r1
    173e:	11 24       	eor	r1, r1
    1740:	e1 14       	cp	r14, r1
    1742:	f1 04       	cpc	r15, r1
    1744:	29 f0       	breq	.+10     	; 0x1750 <buffer_write+0x38>
    1746:	50 e0       	ldi	r21, 0x00	; 0
    1748:	b7 01       	movw	r22, r14
    174a:	c8 01       	movw	r24, r16
    174c:	0e 94 01 1d 	call	0x3a02	; 0x3a02 <memcpy>
    1750:	8a 81       	ldd	r24, Y+2	; 0x02
    1752:	8f 5f       	subi	r24, 0xFF	; 255
    1754:	8a 83       	std	Y+2, r24	; 0x02
    1756:	9c 81       	ldd	r25, Y+4	; 0x04
    1758:	89 13       	cpse	r24, r25
    175a:	01 c0       	rjmp	.+2      	; 0x175e <buffer_write+0x46>
    175c:	1a 82       	std	Y+2, r1	; 0x02
    175e:	1f 82       	std	Y+7, r1	; 0x07
    1760:	2a 81       	ldd	r18, Y+2	; 0x02
    1762:	9b 81       	ldd	r25, Y+3	; 0x03
    1764:	81 e0       	ldi	r24, 0x01	; 1
    1766:	29 13       	cpse	r18, r25
    1768:	80 e0       	ldi	r24, 0x00	; 0
    176a:	8e 83       	std	Y+6, r24	; 0x06
    176c:	80 2f       	mov	r24, r16
    176e:	91 2f       	mov	r25, r17
    1770:	02 c0       	rjmp	.+4      	; 0x1776 <buffer_write+0x5e>
    1772:	80 e0       	ldi	r24, 0x00	; 0
    1774:	90 e0       	ldi	r25, 0x00	; 0
    1776:	df 91       	pop	r29
    1778:	cf 91       	pop	r28
    177a:	1f 91       	pop	r17
    177c:	0f 91       	pop	r16
    177e:	ff 90       	pop	r15
    1780:	ef 90       	pop	r14
    1782:	08 95       	ret

00001784 <buffer_read>:
    1784:	0f 93       	push	r16
    1786:	1f 93       	push	r17
    1788:	cf 93       	push	r28
    178a:	df 93       	push	r29
    178c:	ec 01       	movw	r28, r24
    178e:	8b 01       	movw	r16, r22
    1790:	0e 94 65 04 	call	0x8ca	; 0x8ca <is_buffer_empty>
    1794:	81 11       	cpse	r24, r1
    1796:	15 c0       	rjmp	.+42     	; 0x17c2 <buffer_read+0x3e>
    1798:	01 15       	cp	r16, r1
    179a:	11 05       	cpc	r17, r1
    179c:	79 f0       	breq	.+30     	; 0x17bc <buffer_read+0x38>
    179e:	68 81       	ld	r22, Y
    17a0:	79 81       	ldd	r23, Y+1	; 0x01
    17a2:	4d 81       	ldd	r20, Y+5	; 0x05
    17a4:	2b 81       	ldd	r18, Y+3	; 0x03
    17a6:	50 e0       	ldi	r21, 0x00	; 0
    17a8:	24 9f       	mul	r18, r20
    17aa:	c0 01       	movw	r24, r0
    17ac:	25 9f       	mul	r18, r21
    17ae:	90 0d       	add	r25, r0
    17b0:	11 24       	eor	r1, r1
    17b2:	68 0f       	add	r22, r24
    17b4:	79 1f       	adc	r23, r25
    17b6:	c8 01       	movw	r24, r16
    17b8:	0e 94 01 1d 	call	0x3a02	; 0x3a02 <memcpy>
    17bc:	ce 01       	movw	r24, r28
    17be:	0e 94 c1 04 	call	0x982	; 0x982 <next_read>
    17c2:	df 91       	pop	r29
    17c4:	cf 91       	pop	r28
    17c6:	1f 91       	pop	r17
    17c8:	0f 91       	pop	r16
    17ca:	08 95       	ret

000017cc <interpolator_step>:
    17cc:	cf 93       	push	r28
    17ce:	df 93       	push	r29
    17d0:	80 91 a0 04 	lds	r24, 0x04A0	; 0x8004a0 <g_cnc_state>
    17d4:	88 23       	and	r24, r24
    17d6:	19 f0       	breq	.+6      	; 0x17de <interpolator_step+0x12>
    17d8:	0e 94 7a 03 	call	0x6f4	; 0x6f4 <mcu_stopStepISR>
    17dc:	36 c1       	rjmp	.+620    	; 0x1a4a <interpolator_step+0x27e>
    17de:	80 91 8f 04 	lds	r24, 0x048F	; 0x80048f <stepbits.2431>
    17e2:	0e 94 f4 03 	call	0x7e8	; 0x7e8 <mcu_setSteps>
    17e6:	10 92 8f 04 	sts	0x048F, r1	; 0x80048f <stepbits.2431>
    17ea:	80 91 8d 04 	lds	r24, 0x048D	; 0x80048d <remaining_steps.2435>
    17ee:	90 91 8e 04 	lds	r25, 0x048E	; 0x80048e <remaining_steps.2435+0x1>
    17f2:	01 97       	sbiw	r24, 0x01	; 1
    17f4:	90 93 8e 04 	sts	0x048E, r25	; 0x80048e <remaining_steps.2435+0x1>
    17f8:	80 93 8d 04 	sts	0x048D, r24	; 0x80048d <remaining_steps.2435>
    17fc:	80 91 8c 04 	lds	r24, 0x048C	; 0x80048c <update_step_rate.2432>
    1800:	88 23       	and	r24, r24
    1802:	51 f0       	breq	.+20     	; 0x1818 <interpolator_step+0x4c>
    1804:	60 91 8b 04 	lds	r22, 0x048B	; 0x80048b <pres.2434>
    1808:	80 91 89 04 	lds	r24, 0x0489	; 0x800489 <clock.2433>
    180c:	90 91 8a 04 	lds	r25, 0x048A	; 0x80048a <clock.2433+0x1>
    1810:	0e 94 82 03 	call	0x704	; 0x704 <mcu_changeStepISR>
    1814:	10 92 8c 04 	sts	0x048C, r1	; 0x80048c <update_step_rate.2432>
    1818:	80 91 87 04 	lds	r24, 0x0487	; 0x800487 <interpolator_running_sgm>
    181c:	90 91 88 04 	lds	r25, 0x0488	; 0x800488 <interpolator_running_sgm+0x1>
    1820:	89 2b       	or	r24, r25
    1822:	29 f5       	brne	.+74     	; 0x186e <interpolator_step+0xa2>
    1824:	80 91 85 04 	lds	r24, 0x0485	; 0x800485 <interpolator_sgm_buffer>
    1828:	90 91 86 04 	lds	r25, 0x0486	; 0x800486 <interpolator_sgm_buffer+0x1>
    182c:	0e 94 68 04 	call	0x8d0	; 0x8d0 <buffer_get_first>
    1830:	fc 01       	movw	r30, r24
    1832:	90 93 88 04 	sts	0x0488, r25	; 0x800488 <interpolator_running_sgm+0x1>
    1836:	80 93 87 04 	sts	0x0487, r24	; 0x800487 <interpolator_running_sgm>
    183a:	89 2b       	or	r24, r25
    183c:	09 f4       	brne	.+2      	; 0x1840 <interpolator_step+0x74>
    183e:	05 c1       	rjmp	.+522    	; 0x1a4a <interpolator_step+0x27e>
    1840:	a0 81       	ld	r26, Z
    1842:	b1 81       	ldd	r27, Z+1	; 0x01
    1844:	8c 91       	ld	r24, X
    1846:	80 93 84 04 	sts	0x0484, r24	; 0x800484 <interpolator_dirbits>
    184a:	87 85       	ldd	r24, Z+15	; 0x0f
    184c:	90 89       	ldd	r25, Z+16	; 0x10
    184e:	90 93 8e 04 	sts	0x048E, r25	; 0x80048e <remaining_steps.2435+0x1>
    1852:	80 93 8d 04 	sts	0x048D, r24	; 0x80048d <remaining_steps.2435>
    1856:	81 e0       	ldi	r24, 0x01	; 1
    1858:	80 93 8c 04 	sts	0x048C, r24	; 0x80048c <update_step_rate.2432>
    185c:	81 89       	ldd	r24, Z+17	; 0x11
    185e:	92 89       	ldd	r25, Z+18	; 0x12
    1860:	90 93 8a 04 	sts	0x048A, r25	; 0x80048a <clock.2433+0x1>
    1864:	80 93 89 04 	sts	0x0489, r24	; 0x800489 <clock.2433>
    1868:	83 89       	ldd	r24, Z+19	; 0x13
    186a:	80 93 8b 04 	sts	0x048B, r24	; 0x80048b <pres.2434>
    186e:	e0 91 87 04 	lds	r30, 0x0487	; 0x800487 <interpolator_running_sgm>
    1872:	f0 91 88 04 	lds	r31, 0x0488	; 0x800488 <interpolator_running_sgm+0x1>
    1876:	30 97       	sbiw	r30, 0x00	; 0
    1878:	09 f4       	brne	.+2      	; 0x187c <interpolator_step+0xb0>
    187a:	e7 c0       	rjmp	.+462    	; 0x1a4a <interpolator_step+0x27e>
    187c:	c0 81       	ld	r28, Z
    187e:	d1 81       	ldd	r29, Z+1	; 0x01
    1880:	49 81       	ldd	r20, Y+1	; 0x01
    1882:	5a 81       	ldd	r21, Y+2	; 0x02
    1884:	6b 81       	ldd	r22, Y+3	; 0x03
    1886:	7c 81       	ldd	r23, Y+4	; 0x04
    1888:	82 81       	ldd	r24, Z+2	; 0x02
    188a:	93 81       	ldd	r25, Z+3	; 0x03
    188c:	a4 81       	ldd	r26, Z+4	; 0x04
    188e:	b5 81       	ldd	r27, Z+5	; 0x05
    1890:	84 0f       	add	r24, r20
    1892:	95 1f       	adc	r25, r21
    1894:	a6 1f       	adc	r26, r22
    1896:	b7 1f       	adc	r27, r23
    1898:	82 83       	std	Z+2, r24	; 0x02
    189a:	93 83       	std	Z+3, r25	; 0x03
    189c:	a4 83       	std	Z+4, r26	; 0x04
    189e:	b5 83       	std	Z+5, r27	; 0x05
    18a0:	4d 85       	ldd	r20, Y+13	; 0x0d
    18a2:	5e 85       	ldd	r21, Y+14	; 0x0e
    18a4:	6f 85       	ldd	r22, Y+15	; 0x0f
    18a6:	78 89       	ldd	r23, Y+16	; 0x10
    18a8:	48 17       	cp	r20, r24
    18aa:	59 07       	cpc	r21, r25
    18ac:	6a 07       	cpc	r22, r26
    18ae:	7b 07       	cpc	r23, r27
    18b0:	60 f5       	brcc	.+88     	; 0x190a <interpolator_step+0x13e>
    18b2:	84 1b       	sub	r24, r20
    18b4:	95 0b       	sbc	r25, r21
    18b6:	a6 0b       	sbc	r26, r22
    18b8:	b7 0b       	sbc	r27, r23
    18ba:	82 83       	std	Z+2, r24	; 0x02
    18bc:	93 83       	std	Z+3, r25	; 0x03
    18be:	a4 83       	std	Z+4, r26	; 0x04
    18c0:	b5 83       	std	Z+5, r27	; 0x05
    18c2:	80 91 8f 04 	lds	r24, 0x048F	; 0x80048f <stepbits.2431>
    18c6:	81 60       	ori	r24, 0x01	; 1
    18c8:	80 93 8f 04 	sts	0x048F, r24	; 0x80048f <stepbits.2431>
    18cc:	80 91 84 04 	lds	r24, 0x0484	; 0x800484 <interpolator_dirbits>
    18d0:	88 23       	and	r24, r24
    18d2:	71 f0       	breq	.+28     	; 0x18f0 <interpolator_step+0x124>
    18d4:	c0 ea       	ldi	r28, 0xA0	; 160
    18d6:	d4 e0       	ldi	r29, 0x04	; 4
    18d8:	8a 81       	ldd	r24, Y+2	; 0x02
    18da:	9b 81       	ldd	r25, Y+3	; 0x03
    18dc:	ac 81       	ldd	r26, Y+4	; 0x04
    18de:	bd 81       	ldd	r27, Y+5	; 0x05
    18e0:	01 97       	sbiw	r24, 0x01	; 1
    18e2:	a1 09       	sbc	r26, r1
    18e4:	b1 09       	sbc	r27, r1
    18e6:	8a 83       	std	Y+2, r24	; 0x02
    18e8:	9b 83       	std	Y+3, r25	; 0x03
    18ea:	ac 83       	std	Y+4, r26	; 0x04
    18ec:	bd 83       	std	Y+5, r27	; 0x05
    18ee:	0d c0       	rjmp	.+26     	; 0x190a <interpolator_step+0x13e>
    18f0:	c0 ea       	ldi	r28, 0xA0	; 160
    18f2:	d4 e0       	ldi	r29, 0x04	; 4
    18f4:	8a 81       	ldd	r24, Y+2	; 0x02
    18f6:	9b 81       	ldd	r25, Y+3	; 0x03
    18f8:	ac 81       	ldd	r26, Y+4	; 0x04
    18fa:	bd 81       	ldd	r27, Y+5	; 0x05
    18fc:	01 96       	adiw	r24, 0x01	; 1
    18fe:	a1 1d       	adc	r26, r1
    1900:	b1 1d       	adc	r27, r1
    1902:	8a 83       	std	Y+2, r24	; 0x02
    1904:	9b 83       	std	Y+3, r25	; 0x03
    1906:	ac 83       	std	Y+4, r26	; 0x04
    1908:	bd 83       	std	Y+5, r27	; 0x05
    190a:	c0 81       	ld	r28, Z
    190c:	d1 81       	ldd	r29, Z+1	; 0x01
    190e:	4d 81       	ldd	r20, Y+5	; 0x05
    1910:	5e 81       	ldd	r21, Y+6	; 0x06
    1912:	6f 81       	ldd	r22, Y+7	; 0x07
    1914:	78 85       	ldd	r23, Y+8	; 0x08
    1916:	86 81       	ldd	r24, Z+6	; 0x06
    1918:	97 81       	ldd	r25, Z+7	; 0x07
    191a:	a0 85       	ldd	r26, Z+8	; 0x08
    191c:	b1 85       	ldd	r27, Z+9	; 0x09
    191e:	84 0f       	add	r24, r20
    1920:	95 1f       	adc	r25, r21
    1922:	a6 1f       	adc	r26, r22
    1924:	b7 1f       	adc	r27, r23
    1926:	86 83       	std	Z+6, r24	; 0x06
    1928:	97 83       	std	Z+7, r25	; 0x07
    192a:	a0 87       	std	Z+8, r26	; 0x08
    192c:	b1 87       	std	Z+9, r27	; 0x09
    192e:	4d 85       	ldd	r20, Y+13	; 0x0d
    1930:	5e 85       	ldd	r21, Y+14	; 0x0e
    1932:	6f 85       	ldd	r22, Y+15	; 0x0f
    1934:	78 89       	ldd	r23, Y+16	; 0x10
    1936:	48 17       	cp	r20, r24
    1938:	59 07       	cpc	r21, r25
    193a:	6a 07       	cpc	r22, r26
    193c:	7b 07       	cpc	r23, r27
    193e:	60 f5       	brcc	.+88     	; 0x1998 <interpolator_step+0x1cc>
    1940:	84 1b       	sub	r24, r20
    1942:	95 0b       	sbc	r25, r21
    1944:	a6 0b       	sbc	r26, r22
    1946:	b7 0b       	sbc	r27, r23
    1948:	86 83       	std	Z+6, r24	; 0x06
    194a:	97 83       	std	Z+7, r25	; 0x07
    194c:	a0 87       	std	Z+8, r26	; 0x08
    194e:	b1 87       	std	Z+9, r27	; 0x09
    1950:	80 91 8f 04 	lds	r24, 0x048F	; 0x80048f <stepbits.2431>
    1954:	82 60       	ori	r24, 0x02	; 2
    1956:	80 93 8f 04 	sts	0x048F, r24	; 0x80048f <stepbits.2431>
    195a:	80 91 84 04 	lds	r24, 0x0484	; 0x800484 <interpolator_dirbits>
    195e:	88 23       	and	r24, r24
    1960:	71 f0       	breq	.+28     	; 0x197e <interpolator_step+0x1b2>
    1962:	c0 ea       	ldi	r28, 0xA0	; 160
    1964:	d4 e0       	ldi	r29, 0x04	; 4
    1966:	8e 81       	ldd	r24, Y+6	; 0x06
    1968:	9f 81       	ldd	r25, Y+7	; 0x07
    196a:	a8 85       	ldd	r26, Y+8	; 0x08
    196c:	b9 85       	ldd	r27, Y+9	; 0x09
    196e:	01 97       	sbiw	r24, 0x01	; 1
    1970:	a1 09       	sbc	r26, r1
    1972:	b1 09       	sbc	r27, r1
    1974:	8e 83       	std	Y+6, r24	; 0x06
    1976:	9f 83       	std	Y+7, r25	; 0x07
    1978:	a8 87       	std	Y+8, r26	; 0x08
    197a:	b9 87       	std	Y+9, r27	; 0x09
    197c:	0d c0       	rjmp	.+26     	; 0x1998 <interpolator_step+0x1cc>
    197e:	c0 ea       	ldi	r28, 0xA0	; 160
    1980:	d4 e0       	ldi	r29, 0x04	; 4
    1982:	8e 81       	ldd	r24, Y+6	; 0x06
    1984:	9f 81       	ldd	r25, Y+7	; 0x07
    1986:	a8 85       	ldd	r26, Y+8	; 0x08
    1988:	b9 85       	ldd	r27, Y+9	; 0x09
    198a:	01 96       	adiw	r24, 0x01	; 1
    198c:	a1 1d       	adc	r26, r1
    198e:	b1 1d       	adc	r27, r1
    1990:	8e 83       	std	Y+6, r24	; 0x06
    1992:	9f 83       	std	Y+7, r25	; 0x07
    1994:	a8 87       	std	Y+8, r26	; 0x08
    1996:	b9 87       	std	Y+9, r27	; 0x09
    1998:	c0 81       	ld	r28, Z
    199a:	d1 81       	ldd	r29, Z+1	; 0x01
    199c:	49 85       	ldd	r20, Y+9	; 0x09
    199e:	5a 85       	ldd	r21, Y+10	; 0x0a
    19a0:	6b 85       	ldd	r22, Y+11	; 0x0b
    19a2:	7c 85       	ldd	r23, Y+12	; 0x0c
    19a4:	82 85       	ldd	r24, Z+10	; 0x0a
    19a6:	93 85       	ldd	r25, Z+11	; 0x0b
    19a8:	a4 85       	ldd	r26, Z+12	; 0x0c
    19aa:	b5 85       	ldd	r27, Z+13	; 0x0d
    19ac:	84 0f       	add	r24, r20
    19ae:	95 1f       	adc	r25, r21
    19b0:	a6 1f       	adc	r26, r22
    19b2:	b7 1f       	adc	r27, r23
    19b4:	82 87       	std	Z+10, r24	; 0x0a
    19b6:	93 87       	std	Z+11, r25	; 0x0b
    19b8:	a4 87       	std	Z+12, r26	; 0x0c
    19ba:	b5 87       	std	Z+13, r27	; 0x0d
    19bc:	4d 85       	ldd	r20, Y+13	; 0x0d
    19be:	5e 85       	ldd	r21, Y+14	; 0x0e
    19c0:	6f 85       	ldd	r22, Y+15	; 0x0f
    19c2:	78 89       	ldd	r23, Y+16	; 0x10
    19c4:	48 17       	cp	r20, r24
    19c6:	59 07       	cpc	r21, r25
    19c8:	6a 07       	cpc	r22, r26
    19ca:	7b 07       	cpc	r23, r27
    19cc:	60 f5       	brcc	.+88     	; 0x1a26 <interpolator_step+0x25a>
    19ce:	84 1b       	sub	r24, r20
    19d0:	95 0b       	sbc	r25, r21
    19d2:	a6 0b       	sbc	r26, r22
    19d4:	b7 0b       	sbc	r27, r23
    19d6:	82 87       	std	Z+10, r24	; 0x0a
    19d8:	93 87       	std	Z+11, r25	; 0x0b
    19da:	a4 87       	std	Z+12, r26	; 0x0c
    19dc:	b5 87       	std	Z+13, r27	; 0x0d
    19de:	80 91 8f 04 	lds	r24, 0x048F	; 0x80048f <stepbits.2431>
    19e2:	84 60       	ori	r24, 0x04	; 4
    19e4:	80 93 8f 04 	sts	0x048F, r24	; 0x80048f <stepbits.2431>
    19e8:	80 91 84 04 	lds	r24, 0x0484	; 0x800484 <interpolator_dirbits>
    19ec:	88 23       	and	r24, r24
    19ee:	71 f0       	breq	.+28     	; 0x1a0c <interpolator_step+0x240>
    19f0:	e0 ea       	ldi	r30, 0xA0	; 160
    19f2:	f4 e0       	ldi	r31, 0x04	; 4
    19f4:	82 85       	ldd	r24, Z+10	; 0x0a
    19f6:	93 85       	ldd	r25, Z+11	; 0x0b
    19f8:	a4 85       	ldd	r26, Z+12	; 0x0c
    19fa:	b5 85       	ldd	r27, Z+13	; 0x0d
    19fc:	01 97       	sbiw	r24, 0x01	; 1
    19fe:	a1 09       	sbc	r26, r1
    1a00:	b1 09       	sbc	r27, r1
    1a02:	82 87       	std	Z+10, r24	; 0x0a
    1a04:	93 87       	std	Z+11, r25	; 0x0b
    1a06:	a4 87       	std	Z+12, r26	; 0x0c
    1a08:	b5 87       	std	Z+13, r27	; 0x0d
    1a0a:	0d c0       	rjmp	.+26     	; 0x1a26 <interpolator_step+0x25a>
    1a0c:	e0 ea       	ldi	r30, 0xA0	; 160
    1a0e:	f4 e0       	ldi	r31, 0x04	; 4
    1a10:	82 85       	ldd	r24, Z+10	; 0x0a
    1a12:	93 85       	ldd	r25, Z+11	; 0x0b
    1a14:	a4 85       	ldd	r26, Z+12	; 0x0c
    1a16:	b5 85       	ldd	r27, Z+13	; 0x0d
    1a18:	01 96       	adiw	r24, 0x01	; 1
    1a1a:	a1 1d       	adc	r26, r1
    1a1c:	b1 1d       	adc	r27, r1
    1a1e:	82 87       	std	Z+10, r24	; 0x0a
    1a20:	93 87       	std	Z+11, r25	; 0x0b
    1a22:	a4 87       	std	Z+12, r26	; 0x0c
    1a24:	b5 87       	std	Z+13, r27	; 0x0d
    1a26:	80 91 8d 04 	lds	r24, 0x048D	; 0x80048d <remaining_steps.2435>
    1a2a:	90 91 8e 04 	lds	r25, 0x048E	; 0x80048e <remaining_steps.2435+0x1>
    1a2e:	01 97       	sbiw	r24, 0x01	; 1
    1a30:	61 f4       	brne	.+24     	; 0x1a4a <interpolator_step+0x27e>
    1a32:	10 92 88 04 	sts	0x0488, r1	; 0x800488 <interpolator_running_sgm+0x1>
    1a36:	10 92 87 04 	sts	0x0487, r1	; 0x800487 <interpolator_running_sgm>
    1a3a:	60 e0       	ldi	r22, 0x00	; 0
    1a3c:	70 e0       	ldi	r23, 0x00	; 0
    1a3e:	80 91 85 04 	lds	r24, 0x0485	; 0x800485 <interpolator_sgm_buffer>
    1a42:	90 91 86 04 	lds	r25, 0x0486	; 0x800486 <interpolator_sgm_buffer+0x1>
    1a46:	0e 94 c2 0b 	call	0x1784	; 0x1784 <buffer_read>
    1a4a:	df 91       	pop	r29
    1a4c:	cf 91       	pop	r28
    1a4e:	08 95       	ret

00001a50 <buffer_init>:
    1a50:	0f 93       	push	r16
    1a52:	1f 93       	push	r17
    1a54:	cf 93       	push	r28
    1a56:	df 93       	push	r29
    1a58:	8c 01       	movw	r16, r24
    1a5a:	c6 2f       	mov	r28, r22
    1a5c:	d4 2f       	mov	r29, r20
    1a5e:	88 e0       	ldi	r24, 0x08	; 8
    1a60:	90 e0       	ldi	r25, 0x00	; 0
    1a62:	0e 94 e0 1b 	call	0x37c0	; 0x37c0 <malloc>
    1a66:	fc 01       	movw	r30, r24
    1a68:	11 83       	std	Z+1, r17	; 0x01
    1a6a:	00 83       	st	Z, r16
    1a6c:	d4 83       	std	Z+4, r29	; 0x04
    1a6e:	c5 83       	std	Z+5, r28	; 0x05
    1a70:	12 82       	std	Z+2, r1	; 0x02
    1a72:	13 82       	std	Z+3, r1	; 0x03
    1a74:	16 82       	std	Z+6, r1	; 0x06
    1a76:	81 e0       	ldi	r24, 0x01	; 1
    1a78:	87 83       	std	Z+7, r24	; 0x07
    1a7a:	cf 01       	movw	r24, r30
    1a7c:	df 91       	pop	r29
    1a7e:	cf 91       	pop	r28
    1a80:	1f 91       	pop	r17
    1a82:	0f 91       	pop	r16
    1a84:	08 95       	ret

00001a86 <interpolator_init>:
    1a86:	8c e0       	ldi	r24, 0x0C	; 12
    1a88:	e7 e7       	ldi	r30, 0x77	; 119
    1a8a:	f4 e0       	ldi	r31, 0x04	; 4
    1a8c:	df 01       	movw	r26, r30
    1a8e:	98 2f       	mov	r25, r24
    1a90:	1d 92       	st	X+, r1
    1a92:	9a 95       	dec	r25
    1a94:	e9 f7       	brne	.-6      	; 0x1a90 <interpolator_init+0xa>
    1a96:	94 e1       	ldi	r25, 0x14	; 20
    1a98:	e7 e8       	ldi	r30, 0x87	; 135
    1a9a:	f4 e0       	ldi	r31, 0x04	; 4
    1a9c:	df 01       	movw	r26, r30
    1a9e:	1d 92       	st	X+, r1
    1aa0:	9a 95       	dec	r25
    1aa2:	e9 f7       	brne	.-6      	; 0x1a9e <interpolator_init+0x18>
    1aa4:	e2 ea       	ldi	r30, 0xA2	; 162
    1aa6:	f4 e0       	ldi	r31, 0x04	; 4
    1aa8:	df 01       	movw	r26, r30
    1aaa:	1d 92       	st	X+, r1
    1aac:	8a 95       	dec	r24
    1aae:	e9 f7       	brne	.-6      	; 0x1aaa <interpolator_init+0x24>
    1ab0:	4a e0       	ldi	r20, 0x0A	; 10
    1ab2:	61 e1       	ldi	r22, 0x11	; 17
    1ab4:	82 e2       	ldi	r24, 0x22	; 34
    1ab6:	94 e0       	ldi	r25, 0x04	; 4
    1ab8:	0e 94 28 0d 	call	0x1a50	; 0x1a50 <buffer_init>
    1abc:	4a e0       	ldi	r20, 0x0A	; 10
    1abe:	64 e1       	ldi	r22, 0x14	; 20
    1ac0:	8a e5       	ldi	r24, 0x5A	; 90
    1ac2:	93 e0       	ldi	r25, 0x03	; 3
    1ac4:	0e 94 28 0d 	call	0x1a50	; 0x1a50 <buffer_init>
    1ac8:	90 93 86 04 	sts	0x0486, r25	; 0x800486 <interpolator_sgm_buffer+0x1>
    1acc:	80 93 85 04 	sts	0x0485, r24	; 0x800485 <interpolator_sgm_buffer>
    1ad0:	86 ee       	ldi	r24, 0xE6	; 230
    1ad2:	9b e0       	ldi	r25, 0x0B	; 11
    1ad4:	0e 94 75 03 	call	0x6ea	; 0x6ea <mcu_attachOnStep>
    1ad8:	81 ed       	ldi	r24, 0xD1	; 209
    1ada:	94 e0       	ldi	r25, 0x04	; 4
    1adc:	0e 94 70 03 	call	0x6e0	; 0x6e0 <mcu_attachOnStepReset>
    1ae0:	61 e0       	ldi	r22, 0x01	; 1
    1ae2:	8f ef       	ldi	r24, 0xFF	; 255
    1ae4:	9f ef       	ldi	r25, 0xFF	; 255
    1ae6:	0e 94 98 03 	call	0x730	; 0x730 <mcu_startStepISR>
    1aea:	10 92 88 04 	sts	0x0488, r1	; 0x800488 <interpolator_running_sgm+0x1>
    1aee:	10 92 87 04 	sts	0x0487, r1	; 0x800487 <interpolator_running_sgm>
    1af2:	08 95       	ret

00001af4 <planner_init>:
    1af4:	8c e0       	ldi	r24, 0x0C	; 12
    1af6:	e0 e4       	ldi	r30, 0x40	; 64
    1af8:	f3 e0       	ldi	r31, 0x03	; 3
    1afa:	df 01       	movw	r26, r30
    1afc:	28 2f       	mov	r18, r24
    1afe:	1d 92       	st	X+, r1
    1b00:	2a 95       	dec	r18
    1b02:	e9 f7       	brne	.-6      	; 0x1afe <planner_init+0xa>
    1b04:	ec e4       	ldi	r30, 0x4C	; 76
    1b06:	f3 e0       	ldi	r31, 0x03	; 3
    1b08:	df 01       	movw	r26, r30
    1b0a:	28 2f       	mov	r18, r24
    1b0c:	1d 92       	st	X+, r1
    1b0e:	2a 95       	dec	r18
    1b10:	e9 f7       	brne	.-6      	; 0x1b0c <planner_init+0x18>
    1b12:	e4 e3       	ldi	r30, 0x34	; 52
    1b14:	f3 e0       	ldi	r31, 0x03	; 3
    1b16:	df 01       	movw	r26, r30
    1b18:	1d 92       	st	X+, r1
    1b1a:	8a 95       	dec	r24
    1b1c:	e9 f7       	brne	.-6      	; 0x1b18 <planner_init+0x24>
    1b1e:	82 e2       	ldi	r24, 0x22	; 34
    1b20:	91 e0       	ldi	r25, 0x01	; 1
    1b22:	e2 e1       	ldi	r30, 0x12	; 18
    1b24:	f2 e0       	ldi	r31, 0x02	; 2
    1b26:	df 01       	movw	r26, r30
    1b28:	9c 01       	movw	r18, r24
    1b2a:	1d 92       	st	X+, r1
    1b2c:	21 50       	subi	r18, 0x01	; 1
    1b2e:	30 40       	sbci	r19, 0x00	; 0
    1b30:	e1 f7       	brne	.-8      	; 0x1b2a <planner_init+0x36>
    1b32:	45 e0       	ldi	r20, 0x05	; 5
    1b34:	6a e3       	ldi	r22, 0x3A	; 58
    1b36:	cf 01       	movw	r24, r30
    1b38:	0e 94 28 0d 	call	0x1a50	; 0x1a50 <buffer_init>
    1b3c:	90 93 59 03 	sts	0x0359, r25	; 0x800359 <g_planner_buffer+0x1>
    1b40:	80 93 58 03 	sts	0x0358, r24	; 0x800358 <g_planner_buffer>
    1b44:	8a ee       	ldi	r24, 0xEA	; 234
    1b46:	93 e0       	ldi	r25, 0x03	; 3
    1b48:	9f 93       	push	r25
    1b4a:	8f 93       	push	r24
    1b4c:	0e 94 65 0b 	call	0x16ca	; 0x16ca <mcu_printfp>
    1b50:	0f 90       	pop	r0
    1b52:	0f 90       	pop	r0
    1b54:	08 95       	ret

00001b56 <planner_add_line>:
    1b56:	2f 92       	push	r2
    1b58:	3f 92       	push	r3
    1b5a:	4f 92       	push	r4
    1b5c:	5f 92       	push	r5
    1b5e:	6f 92       	push	r6
    1b60:	7f 92       	push	r7
    1b62:	8f 92       	push	r8
    1b64:	9f 92       	push	r9
    1b66:	af 92       	push	r10
    1b68:	bf 92       	push	r11
    1b6a:	cf 92       	push	r12
    1b6c:	df 92       	push	r13
    1b6e:	ef 92       	push	r14
    1b70:	ff 92       	push	r15
    1b72:	0f 93       	push	r16
    1b74:	1f 93       	push	r17
    1b76:	cf 93       	push	r28
    1b78:	df 93       	push	r29
    1b7a:	cd b7       	in	r28, 0x3d	; 61
    1b7c:	de b7       	in	r29, 0x3e	; 62
    1b7e:	2e 97       	sbiw	r28, 0x0e	; 14
    1b80:	0f b6       	in	r0, 0x3f	; 63
    1b82:	f8 94       	cli
    1b84:	de bf       	out	0x3e, r29	; 62
    1b86:	0f be       	out	0x3f, r0	; 63
    1b88:	cd bf       	out	0x3d, r28	; 61
    1b8a:	3c 01       	movw	r6, r24
    1b8c:	6a 01       	movw	r12, r20
    1b8e:	7b 01       	movw	r14, r22
    1b90:	80 91 58 03 	lds	r24, 0x0358	; 0x800358 <g_planner_buffer>
    1b94:	90 91 59 03 	lds	r25, 0x0359	; 0x800359 <g_planner_buffer+0x1>
    1b98:	0e 94 ac 04 	call	0x958	; 0x958 <buffer_get_next_free>
    1b9c:	2c 01       	movw	r4, r24
    1b9e:	fc 01       	movw	r30, r24
    1ba0:	10 82       	st	Z, r1
    1ba2:	c5 a6       	std	Z+45, r12	; 0x2d
    1ba4:	d6 a6       	std	Z+46, r13	; 0x2e
    1ba6:	e7 a6       	std	Z+47, r14	; 0x2f
    1ba8:	f0 aa       	std	Z+48, r15	; 0x30
    1baa:	11 ae       	std	Z+57, r1	; 0x39
    1bac:	8f ef       	ldi	r24, 0xFF	; 255
    1bae:	9f ef       	ldi	r25, 0xFF	; 255
    1bb0:	af e7       	ldi	r26, 0x7F	; 127
    1bb2:	bf e7       	ldi	r27, 0x7F	; 127
    1bb4:	81 ab       	std	Z+49, r24	; 0x31
    1bb6:	92 ab       	std	Z+50, r25	; 0x32
    1bb8:	a3 ab       	std	Z+51, r26	; 0x33
    1bba:	b4 ab       	std	Z+52, r27	; 0x34
    1bbc:	81 a7       	std	Z+41, r24	; 0x29
    1bbe:	92 a7       	std	Z+42, r25	; 0x2a
    1bc0:	a3 a7       	std	Z+43, r26	; 0x2b
    1bc2:	b4 a7       	std	Z+44, r27	; 0x2c
    1bc4:	11 a2       	std	Z+33, r1	; 0x21
    1bc6:	12 a2       	std	Z+34, r1	; 0x22
    1bc8:	13 a2       	std	Z+35, r1	; 0x23
    1bca:	14 a2       	std	Z+36, r1	; 0x24
    1bcc:	15 a2       	std	Z+37, r1	; 0x25
    1bce:	16 a2       	std	Z+38, r1	; 0x26
    1bd0:	17 a2       	std	Z+39, r1	; 0x27
    1bd2:	10 a6       	std	Z+40, r1	; 0x28
    1bd4:	11 8e       	std	Z+25, r1	; 0x19
    1bd6:	12 8e       	std	Z+26, r1	; 0x1a
    1bd8:	13 8e       	std	Z+27, r1	; 0x1b
    1bda:	14 8e       	std	Z+28, r1	; 0x1c
    1bdc:	d2 01       	movw	r26, r4
    1bde:	11 96       	adiw	r26, 0x01	; 1
    1be0:	8c e0       	ldi	r24, 0x0C	; 12
    1be2:	f3 01       	movw	r30, r6
    1be4:	01 90       	ld	r0, Z+
    1be6:	0d 92       	st	X+, r0
    1be8:	8a 95       	dec	r24
    1bea:	e1 f7       	brne	.-8      	; 0x1be4 <planner_add_line+0x8e>
    1bec:	13 e0       	ldi	r17, 0x03	; 3
    1bee:	f1 2e       	mov	r15, r17
    1bf0:	5e c0       	rjmp	.+188    	; 0x1cae <planner_add_line+0x158>
    1bf2:	fa 94       	dec	r15
    1bf4:	0f 2d       	mov	r16, r15
    1bf6:	10 e0       	ldi	r17, 0x00	; 0
    1bf8:	c8 01       	movw	r24, r16
    1bfa:	88 0f       	add	r24, r24
    1bfc:	99 1f       	adc	r25, r25
    1bfe:	88 0f       	add	r24, r24
    1c00:	99 1f       	adc	r25, r25
    1c02:	9a 83       	std	Y+2, r25	; 0x02
    1c04:	89 83       	std	Y+1, r24	; 0x01
    1c06:	fc 01       	movw	r30, r24
    1c08:	e6 0d       	add	r30, r6
    1c0a:	f7 1d       	adc	r31, r7
    1c0c:	60 81       	ld	r22, Z
    1c0e:	71 81       	ldd	r23, Z+1	; 0x01
    1c10:	82 81       	ldd	r24, Z+2	; 0x02
    1c12:	93 81       	ldd	r25, Z+3	; 0x03
    1c14:	e9 81       	ldd	r30, Y+1	; 0x01
    1c16:	fa 81       	ldd	r31, Y+2	; 0x02
    1c18:	e4 5b       	subi	r30, 0xB4	; 180
    1c1a:	fc 4f       	sbci	r31, 0xFC	; 252
    1c1c:	20 81       	ld	r18, Z
    1c1e:	31 81       	ldd	r19, Z+1	; 0x01
    1c20:	42 81       	ldd	r20, Z+2	; 0x02
    1c22:	53 81       	ldd	r21, Z+3	; 0x03
    1c24:	0e 94 09 19 	call	0x3212	; 0x3212 <__subsf3>
    1c28:	4b 01       	movw	r8, r22
    1c2a:	5c 01       	movw	r10, r24
    1c2c:	e9 81       	ldd	r30, Y+1	; 0x01
    1c2e:	fa 81       	ldd	r31, Y+2	; 0x02
    1c30:	e4 0d       	add	r30, r4
    1c32:	f5 1d       	adc	r31, r5
    1c34:	65 87       	std	Z+13, r22	; 0x0d
    1c36:	76 87       	std	Z+14, r23	; 0x0e
    1c38:	87 87       	std	Z+15, r24	; 0x0f
    1c3a:	90 8b       	std	Z+16, r25	; 0x10
    1c3c:	f2 01       	movw	r30, r4
    1c3e:	f0 81       	ld	r31, Z
    1c40:	ff 0f       	add	r31, r31
    1c42:	f9 83       	std	Y+1, r31	; 0x01
    1c44:	8f 2f       	mov	r24, r31
    1c46:	f2 01       	movw	r30, r4
    1c48:	80 83       	st	Z, r24
    1c4a:	20 e0       	ldi	r18, 0x00	; 0
    1c4c:	30 e0       	ldi	r19, 0x00	; 0
    1c4e:	a9 01       	movw	r20, r18
    1c50:	c5 01       	movw	r24, r10
    1c52:	b4 01       	movw	r22, r8
    1c54:	0e 94 76 19 	call	0x32ec	; 0x32ec <__cmpsf2>
    1c58:	88 23       	and	r24, r24
    1c5a:	49 f1       	breq	.+82     	; 0x1cae <planner_add_line+0x158>
    1c5c:	a5 01       	movw	r20, r10
    1c5e:	94 01       	movw	r18, r8
    1c60:	c5 01       	movw	r24, r10
    1c62:	b4 01       	movw	r22, r8
    1c64:	0e 94 d3 1a 	call	0x35a6	; 0x35a6 <__mulsf3>
    1c68:	9b 01       	movw	r18, r22
    1c6a:	ac 01       	movw	r20, r24
    1c6c:	f2 01       	movw	r30, r4
    1c6e:	61 8d       	ldd	r22, Z+25	; 0x19
    1c70:	72 8d       	ldd	r23, Z+26	; 0x1a
    1c72:	83 8d       	ldd	r24, Z+27	; 0x1b
    1c74:	94 8d       	ldd	r25, Z+28	; 0x1c
    1c76:	0e 94 0a 19 	call	0x3214	; 0x3214 <__addsf3>
    1c7a:	f2 01       	movw	r30, r4
    1c7c:	61 8f       	std	Z+25, r22	; 0x19
    1c7e:	72 8f       	std	Z+26, r23	; 0x1a
    1c80:	83 8f       	std	Z+27, r24	; 0x1b
    1c82:	94 8f       	std	Z+28, r25	; 0x1c
    1c84:	00 0f       	add	r16, r16
    1c86:	11 1f       	adc	r17, r17
    1c88:	00 0f       	add	r16, r16
    1c8a:	11 1f       	adc	r17, r17
    1c8c:	e0 0f       	add	r30, r16
    1c8e:	f1 1f       	adc	r31, r17
    1c90:	65 85       	ldd	r22, Z+13	; 0x0d
    1c92:	76 85       	ldd	r23, Z+14	; 0x0e
    1c94:	87 85       	ldd	r24, Z+15	; 0x0f
    1c96:	90 89       	ldd	r25, Z+16	; 0x10
    1c98:	20 e0       	ldi	r18, 0x00	; 0
    1c9a:	30 e0       	ldi	r19, 0x00	; 0
    1c9c:	a9 01       	movw	r20, r18
    1c9e:	0e 94 76 19 	call	0x32ec	; 0x32ec <__cmpsf2>
    1ca2:	88 23       	and	r24, r24
    1ca4:	24 f4       	brge	.+8      	; 0x1cae <planner_add_line+0x158>
    1ca6:	89 81       	ldd	r24, Y+1	; 0x01
    1ca8:	81 60       	ori	r24, 0x01	; 1
    1caa:	f2 01       	movw	r30, r4
    1cac:	80 83       	st	Z, r24
    1cae:	f1 10       	cpse	r15, r1
    1cb0:	a0 cf       	rjmp	.-192    	; 0x1bf2 <planner_add_line+0x9c>
    1cb2:	f2 01       	movw	r30, r4
    1cb4:	c1 8c       	ldd	r12, Z+25	; 0x19
    1cb6:	d2 8c       	ldd	r13, Z+26	; 0x1a
    1cb8:	e3 8c       	ldd	r14, Z+27	; 0x1b
    1cba:	f4 8c       	ldd	r15, Z+28	; 0x1c
    1cbc:	20 e0       	ldi	r18, 0x00	; 0
    1cbe:	30 e0       	ldi	r19, 0x00	; 0
    1cc0:	a9 01       	movw	r20, r18
    1cc2:	c7 01       	movw	r24, r14
    1cc4:	b6 01       	movw	r22, r12
    1cc6:	0e 94 76 19 	call	0x32ec	; 0x32ec <__cmpsf2>
    1cca:	88 23       	and	r24, r24
    1ccc:	09 f4       	brne	.+2      	; 0x1cd0 <planner_add_line+0x17a>
    1cce:	e8 c1       	rjmp	.+976    	; 0x20a0 <planner_add_line+0x54a>
    1cd0:	c7 01       	movw	r24, r14
    1cd2:	b6 01       	movw	r22, r12
    1cd4:	0e 94 6a 1b 	call	0x36d4	; 0x36d4 <sqrt>
    1cd8:	9b 01       	movw	r18, r22
    1cda:	ac 01       	movw	r20, r24
    1cdc:	f2 01       	movw	r30, r4
    1cde:	61 8f       	std	Z+25, r22	; 0x19
    1ce0:	72 8f       	std	Z+26, r23	; 0x1a
    1ce2:	83 8f       	std	Z+27, r24	; 0x1b
    1ce4:	94 8f       	std	Z+28, r25	; 0x1c
    1ce6:	60 e0       	ldi	r22, 0x00	; 0
    1ce8:	70 e0       	ldi	r23, 0x00	; 0
    1cea:	80 e8       	ldi	r24, 0x80	; 128
    1cec:	9f e3       	ldi	r25, 0x3F	; 63
    1cee:	0e 94 7b 19 	call	0x32f6	; 0x32f6 <__divsf3>
    1cf2:	69 87       	std	Y+9, r22	; 0x09
    1cf4:	7a 87       	std	Y+10, r23	; 0x0a
    1cf6:	8b 87       	std	Y+11, r24	; 0x0b
    1cf8:	9c 87       	std	Y+12, r25	; 0x0c
    1cfa:	f2 01       	movw	r30, r4
    1cfc:	20 80       	ld	r2, Z
    1cfe:	80 91 58 03 	lds	r24, 0x0358	; 0x800358 <g_planner_buffer>
    1d02:	90 91 59 03 	lds	r25, 0x0359	; 0x800359 <g_planner_buffer+0x1>
    1d06:	0e 94 65 04 	call	0x8ca	; 0x8ca <is_buffer_empty>
    1d0a:	81 11       	cpse	r24, r1
    1d0c:	09 c0       	rjmp	.+18     	; 0x1d20 <planner_add_line+0x1ca>
    1d0e:	b2 01       	movw	r22, r4
    1d10:	80 91 58 03 	lds	r24, 0x0358	; 0x800358 <g_planner_buffer>
    1d14:	90 91 59 03 	lds	r25, 0x0359	; 0x800359 <g_planner_buffer+0x1>
    1d18:	0e 94 7d 04 	call	0x8fa	; 0x8fa <buffer_get_prev>
    1d1c:	5c 01       	movw	r10, r24
    1d1e:	02 c0       	rjmp	.+4      	; 0x1d24 <planner_add_line+0x1ce>
    1d20:	a1 2c       	mov	r10, r1
    1d22:	b1 2c       	mov	r11, r1
    1d24:	31 2c       	mov	r3, r1
    1d26:	19 82       	std	Y+1, r1	; 0x01
    1d28:	1a 82       	std	Y+2, r1	; 0x02
    1d2a:	1b 82       	std	Y+3, r1	; 0x03
    1d2c:	1c 82       	std	Y+4, r1	; 0x04
    1d2e:	be 82       	std	Y+6, r11	; 0x06
    1d30:	ad 82       	std	Y+5, r10	; 0x05
    1d32:	3d 86       	std	Y+13, r3	; 0x0d
    1d34:	78 86       	std	Y+8, r7	; 0x08
    1d36:	6f 82       	std	Y+7, r6	; 0x07
    1d38:	d3 c0       	rjmp	.+422    	; 0x1ee0 <planner_add_line+0x38a>
    1d3a:	fd 85       	ldd	r31, Y+13	; 0x0d
    1d3c:	0f 2f       	mov	r16, r31
    1d3e:	10 e0       	ldi	r17, 0x00	; 0
    1d40:	f8 01       	movw	r30, r16
    1d42:	ee 0f       	add	r30, r30
    1d44:	ff 1f       	adc	r31, r31
    1d46:	ee 0f       	add	r30, r30
    1d48:	ff 1f       	adc	r31, r31
    1d4a:	e4 0d       	add	r30, r4
    1d4c:	f5 1d       	adc	r31, r5
    1d4e:	85 84       	ldd	r8, Z+13	; 0x0d
    1d50:	96 84       	ldd	r9, Z+14	; 0x0e
    1d52:	a7 84       	ldd	r10, Z+15	; 0x0f
    1d54:	b0 88       	ldd	r11, Z+16	; 0x10
    1d56:	20 e0       	ldi	r18, 0x00	; 0
    1d58:	30 e0       	ldi	r19, 0x00	; 0
    1d5a:	a9 01       	movw	r20, r18
    1d5c:	c5 01       	movw	r24, r10
    1d5e:	b4 01       	movw	r22, r8
    1d60:	0e 94 76 19 	call	0x32ec	; 0x32ec <__cmpsf2>
    1d64:	88 23       	and	r24, r24
    1d66:	09 f4       	brne	.+2      	; 0x1d6a <planner_add_line+0x214>
    1d68:	b7 c0       	rjmp	.+366    	; 0x1ed8 <planner_add_line+0x382>
    1d6a:	78 01       	movw	r14, r16
    1d6c:	ee 0c       	add	r14, r14
    1d6e:	ff 1c       	adc	r15, r15
    1d70:	ee 0c       	add	r14, r14
    1d72:	ff 1c       	adc	r15, r15
    1d74:	e4 0c       	add	r14, r4
    1d76:	f5 1c       	adc	r15, r5
    1d78:	a5 01       	movw	r20, r10
    1d7a:	94 01       	movw	r18, r8
    1d7c:	69 85       	ldd	r22, Y+9	; 0x09
    1d7e:	7a 85       	ldd	r23, Y+10	; 0x0a
    1d80:	8b 85       	ldd	r24, Y+11	; 0x0b
    1d82:	9c 85       	ldd	r25, Y+12	; 0x0c
    1d84:	0e 94 d3 1a 	call	0x35a6	; 0x35a6 <__mulsf3>
    1d88:	f7 01       	movw	r30, r14
    1d8a:	65 87       	std	Z+13, r22	; 0x0d
    1d8c:	76 87       	std	Z+14, r23	; 0x0e
    1d8e:	87 87       	std	Z+15, r24	; 0x0f
    1d90:	90 8b       	std	Z+16, r25	; 0x10
    1d92:	80 91 58 03 	lds	r24, 0x0358	; 0x800358 <g_planner_buffer>
    1d96:	90 91 59 03 	lds	r25, 0x0359	; 0x800359 <g_planner_buffer+0x1>
    1d9a:	0e 94 65 04 	call	0x8ca	; 0x8ca <is_buffer_empty>
    1d9e:	81 11       	cpse	r24, r1
    1da0:	20 c0       	rjmp	.+64     	; 0x1de2 <planner_add_line+0x28c>
    1da2:	98 01       	movw	r18, r16
    1da4:	22 0f       	add	r18, r18
    1da6:	33 1f       	adc	r19, r19
    1da8:	22 0f       	add	r18, r18
    1daa:	33 1f       	adc	r19, r19
    1dac:	f7 01       	movw	r30, r14
    1dae:	65 85       	ldd	r22, Z+13	; 0x0d
    1db0:	76 85       	ldd	r23, Z+14	; 0x0e
    1db2:	87 85       	ldd	r24, Z+15	; 0x0f
    1db4:	90 89       	ldd	r25, Z+16	; 0x10
    1db6:	ed 81       	ldd	r30, Y+5	; 0x05
    1db8:	fe 81       	ldd	r31, Y+6	; 0x06
    1dba:	e2 0f       	add	r30, r18
    1dbc:	f3 1f       	adc	r31, r19
    1dbe:	25 85       	ldd	r18, Z+13	; 0x0d
    1dc0:	36 85       	ldd	r19, Z+14	; 0x0e
    1dc2:	47 85       	ldd	r20, Z+15	; 0x0f
    1dc4:	50 89       	ldd	r21, Z+16	; 0x10
    1dc6:	0e 94 d3 1a 	call	0x35a6	; 0x35a6 <__mulsf3>
    1dca:	9b 01       	movw	r18, r22
    1dcc:	ac 01       	movw	r20, r24
    1dce:	69 81       	ldd	r22, Y+1	; 0x01
    1dd0:	7a 81       	ldd	r23, Y+2	; 0x02
    1dd2:	8b 81       	ldd	r24, Y+3	; 0x03
    1dd4:	9c 81       	ldd	r25, Y+4	; 0x04
    1dd6:	0e 94 0a 19 	call	0x3214	; 0x3214 <__addsf3>
    1dda:	69 83       	std	Y+1, r22	; 0x01
    1ddc:	7a 83       	std	Y+2, r23	; 0x02
    1dde:	8b 83       	std	Y+3, r24	; 0x03
    1de0:	9c 83       	std	Y+4, r25	; 0x04
    1de2:	20 fe       	sbrs	r2, 0
    1de4:	10 c0       	rjmp	.+32     	; 0x1e06 <planner_add_line+0x2b0>
    1de6:	f8 01       	movw	r30, r16
    1de8:	ee 0f       	add	r30, r30
    1dea:	ff 1f       	adc	r31, r31
    1dec:	ee 0f       	add	r30, r30
    1dee:	ff 1f       	adc	r31, r31
    1df0:	e4 0d       	add	r30, r4
    1df2:	f5 1d       	adc	r31, r5
    1df4:	c5 84       	ldd	r12, Z+13	; 0x0d
    1df6:	d6 84       	ldd	r13, Z+14	; 0x0e
    1df8:	e7 84       	ldd	r14, Z+15	; 0x0f
    1dfa:	f0 88       	ldd	r15, Z+16	; 0x10
    1dfc:	f7 fa       	bst	r15, 7
    1dfe:	f0 94       	com	r15
    1e00:	f7 f8       	bld	r15, 7
    1e02:	f0 94       	com	r15
    1e04:	0b c0       	rjmp	.+22     	; 0x1e1c <planner_add_line+0x2c6>
    1e06:	f8 01       	movw	r30, r16
    1e08:	ee 0f       	add	r30, r30
    1e0a:	ff 1f       	adc	r31, r31
    1e0c:	ee 0f       	add	r30, r30
    1e0e:	ff 1f       	adc	r31, r31
    1e10:	e4 0d       	add	r30, r4
    1e12:	f5 1d       	adc	r31, r5
    1e14:	c5 84       	ldd	r12, Z+13	; 0x0d
    1e16:	d6 84       	ldd	r13, Z+14	; 0x0e
    1e18:	e7 84       	ldd	r14, Z+15	; 0x0f
    1e1a:	f0 88       	ldd	r15, Z+16	; 0x10
    1e1c:	f8 01       	movw	r30, r16
    1e1e:	ee 0f       	add	r30, r30
    1e20:	ff 1f       	adc	r31, r31
    1e22:	ee 0f       	add	r30, r30
    1e24:	ff 1f       	adc	r31, r31
    1e26:	e2 54       	subi	r30, 0x42	; 66
    1e28:	fb 4f       	sbci	r31, 0xFB	; 251
    1e2a:	67 85       	ldd	r22, Z+15	; 0x0f
    1e2c:	70 89       	ldd	r23, Z+16	; 0x10
    1e2e:	81 89       	ldd	r24, Z+17	; 0x11
    1e30:	92 89       	ldd	r25, Z+18	; 0x12
    1e32:	a7 01       	movw	r20, r14
    1e34:	96 01       	movw	r18, r12
    1e36:	0e 94 7b 19 	call	0x32f6	; 0x32f6 <__divsf3>
    1e3a:	66 2e       	mov	r6, r22
    1e3c:	a7 2e       	mov	r10, r23
    1e3e:	88 2e       	mov	r8, r24
    1e40:	39 2e       	mov	r3, r25
    1e42:	f2 01       	movw	r30, r4
    1e44:	91 a4       	ldd	r9, Z+41	; 0x29
    1e46:	f2 a5       	ldd	r31, Z+42	; 0x2a
    1e48:	fe 87       	std	Y+14, r31	; 0x0e
    1e4a:	f2 01       	movw	r30, r4
    1e4c:	b3 a4       	ldd	r11, Z+43	; 0x2b
    1e4e:	74 a4       	ldd	r7, Z+44	; 0x2c
    1e50:	29 2d       	mov	r18, r9
    1e52:	3e 85       	ldd	r19, Y+14	; 0x0e
    1e54:	4b 2d       	mov	r20, r11
    1e56:	57 2d       	mov	r21, r7
    1e58:	0e 94 ce 1a 	call	0x359c	; 0x359c <__gesf2>
    1e5c:	18 16       	cp	r1, r24
    1e5e:	24 f0       	brlt	.+8      	; 0x1e68 <planner_add_line+0x312>
    1e60:	96 2c       	mov	r9, r6
    1e62:	ae 86       	std	Y+14, r10	; 0x0e
    1e64:	b8 2c       	mov	r11, r8
    1e66:	73 2c       	mov	r7, r3
    1e68:	89 2d       	mov	r24, r9
    1e6a:	9e 85       	ldd	r25, Y+14	; 0x0e
    1e6c:	ab 2d       	mov	r26, r11
    1e6e:	b7 2d       	mov	r27, r7
    1e70:	f2 01       	movw	r30, r4
    1e72:	81 a7       	std	Z+41, r24	; 0x29
    1e74:	92 a7       	std	Z+42, r25	; 0x2a
    1e76:	a3 a7       	std	Z+43, r26	; 0x2b
    1e78:	b4 a7       	std	Z+44, r27	; 0x2c
    1e7a:	00 0f       	add	r16, r16
    1e7c:	11 1f       	adc	r17, r17
    1e7e:	00 0f       	add	r16, r16
    1e80:	11 1f       	adc	r17, r17
    1e82:	f8 01       	movw	r30, r16
    1e84:	e2 54       	subi	r30, 0x42	; 66
    1e86:	fb 4f       	sbci	r31, 0xFB	; 251
    1e88:	63 8d       	ldd	r22, Z+27	; 0x1b
    1e8a:	74 8d       	ldd	r23, Z+28	; 0x1c
    1e8c:	85 8d       	ldd	r24, Z+29	; 0x1d
    1e8e:	96 8d       	ldd	r25, Z+30	; 0x1e
    1e90:	a7 01       	movw	r20, r14
    1e92:	96 01       	movw	r18, r12
    1e94:	0e 94 7b 19 	call	0x32f6	; 0x32f6 <__divsf3>
    1e98:	e6 2e       	mov	r14, r22
    1e9a:	f7 2e       	mov	r15, r23
    1e9c:	08 2f       	mov	r16, r24
    1e9e:	19 2f       	mov	r17, r25
    1ea0:	f2 01       	movw	r30, r4
    1ea2:	f1 a9       	ldd	r31, Z+49	; 0x31
    1ea4:	fe 87       	std	Y+14, r31	; 0x0e
    1ea6:	f2 01       	movw	r30, r4
    1ea8:	d2 a8       	ldd	r13, Z+50	; 0x32
    1eaa:	c3 a8       	ldd	r12, Z+51	; 0x33
    1eac:	94 a8       	ldd	r9, Z+52	; 0x34
    1eae:	2e 85       	ldd	r18, Y+14	; 0x0e
    1eb0:	3d 2d       	mov	r19, r13
    1eb2:	4c 2d       	mov	r20, r12
    1eb4:	59 2d       	mov	r21, r9
    1eb6:	0e 94 ce 1a 	call	0x359c	; 0x359c <__gesf2>
    1eba:	18 16       	cp	r1, r24
    1ebc:	24 f0       	brlt	.+8      	; 0x1ec6 <planner_add_line+0x370>
    1ebe:	ee 86       	std	Y+14, r14	; 0x0e
    1ec0:	df 2c       	mov	r13, r15
    1ec2:	c0 2e       	mov	r12, r16
    1ec4:	91 2e       	mov	r9, r17
    1ec6:	8e 85       	ldd	r24, Y+14	; 0x0e
    1ec8:	9d 2d       	mov	r25, r13
    1eca:	ac 2d       	mov	r26, r12
    1ecc:	b9 2d       	mov	r27, r9
    1ece:	f2 01       	movw	r30, r4
    1ed0:	81 ab       	std	Z+49, r24	; 0x31
    1ed2:	92 ab       	std	Z+50, r25	; 0x32
    1ed4:	a3 ab       	std	Z+51, r26	; 0x33
    1ed6:	b4 ab       	std	Z+52, r27	; 0x34
    1ed8:	26 94       	lsr	r2
    1eda:	fd 85       	ldd	r31, Y+13	; 0x0d
    1edc:	ff 5f       	subi	r31, 0xFF	; 255
    1ede:	fd 87       	std	Y+13, r31	; 0x0d
    1ee0:	8d 85       	ldd	r24, Y+13	; 0x0d
    1ee2:	83 30       	cpi	r24, 0x03	; 3
    1ee4:	08 f4       	brcc	.+2      	; 0x1ee8 <planner_add_line+0x392>
    1ee6:	29 cf       	rjmp	.-430    	; 0x1d3a <planner_add_line+0x1e4>
    1ee8:	ad 80       	ldd	r10, Y+5	; 0x05
    1eea:	be 80       	ldd	r11, Y+6	; 0x06
    1eec:	6f 80       	ldd	r6, Y+7	; 0x07
    1eee:	78 84       	ldd	r7, Y+8	; 0x08
    1ef0:	f2 01       	movw	r30, r4
    1ef2:	21 a9       	ldd	r18, Z+49	; 0x31
    1ef4:	32 a9       	ldd	r19, Z+50	; 0x32
    1ef6:	43 a9       	ldd	r20, Z+51	; 0x33
    1ef8:	54 a9       	ldd	r21, Z+52	; 0x34
    1efa:	60 e0       	ldi	r22, 0x00	; 0
    1efc:	70 e0       	ldi	r23, 0x00	; 0
    1efe:	80 e8       	ldi	r24, 0x80	; 128
    1f00:	9f e3       	ldi	r25, 0x3F	; 63
    1f02:	0e 94 7b 19 	call	0x32f6	; 0x32f6 <__divsf3>
    1f06:	f2 01       	movw	r30, r4
    1f08:	65 ab       	std	Z+53, r22	; 0x35
    1f0a:	76 ab       	std	Z+54, r23	; 0x36
    1f0c:	87 ab       	std	Z+55, r24	; 0x37
    1f0e:	90 af       	std	Z+56, r25	; 0x38
    1f10:	65 a5       	ldd	r22, Z+45	; 0x2d
    1f12:	76 a5       	ldd	r23, Z+46	; 0x2e
    1f14:	87 a5       	ldd	r24, Z+47	; 0x2f
    1f16:	90 a9       	ldd	r25, Z+48	; 0x30
    1f18:	c1 a4       	ldd	r12, Z+41	; 0x29
    1f1a:	d2 a4       	ldd	r13, Z+42	; 0x2a
    1f1c:	e3 a4       	ldd	r14, Z+43	; 0x2b
    1f1e:	f4 a4       	ldd	r15, Z+44	; 0x2c
    1f20:	a7 01       	movw	r20, r14
    1f22:	96 01       	movw	r18, r12
    1f24:	0e 94 ce 1a 	call	0x359c	; 0x359c <__gesf2>
    1f28:	18 16       	cp	r1, r24
    1f2a:	2c f4       	brge	.+10     	; 0x1f36 <planner_add_line+0x3e0>
    1f2c:	f2 01       	movw	r30, r4
    1f2e:	c5 a6       	std	Z+45, r12	; 0x2d
    1f30:	d6 a6       	std	Z+46, r13	; 0x2e
    1f32:	e7 a6       	std	Z+47, r14	; 0x2f
    1f34:	f0 aa       	std	Z+48, r15	; 0x30
    1f36:	f2 01       	movw	r30, r4
    1f38:	11 a2       	std	Z+33, r1	; 0x21
    1f3a:	12 a2       	std	Z+34, r1	; 0x22
    1f3c:	13 a2       	std	Z+35, r1	; 0x23
    1f3e:	14 a2       	std	Z+36, r1	; 0x24
    1f40:	65 a5       	ldd	r22, Z+45	; 0x2d
    1f42:	76 a5       	ldd	r23, Z+46	; 0x2e
    1f44:	87 a5       	ldd	r24, Z+47	; 0x2f
    1f46:	90 a9       	ldd	r25, Z+48	; 0x30
    1f48:	9b 01       	movw	r18, r22
    1f4a:	ac 01       	movw	r20, r24
    1f4c:	0e 94 d3 1a 	call	0x35a6	; 0x35a6 <__mulsf3>
    1f50:	f2 01       	movw	r30, r4
    1f52:	65 a3       	std	Z+37, r22	; 0x25
    1f54:	76 a3       	std	Z+38, r23	; 0x26
    1f56:	87 a3       	std	Z+39, r24	; 0x27
    1f58:	90 a7       	std	Z+40, r25	; 0x28
    1f5a:	80 91 58 03 	lds	r24, 0x0358	; 0x800358 <g_planner_buffer>
    1f5e:	90 91 59 03 	lds	r25, 0x0359	; 0x800359 <g_planner_buffer+0x1>
    1f62:	0e 94 65 04 	call	0x8ca	; 0x8ca <is_buffer_empty>
    1f66:	81 11       	cpse	r24, r1
    1f68:	8b c0       	rjmp	.+278    	; 0x2080 <planner_add_line+0x52a>
    1f6a:	20 e0       	ldi	r18, 0x00	; 0
    1f6c:	30 e0       	ldi	r19, 0x00	; 0
    1f6e:	a9 01       	movw	r20, r18
    1f70:	69 81       	ldd	r22, Y+1	; 0x01
    1f72:	7a 81       	ldd	r23, Y+2	; 0x02
    1f74:	8b 81       	ldd	r24, Y+3	; 0x03
    1f76:	9c 81       	ldd	r25, Y+4	; 0x04
    1f78:	0e 94 ce 1a 	call	0x359c	; 0x359c <__gesf2>
    1f7c:	18 16       	cp	r1, r24
    1f7e:	b4 f5       	brge	.+108    	; 0x1fec <planner_add_line+0x496>
    1f80:	20 e0       	ldi	r18, 0x00	; 0
    1f82:	30 e0       	ldi	r19, 0x00	; 0
    1f84:	40 e8       	ldi	r20, 0x80	; 128
    1f86:	5f e3       	ldi	r21, 0x3F	; 63
    1f88:	69 81       	ldd	r22, Y+1	; 0x01
    1f8a:	7a 81       	ldd	r23, Y+2	; 0x02
    1f8c:	8b 81       	ldd	r24, Y+3	; 0x03
    1f8e:	9c 81       	ldd	r25, Y+4	; 0x04
    1f90:	0e 94 0a 19 	call	0x3214	; 0x3214 <__addsf3>
    1f94:	9b 01       	movw	r18, r22
    1f96:	ac 01       	movw	r20, r24
    1f98:	60 e0       	ldi	r22, 0x00	; 0
    1f9a:	70 e0       	ldi	r23, 0x00	; 0
    1f9c:	80 e8       	ldi	r24, 0x80	; 128
    1f9e:	9f e3       	ldi	r25, 0x3F	; 63
    1fa0:	0e 94 7b 19 	call	0x32f6	; 0x32f6 <__divsf3>
    1fa4:	6b 01       	movw	r12, r22
    1fa6:	7c 01       	movw	r14, r24
    1fa8:	f2 01       	movw	r30, r4
    1faa:	65 8f       	std	Z+29, r22	; 0x1d
    1fac:	76 8f       	std	Z+30, r23	; 0x1e
    1fae:	87 8f       	std	Z+31, r24	; 0x1f
    1fb0:	90 a3       	std	Z+32, r25	; 0x20
    1fb2:	29 81       	ldd	r18, Y+1	; 0x01
    1fb4:	3a 81       	ldd	r19, Y+2	; 0x02
    1fb6:	4b 81       	ldd	r20, Y+3	; 0x03
    1fb8:	5c 81       	ldd	r21, Y+4	; 0x04
    1fba:	ca 01       	movw	r24, r20
    1fbc:	b9 01       	movw	r22, r18
    1fbe:	0e 94 d3 1a 	call	0x35a6	; 0x35a6 <__mulsf3>
    1fc2:	9b 01       	movw	r18, r22
    1fc4:	ac 01       	movw	r20, r24
    1fc6:	60 e0       	ldi	r22, 0x00	; 0
    1fc8:	70 e0       	ldi	r23, 0x00	; 0
    1fca:	80 e8       	ldi	r24, 0x80	; 128
    1fcc:	9f e3       	ldi	r25, 0x3F	; 63
    1fce:	0e 94 09 19 	call	0x3212	; 0x3212 <__subsf3>
    1fd2:	0e 94 6a 1b 	call	0x36d4	; 0x36d4 <sqrt>
    1fd6:	9b 01       	movw	r18, r22
    1fd8:	ac 01       	movw	r20, r24
    1fda:	c7 01       	movw	r24, r14
    1fdc:	b6 01       	movw	r22, r12
    1fde:	0e 94 d3 1a 	call	0x35a6	; 0x35a6 <__mulsf3>
    1fe2:	f2 01       	movw	r30, r4
    1fe4:	65 8f       	std	Z+29, r22	; 0x1d
    1fe6:	76 8f       	std	Z+30, r23	; 0x1e
    1fe8:	87 8f       	std	Z+31, r24	; 0x1f
    1fea:	90 a3       	std	Z+32, r25	; 0x20
    1fec:	f2 01       	movw	r30, r4
    1fee:	c5 8c       	ldd	r12, Z+29	; 0x1d
    1ff0:	d6 8c       	ldd	r13, Z+30	; 0x1e
    1ff2:	e7 8c       	ldd	r14, Z+31	; 0x1f
    1ff4:	f0 a0       	ldd	r15, Z+32	; 0x20
    1ff6:	20 e0       	ldi	r18, 0x00	; 0
    1ff8:	30 e0       	ldi	r19, 0x00	; 0
    1ffa:	40 e8       	ldi	r20, 0x80	; 128
    1ffc:	5f e3       	ldi	r21, 0x3F	; 63
    1ffe:	c7 01       	movw	r24, r14
    2000:	b6 01       	movw	r22, r12
    2002:	0e 94 76 19 	call	0x32ec	; 0x32ec <__cmpsf2>
    2006:	88 23       	and	r24, r24
    2008:	cc f5       	brge	.+114    	; 0x207c <planner_add_line+0x526>
    200a:	f5 01       	movw	r30, r10
    200c:	85 a4       	ldd	r8, Z+45	; 0x2d
    200e:	96 a4       	ldd	r9, Z+46	; 0x2e
    2010:	a7 a4       	ldd	r10, Z+47	; 0x2f
    2012:	b0 a8       	ldd	r11, Z+48	; 0x30
    2014:	a7 01       	movw	r20, r14
    2016:	96 01       	movw	r18, r12
    2018:	60 e0       	ldi	r22, 0x00	; 0
    201a:	70 e0       	ldi	r23, 0x00	; 0
    201c:	80 e8       	ldi	r24, 0x80	; 128
    201e:	9f e3       	ldi	r25, 0x3F	; 63
    2020:	0e 94 09 19 	call	0x3212	; 0x3212 <__subsf3>
    2024:	9b 01       	movw	r18, r22
    2026:	ac 01       	movw	r20, r24
    2028:	c5 01       	movw	r24, r10
    202a:	b4 01       	movw	r22, r8
    202c:	0e 94 d3 1a 	call	0x35a6	; 0x35a6 <__mulsf3>
    2030:	9b 01       	movw	r18, r22
    2032:	ac 01       	movw	r20, r24
    2034:	0e 94 d3 1a 	call	0x35a6	; 0x35a6 <__mulsf3>
    2038:	e6 2e       	mov	r14, r22
    203a:	f7 2e       	mov	r15, r23
    203c:	08 2f       	mov	r16, r24
    203e:	19 2f       	mov	r17, r25
    2040:	f2 01       	movw	r30, r4
    2042:	f5 a1       	ldd	r31, Z+37	; 0x25
    2044:	fd 83       	std	Y+5, r31	; 0x05
    2046:	f2 01       	movw	r30, r4
    2048:	f6 a1       	ldd	r31, Z+38	; 0x26
    204a:	f9 83       	std	Y+1, r31	; 0x01
    204c:	f2 01       	movw	r30, r4
    204e:	d7 a0       	ldd	r13, Z+39	; 0x27
    2050:	c0 a4       	ldd	r12, Z+40	; 0x28
    2052:	2d 81       	ldd	r18, Y+5	; 0x05
    2054:	39 81       	ldd	r19, Y+1	; 0x01
    2056:	4d 2d       	mov	r20, r13
    2058:	5c 2d       	mov	r21, r12
    205a:	0e 94 ce 1a 	call	0x359c	; 0x359c <__gesf2>
    205e:	18 16       	cp	r1, r24
    2060:	24 f0       	brlt	.+8      	; 0x206a <planner_add_line+0x514>
    2062:	ed 82       	std	Y+5, r14	; 0x05
    2064:	f9 82       	std	Y+1, r15	; 0x01
    2066:	d0 2e       	mov	r13, r16
    2068:	c1 2e       	mov	r12, r17
    206a:	8d 81       	ldd	r24, Y+5	; 0x05
    206c:	99 81       	ldd	r25, Y+1	; 0x01
    206e:	ad 2d       	mov	r26, r13
    2070:	bc 2d       	mov	r27, r12
    2072:	f2 01       	movw	r30, r4
    2074:	85 a3       	std	Z+37, r24	; 0x25
    2076:	96 a3       	std	Z+38, r25	; 0x26
    2078:	a7 a3       	std	Z+39, r26	; 0x27
    207a:	b0 a7       	std	Z+40, r27	; 0x28
    207c:	0e 94 e4 04 	call	0x9c8	; 0x9c8 <planner_recalculate>
    2080:	60 e0       	ldi	r22, 0x00	; 0
    2082:	70 e0       	ldi	r23, 0x00	; 0
    2084:	80 91 58 03 	lds	r24, 0x0358	; 0x800358 <g_planner_buffer>
    2088:	90 91 59 03 	lds	r25, 0x0359	; 0x800359 <g_planner_buffer+0x1>
    208c:	0e 94 8c 0b 	call	0x1718	; 0x1718 <buffer_write>
    2090:	8c e0       	ldi	r24, 0x0C	; 12
    2092:	f3 01       	movw	r30, r6
    2094:	ac e4       	ldi	r26, 0x4C	; 76
    2096:	b3 e0       	ldi	r27, 0x03	; 3
    2098:	01 90       	ld	r0, Z+
    209a:	0d 92       	st	X+, r0
    209c:	8a 95       	dec	r24
    209e:	e1 f7       	brne	.-8      	; 0x2098 <planner_add_line+0x542>
    20a0:	2e 96       	adiw	r28, 0x0e	; 14
    20a2:	0f b6       	in	r0, 0x3f	; 63
    20a4:	f8 94       	cli
    20a6:	de bf       	out	0x3e, r29	; 62
    20a8:	0f be       	out	0x3f, r0	; 63
    20aa:	cd bf       	out	0x3d, r28	; 61
    20ac:	df 91       	pop	r29
    20ae:	cf 91       	pop	r28
    20b0:	1f 91       	pop	r17
    20b2:	0f 91       	pop	r16
    20b4:	ff 90       	pop	r15
    20b6:	ef 90       	pop	r14
    20b8:	df 90       	pop	r13
    20ba:	cf 90       	pop	r12
    20bc:	bf 90       	pop	r11
    20be:	af 90       	pop	r10
    20c0:	9f 90       	pop	r9
    20c2:	8f 90       	pop	r8
    20c4:	7f 90       	pop	r7
    20c6:	6f 90       	pop	r6
    20c8:	5f 90       	pop	r5
    20ca:	4f 90       	pop	r4
    20cc:	3f 90       	pop	r3
    20ce:	2f 90       	pop	r2
    20d0:	08 95       	ret

000020d2 <parser_exec_command>:
    20d2:	af 92       	push	r10
    20d4:	bf 92       	push	r11
    20d6:	cf 92       	push	r12
    20d8:	df 92       	push	r13
    20da:	ef 92       	push	r14
    20dc:	ff 92       	push	r15
    20de:	0f 93       	push	r16
    20e0:	1f 93       	push	r17
    20e2:	cf 93       	push	r28
    20e4:	df 93       	push	r29
    20e6:	cd b7       	in	r28, 0x3d	; 61
    20e8:	de b7       	in	r29, 0x3e	; 62
    20ea:	2c 97       	sbiw	r28, 0x0c	; 12
    20ec:	0f b6       	in	r0, 0x3f	; 63
    20ee:	f8 94       	cli
    20f0:	de bf       	out	0x3e, r29	; 62
    20f2:	0f be       	out	0x3f, r0	; 63
    20f4:	cd bf       	out	0x3d, r28	; 61
    20f6:	8c 01       	movw	r16, r24
    20f8:	fe 01       	movw	r30, r28
    20fa:	31 96       	adiw	r30, 0x01	; 1
    20fc:	8c e0       	ldi	r24, 0x0C	; 12
    20fe:	df 01       	movw	r26, r30
    2100:	1d 92       	st	X+, r1
    2102:	8a 95       	dec	r24
    2104:	e9 f7       	brne	.-6      	; 0x2100 <parser_exec_command+0x2e>
    2106:	f8 01       	movw	r30, r16
    2108:	84 81       	ldd	r24, Z+4	; 0x04
    210a:	88 23       	and	r24, r24
    210c:	2c f4       	brge	.+10     	; 0x2118 <parser_exec_command+0x46>
    210e:	60 8d       	ldd	r22, Z+24	; 0x18
    2110:	71 8d       	ldd	r23, Z+25	; 0x19
    2112:	82 8d       	ldd	r24, Z+26	; 0x1a
    2114:	93 8d       	ldd	r25, Z+27	; 0x1b
    2116:	0a c0       	rjmp	.+20     	; 0x212c <parser_exec_command+0x5a>
    2118:	20 8d       	ldd	r18, Z+24	; 0x18
    211a:	31 8d       	ldd	r19, Z+25	; 0x19
    211c:	42 8d       	ldd	r20, Z+26	; 0x1a
    211e:	53 8d       	ldd	r21, Z+27	; 0x1b
    2120:	60 e0       	ldi	r22, 0x00	; 0
    2122:	70 e0       	ldi	r23, 0x00	; 0
    2124:	80 e8       	ldi	r24, 0x80	; 128
    2126:	9f e3       	ldi	r25, 0x3F	; 63
    2128:	0e 94 7b 19 	call	0x32f6	; 0x32f6 <__divsf3>
    212c:	20 e0       	ldi	r18, 0x00	; 0
    212e:	30 e0       	ldi	r19, 0x00	; 0
    2130:	40 e7       	ldi	r20, 0x70	; 112
    2132:	52 e4       	ldi	r21, 0x42	; 66
    2134:	0e 94 7b 19 	call	0x32f6	; 0x32f6 <__divsf3>
    2138:	6b 01       	movw	r12, r22
    213a:	7c 01       	movw	r14, r24
    213c:	f8 01       	movw	r30, r16
    213e:	85 81       	ldd	r24, Z+5	; 0x05
    2140:	80 fd       	sbrc	r24, 0
    2142:	33 c0       	rjmp	.+102    	; 0x21aa <parser_exec_command+0xd8>
    2144:	23 e3       	ldi	r18, 0x33	; 51
    2146:	33 e3       	ldi	r19, 0x33	; 51
    2148:	4b ec       	ldi	r20, 0xCB	; 203
    214a:	51 e4       	ldi	r21, 0x41	; 65
    214c:	60 85       	ldd	r22, Z+8	; 0x08
    214e:	71 85       	ldd	r23, Z+9	; 0x09
    2150:	82 85       	ldd	r24, Z+10	; 0x0a
    2152:	93 85       	ldd	r25, Z+11	; 0x0b
    2154:	0e 94 d3 1a 	call	0x35a6	; 0x35a6 <__mulsf3>
    2158:	d8 01       	movw	r26, r16
    215a:	18 96       	adiw	r26, 0x08	; 8
    215c:	6d 93       	st	X+, r22
    215e:	7d 93       	st	X+, r23
    2160:	8d 93       	st	X+, r24
    2162:	9c 93       	st	X, r25
    2164:	1b 97       	sbiw	r26, 0x0b	; 11
    2166:	23 e3       	ldi	r18, 0x33	; 51
    2168:	33 e3       	ldi	r19, 0x33	; 51
    216a:	4b ec       	ldi	r20, 0xCB	; 203
    216c:	51 e4       	ldi	r21, 0x41	; 65
    216e:	1c 96       	adiw	r26, 0x0c	; 12
    2170:	6d 91       	ld	r22, X+
    2172:	7d 91       	ld	r23, X+
    2174:	8d 91       	ld	r24, X+
    2176:	9c 91       	ld	r25, X
    2178:	1f 97       	sbiw	r26, 0x0f	; 15
    217a:	0e 94 d3 1a 	call	0x35a6	; 0x35a6 <__mulsf3>
    217e:	f8 01       	movw	r30, r16
    2180:	64 87       	std	Z+12, r22	; 0x0c
    2182:	75 87       	std	Z+13, r23	; 0x0d
    2184:	86 87       	std	Z+14, r24	; 0x0e
    2186:	97 87       	std	Z+15, r25	; 0x0f
    2188:	23 e3       	ldi	r18, 0x33	; 51
    218a:	33 e3       	ldi	r19, 0x33	; 51
    218c:	4b ec       	ldi	r20, 0xCB	; 203
    218e:	51 e4       	ldi	r21, 0x41	; 65
    2190:	60 89       	ldd	r22, Z+16	; 0x10
    2192:	71 89       	ldd	r23, Z+17	; 0x11
    2194:	82 89       	ldd	r24, Z+18	; 0x12
    2196:	93 89       	ldd	r25, Z+19	; 0x13
    2198:	0e 94 d3 1a 	call	0x35a6	; 0x35a6 <__mulsf3>
    219c:	d8 01       	movw	r26, r16
    219e:	50 96       	adiw	r26, 0x10	; 16
    21a0:	6d 93       	st	X+, r22
    21a2:	7d 93       	st	X+, r23
    21a4:	8d 93       	st	X+, r24
    21a6:	9c 93       	st	X, r25
    21a8:	53 97       	sbiw	r26, 0x13	; 19
    21aa:	f8 01       	movw	r30, r16
    21ac:	87 81       	ldd	r24, Z+7	; 0x07
    21ae:	88 77       	andi	r24, 0x78	; 120
    21b0:	88 32       	cpi	r24, 0x28	; 40
    21b2:	a9 f1       	breq	.+106    	; 0x221e <parser_exec_command+0x14c>
    21b4:	85 81       	ldd	r24, Z+5	; 0x05
    21b6:	82 95       	swap	r24
    21b8:	86 95       	lsr	r24
    21ba:	87 70       	andi	r24, 0x07	; 7
    21bc:	90 e0       	ldi	r25, 0x00	; 0
    21be:	fc 01       	movw	r30, r24
    21c0:	ee 0f       	add	r30, r30
    21c2:	ff 1f       	adc	r31, r31
    21c4:	df 01       	movw	r26, r30
    21c6:	a8 0f       	add	r26, r24
    21c8:	b9 1f       	adc	r27, r25
    21ca:	aa 0f       	add	r26, r26
    21cc:	bb 1f       	adc	r27, r27
    21ce:	aa 0f       	add	r26, r26
    21d0:	bb 1f       	adc	r27, r27
    21d2:	aa 5f       	subi	r26, 0xFA	; 250
    21d4:	ba 4f       	sbci	r27, 0xFA	; 250
    21d6:	4d 91       	ld	r20, X+
    21d8:	5d 91       	ld	r21, X+
    21da:	6d 91       	ld	r22, X+
    21dc:	7c 91       	ld	r23, X
    21de:	49 83       	std	Y+1, r20	; 0x01
    21e0:	5a 83       	std	Y+2, r21	; 0x02
    21e2:	6b 83       	std	Y+3, r22	; 0x03
    21e4:	7c 83       	std	Y+4, r23	; 0x04
    21e6:	df 01       	movw	r26, r30
    21e8:	a8 0f       	add	r26, r24
    21ea:	b9 1f       	adc	r27, r25
    21ec:	aa 0f       	add	r26, r26
    21ee:	bb 1f       	adc	r27, r27
    21f0:	aa 0f       	add	r26, r26
    21f2:	bb 1f       	adc	r27, r27
    21f4:	aa 5f       	subi	r26, 0xFA	; 250
    21f6:	ba 4f       	sbci	r27, 0xFA	; 250
    21f8:	14 96       	adiw	r26, 0x04	; 4
    21fa:	4d 91       	ld	r20, X+
    21fc:	5d 91       	ld	r21, X+
    21fe:	6d 91       	ld	r22, X+
    2200:	7c 91       	ld	r23, X
    2202:	17 97       	sbiw	r26, 0x07	; 7
    2204:	4d 83       	std	Y+5, r20	; 0x05
    2206:	5e 83       	std	Y+6, r21	; 0x06
    2208:	6f 83       	std	Y+7, r22	; 0x07
    220a:	78 87       	std	Y+8, r23	; 0x08
    220c:	fd 01       	movw	r30, r26
    220e:	80 85       	ldd	r24, Z+8	; 0x08
    2210:	91 85       	ldd	r25, Z+9	; 0x09
    2212:	a2 85       	ldd	r26, Z+10	; 0x0a
    2214:	b3 85       	ldd	r27, Z+11	; 0x0b
    2216:	89 87       	std	Y+9, r24	; 0x09
    2218:	9a 87       	std	Y+10, r25	; 0x0a
    221a:	ab 87       	std	Y+11, r26	; 0x0b
    221c:	bc 87       	std	Y+12, r27	; 0x0c
    221e:	d8 01       	movw	r26, r16
    2220:	14 96       	adiw	r26, 0x04	; 4
    2222:	8c 91       	ld	r24, X
    2224:	86 ff       	sbrs	r24, 6
    2226:	35 c0       	rjmp	.+106    	; 0x2292 <parser_exec_command+0x1c0>
    2228:	0f 2e       	mov	r0, r31
    222a:	fe e4       	ldi	r31, 0x4E	; 78
    222c:	af 2e       	mov	r10, r31
    222e:	f5 e0       	ldi	r31, 0x05	; 5
    2230:	bf 2e       	mov	r11, r31
    2232:	f0 2d       	mov	r31, r0
    2234:	f5 01       	movw	r30, r10
    2236:	20 85       	ldd	r18, Z+8	; 0x08
    2238:	31 85       	ldd	r19, Z+9	; 0x09
    223a:	42 85       	ldd	r20, Z+10	; 0x0a
    223c:	53 85       	ldd	r21, Z+11	; 0x0b
    223e:	69 81       	ldd	r22, Y+1	; 0x01
    2240:	7a 81       	ldd	r23, Y+2	; 0x02
    2242:	8b 81       	ldd	r24, Y+3	; 0x03
    2244:	9c 81       	ldd	r25, Y+4	; 0x04
    2246:	0e 94 0a 19 	call	0x3214	; 0x3214 <__addsf3>
    224a:	69 83       	std	Y+1, r22	; 0x01
    224c:	7a 83       	std	Y+2, r23	; 0x02
    224e:	8b 83       	std	Y+3, r24	; 0x03
    2250:	9c 83       	std	Y+4, r25	; 0x04
    2252:	d5 01       	movw	r26, r10
    2254:	1c 96       	adiw	r26, 0x0c	; 12
    2256:	2d 91       	ld	r18, X+
    2258:	3d 91       	ld	r19, X+
    225a:	4d 91       	ld	r20, X+
    225c:	5c 91       	ld	r21, X
    225e:	1f 97       	sbiw	r26, 0x0f	; 15
    2260:	6d 81       	ldd	r22, Y+5	; 0x05
    2262:	7e 81       	ldd	r23, Y+6	; 0x06
    2264:	8f 81       	ldd	r24, Y+7	; 0x07
    2266:	98 85       	ldd	r25, Y+8	; 0x08
    2268:	0e 94 0a 19 	call	0x3214	; 0x3214 <__addsf3>
    226c:	6d 83       	std	Y+5, r22	; 0x05
    226e:	7e 83       	std	Y+6, r23	; 0x06
    2270:	8f 83       	std	Y+7, r24	; 0x07
    2272:	98 87       	std	Y+8, r25	; 0x08
    2274:	f5 01       	movw	r30, r10
    2276:	20 89       	ldd	r18, Z+16	; 0x10
    2278:	31 89       	ldd	r19, Z+17	; 0x11
    227a:	42 89       	ldd	r20, Z+18	; 0x12
    227c:	53 89       	ldd	r21, Z+19	; 0x13
    227e:	69 85       	ldd	r22, Y+9	; 0x09
    2280:	7a 85       	ldd	r23, Y+10	; 0x0a
    2282:	8b 85       	ldd	r24, Y+11	; 0x0b
    2284:	9c 85       	ldd	r25, Y+12	; 0x0c
    2286:	0e 94 0a 19 	call	0x3214	; 0x3214 <__addsf3>
    228a:	69 87       	std	Y+9, r22	; 0x09
    228c:	7a 87       	std	Y+10, r23	; 0x0a
    228e:	8b 87       	std	Y+11, r24	; 0x0b
    2290:	9c 87       	std	Y+12, r25	; 0x0c
    2292:	d8 01       	movw	r26, r16
    2294:	17 96       	adiw	r26, 0x07	; 7
    2296:	8c 91       	ld	r24, X
    2298:	86 95       	lsr	r24
    229a:	86 95       	lsr	r24
    229c:	86 95       	lsr	r24
    229e:	8f 70       	andi	r24, 0x0F	; 15
    22a0:	89 30       	cpi	r24, 0x09	; 9
    22a2:	19 f0       	breq	.+6      	; 0x22aa <parser_exec_command+0x1d8>
    22a4:	8a 30       	cpi	r24, 0x0A	; 10
    22a6:	11 f1       	breq	.+68     	; 0x22ec <parser_exec_command+0x21a>
    22a8:	28 c0       	rjmp	.+80     	; 0x22fa <parser_exec_command+0x228>
    22aa:	f8 01       	movw	r30, r16
    22ac:	80 85       	ldd	r24, Z+8	; 0x08
    22ae:	91 85       	ldd	r25, Z+9	; 0x09
    22b0:	a2 85       	ldd	r26, Z+10	; 0x0a
    22b2:	b3 85       	ldd	r27, Z+11	; 0x0b
    22b4:	ee ea       	ldi	r30, 0xAE	; 174
    22b6:	f4 e0       	ldi	r31, 0x04	; 4
    22b8:	80 83       	st	Z, r24
    22ba:	91 83       	std	Z+1, r25	; 0x01
    22bc:	a2 83       	std	Z+2, r26	; 0x02
    22be:	b3 83       	std	Z+3, r27	; 0x03
    22c0:	d8 01       	movw	r26, r16
    22c2:	1c 96       	adiw	r26, 0x0c	; 12
    22c4:	4d 91       	ld	r20, X+
    22c6:	5d 91       	ld	r21, X+
    22c8:	6d 91       	ld	r22, X+
    22ca:	7c 91       	ld	r23, X
    22cc:	1f 97       	sbiw	r26, 0x0f	; 15
    22ce:	44 83       	std	Z+4, r20	; 0x04
    22d0:	55 83       	std	Z+5, r21	; 0x05
    22d2:	66 83       	std	Z+6, r22	; 0x06
    22d4:	77 83       	std	Z+7, r23	; 0x07
    22d6:	50 96       	adiw	r26, 0x10	; 16
    22d8:	4d 91       	ld	r20, X+
    22da:	5d 91       	ld	r21, X+
    22dc:	6d 91       	ld	r22, X+
    22de:	7c 91       	ld	r23, X
    22e0:	53 97       	sbiw	r26, 0x13	; 19
    22e2:	40 87       	std	Z+8, r20	; 0x08
    22e4:	51 87       	std	Z+9, r21	; 0x09
    22e6:	62 87       	std	Z+10, r22	; 0x0a
    22e8:	73 87       	std	Z+11, r23	; 0x0b
    22ea:	07 c0       	rjmp	.+14     	; 0x22fa <parser_exec_command+0x228>
    22ec:	8c e0       	ldi	r24, 0x0C	; 12
    22ee:	ee ea       	ldi	r30, 0xAE	; 174
    22f0:	f4 e0       	ldi	r31, 0x04	; 4
    22f2:	df 01       	movw	r26, r30
    22f4:	1d 92       	st	X+, r1
    22f6:	8a 95       	dec	r24
    22f8:	e9 f7       	brne	.-6      	; 0x22f4 <parser_exec_command+0x222>
    22fa:	f8 01       	movw	r30, r16
    22fc:	60 85       	ldd	r22, Z+8	; 0x08
    22fe:	71 85       	ldd	r23, Z+9	; 0x09
    2300:	82 85       	ldd	r24, Z+10	; 0x0a
    2302:	93 85       	ldd	r25, Z+11	; 0x0b
    2304:	0f 2e       	mov	r0, r31
    2306:	fe ea       	ldi	r31, 0xAE	; 174
    2308:	af 2e       	mov	r10, r31
    230a:	f4 e0       	ldi	r31, 0x04	; 4
    230c:	bf 2e       	mov	r11, r31
    230e:	f0 2d       	mov	r31, r0
    2310:	d5 01       	movw	r26, r10
    2312:	2d 91       	ld	r18, X+
    2314:	3d 91       	ld	r19, X+
    2316:	4d 91       	ld	r20, X+
    2318:	5c 91       	ld	r21, X
    231a:	0e 94 0a 19 	call	0x3214	; 0x3214 <__addsf3>
    231e:	9b 01       	movw	r18, r22
    2320:	ac 01       	movw	r20, r24
    2322:	69 81       	ldd	r22, Y+1	; 0x01
    2324:	7a 81       	ldd	r23, Y+2	; 0x02
    2326:	8b 81       	ldd	r24, Y+3	; 0x03
    2328:	9c 81       	ldd	r25, Y+4	; 0x04
    232a:	0e 94 0a 19 	call	0x3214	; 0x3214 <__addsf3>
    232e:	69 83       	std	Y+1, r22	; 0x01
    2330:	7a 83       	std	Y+2, r23	; 0x02
    2332:	8b 83       	std	Y+3, r24	; 0x03
    2334:	9c 83       	std	Y+4, r25	; 0x04
    2336:	f8 01       	movw	r30, r16
    2338:	64 85       	ldd	r22, Z+12	; 0x0c
    233a:	75 85       	ldd	r23, Z+13	; 0x0d
    233c:	86 85       	ldd	r24, Z+14	; 0x0e
    233e:	97 85       	ldd	r25, Z+15	; 0x0f
    2340:	d5 01       	movw	r26, r10
    2342:	14 96       	adiw	r26, 0x04	; 4
    2344:	2d 91       	ld	r18, X+
    2346:	3d 91       	ld	r19, X+
    2348:	4d 91       	ld	r20, X+
    234a:	5c 91       	ld	r21, X
    234c:	17 97       	sbiw	r26, 0x07	; 7
    234e:	0e 94 0a 19 	call	0x3214	; 0x3214 <__addsf3>
    2352:	9b 01       	movw	r18, r22
    2354:	ac 01       	movw	r20, r24
    2356:	6d 81       	ldd	r22, Y+5	; 0x05
    2358:	7e 81       	ldd	r23, Y+6	; 0x06
    235a:	8f 81       	ldd	r24, Y+7	; 0x07
    235c:	98 85       	ldd	r25, Y+8	; 0x08
    235e:	0e 94 0a 19 	call	0x3214	; 0x3214 <__addsf3>
    2362:	6d 83       	std	Y+5, r22	; 0x05
    2364:	7e 83       	std	Y+6, r23	; 0x06
    2366:	8f 83       	std	Y+7, r24	; 0x07
    2368:	98 87       	std	Y+8, r25	; 0x08
    236a:	f8 01       	movw	r30, r16
    236c:	60 89       	ldd	r22, Z+16	; 0x10
    236e:	71 89       	ldd	r23, Z+17	; 0x11
    2370:	82 89       	ldd	r24, Z+18	; 0x12
    2372:	93 89       	ldd	r25, Z+19	; 0x13
    2374:	d5 01       	movw	r26, r10
    2376:	18 96       	adiw	r26, 0x08	; 8
    2378:	2d 91       	ld	r18, X+
    237a:	3d 91       	ld	r19, X+
    237c:	4d 91       	ld	r20, X+
    237e:	5c 91       	ld	r21, X
    2380:	1b 97       	sbiw	r26, 0x0b	; 11
    2382:	0e 94 0a 19 	call	0x3214	; 0x3214 <__addsf3>
    2386:	9b 01       	movw	r18, r22
    2388:	ac 01       	movw	r20, r24
    238a:	69 85       	ldd	r22, Y+9	; 0x09
    238c:	7a 85       	ldd	r23, Y+10	; 0x0a
    238e:	8b 85       	ldd	r24, Y+11	; 0x0b
    2390:	9c 85       	ldd	r25, Y+12	; 0x0c
    2392:	0e 94 0a 19 	call	0x3214	; 0x3214 <__addsf3>
    2396:	69 87       	std	Y+9, r22	; 0x09
    2398:	7a 87       	std	Y+10, r23	; 0x0a
    239a:	8b 87       	std	Y+11, r24	; 0x0b
    239c:	9c 87       	std	Y+12, r25	; 0x0c
    239e:	f8 01       	movw	r30, r16
    23a0:	84 81       	ldd	r24, Z+4	; 0x04
    23a2:	8f 70       	andi	r24, 0x0F	; 15
    23a4:	19 f0       	breq	.+6      	; 0x23ac <parser_exec_command+0x2da>
    23a6:	81 30       	cpi	r24, 0x01	; 1
    23a8:	71 f0       	breq	.+28     	; 0x23c6 <parser_exec_command+0x2f4>
    23aa:	13 c0       	rjmp	.+38     	; 0x23d2 <parser_exec_command+0x300>
    23ac:	40 91 ba 04 	lds	r20, 0x04BA	; 0x8004ba <parser_max_feed_rate>
    23b0:	50 91 bb 04 	lds	r21, 0x04BB	; 0x8004bb <parser_max_feed_rate+0x1>
    23b4:	60 91 bc 04 	lds	r22, 0x04BC	; 0x8004bc <parser_max_feed_rate+0x2>
    23b8:	70 91 bd 04 	lds	r23, 0x04BD	; 0x8004bd <parser_max_feed_rate+0x3>
    23bc:	ce 01       	movw	r24, r28
    23be:	01 96       	adiw	r24, 0x01	; 1
    23c0:	0e 94 ab 0d 	call	0x1b56	; 0x1b56 <planner_add_line>
    23c4:	06 c0       	rjmp	.+12     	; 0x23d2 <parser_exec_command+0x300>
    23c6:	b7 01       	movw	r22, r14
    23c8:	a6 01       	movw	r20, r12
    23ca:	ce 01       	movw	r24, r28
    23cc:	01 96       	adiw	r24, 0x01	; 1
    23ce:	0e 94 ab 0d 	call	0x1b56	; 0x1b56 <planner_add_line>
    23d2:	81 e4       	ldi	r24, 0x41	; 65
    23d4:	f8 01       	movw	r30, r16
    23d6:	ae e4       	ldi	r26, 0x4E	; 78
    23d8:	b5 e0       	ldi	r27, 0x05	; 5
    23da:	01 90       	ld	r0, Z+
    23dc:	0d 92       	st	X+, r0
    23de:	8a 95       	dec	r24
    23e0:	e1 f7       	brne	.-8      	; 0x23da <parser_exec_command+0x308>
    23e2:	80 e0       	ldi	r24, 0x00	; 0
    23e4:	2c 96       	adiw	r28, 0x0c	; 12
    23e6:	0f b6       	in	r0, 0x3f	; 63
    23e8:	f8 94       	cli
    23ea:	de bf       	out	0x3e, r29	; 62
    23ec:	0f be       	out	0x3f, r0	; 63
    23ee:	cd bf       	out	0x3d, r28	; 61
    23f0:	df 91       	pop	r29
    23f2:	cf 91       	pop	r28
    23f4:	1f 91       	pop	r17
    23f6:	0f 91       	pop	r16
    23f8:	ff 90       	pop	r15
    23fa:	ef 90       	pop	r14
    23fc:	df 90       	pop	r13
    23fe:	cf 90       	pop	r12
    2400:	bf 90       	pop	r11
    2402:	af 90       	pop	r10
    2404:	08 95       	ret

00002406 <parser_parse_command>:
    2406:	cf 93       	push	r28
    2408:	df 93       	push	r29
    240a:	cd b7       	in	r28, 0x3d	; 61
    240c:	de b7       	in	r29, 0x3e	; 62
    240e:	c1 54       	subi	r28, 0x41	; 65
    2410:	d1 09       	sbc	r29, r1
    2412:	0f b6       	in	r0, 0x3f	; 63
    2414:	f8 94       	cli
    2416:	de bf       	out	0x3e, r29	; 62
    2418:	0f be       	out	0x3f, r0	; 63
    241a:	cd bf       	out	0x3d, r28	; 61
    241c:	ce 01       	movw	r24, r28
    241e:	01 96       	adiw	r24, 0x01	; 1
    2420:	21 e4       	ldi	r18, 0x41	; 65
    2422:	fc 01       	movw	r30, r24
    2424:	11 92       	st	Z+, r1
    2426:	2a 95       	dec	r18
    2428:	e9 f7       	brne	.-6      	; 0x2424 <parser_parse_command+0x1e>
    242a:	21 e4       	ldi	r18, 0x41	; 65
    242c:	ee e4       	ldi	r30, 0x4E	; 78
    242e:	f5 e0       	ldi	r31, 0x05	; 5
    2430:	dc 01       	movw	r26, r24
    2432:	01 90       	ld	r0, Z+
    2434:	0d 92       	st	X+, r0
    2436:	2a 95       	dec	r18
    2438:	e1 f7       	brne	.-8      	; 0x2432 <parser_parse_command+0x2c>
    243a:	28 85       	ldd	r18, Y+8	; 0x08
    243c:	27 78       	andi	r18, 0x87	; 135
    243e:	28 87       	std	Y+8, r18	; 0x08
    2440:	0e 94 96 07 	call	0xf2c	; 0xf2c <parser_fetch_command>
    2444:	88 23       	and	r24, r24
    2446:	21 f0       	breq	.+8      	; 0x2450 <parser_parse_command+0x4a>
    2448:	ce 01       	movw	r24, r28
    244a:	01 96       	adiw	r24, 0x01	; 1
    244c:	0e 94 69 10 	call	0x20d2	; 0x20d2 <parser_exec_command>
    2450:	cf 5b       	subi	r28, 0xBF	; 191
    2452:	df 4f       	sbci	r29, 0xFF	; 255
    2454:	0f b6       	in	r0, 0x3f	; 63
    2456:	f8 94       	cli
    2458:	de bf       	out	0x3e, r29	; 62
    245a:	0f be       	out	0x3f, r0	; 63
    245c:	cd bf       	out	0x3d, r28	; 61
    245e:	df 91       	pop	r29
    2460:	cf 91       	pop	r28
    2462:	08 95       	ret

00002464 <cnc_run>:
    2464:	0e 94 78 02 	call	0x4f0	; 0x4f0 <protocol_received_cmd>
    2468:	88 23       	and	r24, r24
    246a:	e1 f3       	breq	.-8      	; 0x2464 <cnc_run>
    246c:	0e 94 e9 05 	call	0xbd2	; 0xbd2 <parser_is_ready>
    2470:	88 23       	and	r24, r24
    2472:	c1 f3       	breq	.-16     	; 0x2464 <cnc_run>
    2474:	0e 94 03 12 	call	0x2406	; 0x2406 <parser_parse_command>
    2478:	81 11       	cpse	r24, r1
    247a:	05 c0       	rjmp	.+10     	; 0x2486 <cnc_run+0x22>
    247c:	89 e2       	ldi	r24, 0x29	; 41
    247e:	94 e0       	ldi	r25, 0x04	; 4
    2480:	0e 94 ca 06 	call	0xd94	; 0xd94 <protocol_puts>
    2484:	ef cf       	rjmp	.-34     	; 0x2464 <cnc_run>
    2486:	1f 92       	push	r1
    2488:	8f 93       	push	r24
    248a:	8f e1       	ldi	r24, 0x1F	; 31
    248c:	94 e0       	ldi	r25, 0x04	; 4
    248e:	9f 93       	push	r25
    2490:	8f 93       	push	r24
    2492:	0e 94 98 06 	call	0xd30	; 0xd30 <protocol_printf>
    2496:	0f 90       	pop	r0
    2498:	0f 90       	pop	r0
    249a:	0f 90       	pop	r0
    249c:	0f 90       	pop	r0
    249e:	e2 cf       	rjmp	.-60     	; 0x2464 <cnc_run>

000024a0 <settings_load>:
    24a0:	0f 93       	push	r16
    24a2:	1f 93       	push	r17
    24a4:	cf 93       	push	r28
    24a6:	df 93       	push	r29
    24a8:	c8 e4       	ldi	r28, 0x48	; 72
    24aa:	d0 e0       	ldi	r29, 0x00	; 0
    24ac:	09 c0       	rjmp	.+18     	; 0x24c0 <settings_load+0x20>
    24ae:	21 97       	sbiw	r28, 0x01	; 1
    24b0:	8e 01       	movw	r16, r28
    24b2:	02 54       	subi	r16, 0x42	; 66
    24b4:	1b 4f       	sbci	r17, 0xFB	; 251
    24b6:	ce 01       	movw	r24, r28
    24b8:	0e 94 6f 03 	call	0x6de	; 0x6de <mcu_eeprom_getc>
    24bc:	f8 01       	movw	r30, r16
    24be:	80 83       	st	Z, r24
    24c0:	20 97       	sbiw	r28, 0x00	; 0
    24c2:	a9 f7       	brne	.-22     	; 0x24ae <settings_load+0xe>
    24c4:	c0 91 05 05 	lds	r28, 0x0505	; 0x800505 <g_settings+0x47>
    24c8:	47 e4       	ldi	r20, 0x47	; 71
    24ca:	50 e0       	ldi	r21, 0x00	; 0
    24cc:	6e eb       	ldi	r22, 0xBE	; 190
    24ce:	74 e0       	ldi	r23, 0x04	; 4
    24d0:	80 e0       	ldi	r24, 0x00	; 0
    24d2:	0e 94 ef 05 	call	0xbde	; 0xbde <settings_crc7>
    24d6:	c8 13       	cpse	r28, r24
    24d8:	08 c0       	rjmp	.+16     	; 0x24ea <settings_load+0x4a>
    24da:	65 e0       	ldi	r22, 0x05	; 5
    24dc:	72 e0       	ldi	r23, 0x02	; 2
    24de:	8e eb       	ldi	r24, 0xBE	; 190
    24e0:	94 e0       	ldi	r25, 0x04	; 4
    24e2:	0e 94 0a 1d 	call	0x3a14	; 0x3a14 <strcmp>
    24e6:	89 2b       	or	r24, r25
    24e8:	69 f0       	breq	.+26     	; 0x2504 <settings_load+0x64>
    24ea:	1f 92       	push	r1
    24ec:	87 e0       	ldi	r24, 0x07	; 7
    24ee:	8f 93       	push	r24
    24f0:	80 ee       	ldi	r24, 0xE0	; 224
    24f2:	93 e0       	ldi	r25, 0x03	; 3
    24f4:	9f 93       	push	r25
    24f6:	8f 93       	push	r24
    24f8:	0e 94 98 06 	call	0xd30	; 0xd30 <protocol_printf>
    24fc:	0f 90       	pop	r0
    24fe:	0f 90       	pop	r0
    2500:	0f 90       	pop	r0
    2502:	0f 90       	pop	r0
    2504:	df 91       	pop	r29
    2506:	cf 91       	pop	r28
    2508:	1f 91       	pop	r17
    250a:	0f 91       	pop	r16
    250c:	08 95       	ret

0000250e <cnc_init>:
    250e:	8e e0       	ldi	r24, 0x0E	; 14
    2510:	e0 ea       	ldi	r30, 0xA0	; 160
    2512:	f4 e0       	ldi	r31, 0x04	; 4
    2514:	df 01       	movw	r26, r30
    2516:	1d 92       	st	X+, r1
    2518:	8a 95       	dec	r24
    251a:	e9 f7       	brne	.-6      	; 0x2516 <cnc_init+0x8>
    251c:	0e 94 f9 03 	call	0x7f2	; 0x7f2 <mcu_init>
    2520:	0e 94 09 06 	call	0xc12	; 0xc12 <protocol_init>
    2524:	0e 94 50 12 	call	0x24a0	; 0x24a0 <settings_load>
    2528:	0e 94 24 06 	call	0xc48	; 0xc48 <parser_init>
    252c:	0e 94 dd 06 	call	0xdba	; 0xdba <parser_print_states>
    2530:	0e 94 01 06 	call	0xc02	; 0xc02 <mc_init>
    2534:	0e 94 7a 0d 	call	0x1af4	; 0x1af4 <planner_init>
    2538:	0e 94 43 0d 	call	0x1a86	; 0x1a86 <interpolator_init>
    253c:	1f 92       	push	r1
    253e:	81 e4       	ldi	r24, 0x41	; 65
    2540:	8f 93       	push	r24
    2542:	1f 92       	push	r1
    2544:	81 e0       	ldi	r24, 0x01	; 1
    2546:	8f 93       	push	r24
    2548:	1f 92       	push	r1
    254a:	1f 92       	push	r1
    254c:	8f ef       	ldi	r24, 0xFF	; 255
    254e:	93 e0       	ldi	r25, 0x03	; 3
    2550:	9f 93       	push	r25
    2552:	8f 93       	push	r24
    2554:	0e 94 98 06 	call	0xd30	; 0xd30 <protocol_printf>
    2558:	8d b7       	in	r24, 0x3d	; 61
    255a:	9e b7       	in	r25, 0x3e	; 62
    255c:	08 96       	adiw	r24, 0x08	; 8
    255e:	0f b6       	in	r0, 0x3f	; 63
    2560:	f8 94       	cli
    2562:	9e bf       	out	0x3e, r25	; 62
    2564:	0f be       	out	0x3f, r0	; 63
    2566:	8d bf       	out	0x3d, r24	; 61
    2568:	08 95       	ret

0000256a <__vector_20>:
    256a:	78 94       	sei
    256c:	1f 92       	push	r1
    256e:	0f 92       	push	r0
    2570:	0f b6       	in	r0, 0x3f	; 63
    2572:	0f 92       	push	r0
    2574:	11 24       	eor	r1, r1
    2576:	2f 93       	push	r18
    2578:	3f 93       	push	r19
    257a:	4f 93       	push	r20
    257c:	5f 93       	push	r21
    257e:	6f 93       	push	r22
    2580:	7f 93       	push	r23
    2582:	8f 93       	push	r24
    2584:	9f 93       	push	r25
    2586:	af 93       	push	r26
    2588:	bf 93       	push	r27
    258a:	ef 93       	push	r30
    258c:	ff 93       	push	r31
    258e:	e0 91 9a 04 	lds	r30, 0x049A	; 0x80049a <g_mcu_rs232TxCallback>
    2592:	f0 91 9b 04 	lds	r31, 0x049B	; 0x80049b <g_mcu_rs232TxCallback+0x1>
    2596:	30 97       	sbiw	r30, 0x00	; 0
    2598:	09 f0       	breq	.+2      	; 0x259c <__vector_20+0x32>
    259a:	09 95       	icall
    259c:	ff 91       	pop	r31
    259e:	ef 91       	pop	r30
    25a0:	bf 91       	pop	r27
    25a2:	af 91       	pop	r26
    25a4:	9f 91       	pop	r25
    25a6:	8f 91       	pop	r24
    25a8:	7f 91       	pop	r23
    25aa:	6f 91       	pop	r22
    25ac:	5f 91       	pop	r21
    25ae:	4f 91       	pop	r20
    25b0:	3f 91       	pop	r19
    25b2:	2f 91       	pop	r18
    25b4:	0f 90       	pop	r0
    25b6:	0f be       	out	0x3f, r0	; 63
    25b8:	0f 90       	pop	r0
    25ba:	1f 90       	pop	r1
    25bc:	18 95       	reti

000025be <__vector_18>:
    25be:	1f 92       	push	r1
    25c0:	0f 92       	push	r0
    25c2:	0f b6       	in	r0, 0x3f	; 63
    25c4:	0f 92       	push	r0
    25c6:	11 24       	eor	r1, r1
    25c8:	2f 93       	push	r18
    25ca:	3f 93       	push	r19
    25cc:	4f 93       	push	r20
    25ce:	5f 93       	push	r21
    25d0:	6f 93       	push	r22
    25d2:	7f 93       	push	r23
    25d4:	8f 93       	push	r24
    25d6:	9f 93       	push	r25
    25d8:	af 93       	push	r26
    25da:	bf 93       	push	r27
    25dc:	ef 93       	push	r30
    25de:	ff 93       	push	r31
    25e0:	cf 93       	push	r28
    25e2:	df 93       	push	r29
    25e4:	1f 92       	push	r1
    25e6:	cd b7       	in	r28, 0x3d	; 61
    25e8:	de b7       	in	r29, 0x3e	; 62
    25ea:	80 91 c6 00 	lds	r24, 0x00C6	; 0x8000c6 <__TEXT_REGION_LENGTH__+0x7e00c6>
    25ee:	89 83       	std	Y+1, r24	; 0x01
    25f0:	80 91 91 04 	lds	r24, 0x0491	; 0x800491 <g_mcu_rxhead>
    25f4:	99 81       	ldd	r25, Y+1	; 0x01
    25f6:	8f 5f       	subi	r24, 0xFF	; 255
    25f8:	80 93 91 04 	sts	0x0491, r24	; 0x800491 <g_mcu_rxhead>
    25fc:	82 33       	cpi	r24, 0x32	; 50
    25fe:	11 f4       	brne	.+4      	; 0x2604 <__vector_18+0x46>
    2600:	10 92 91 04 	sts	0x0491, r1	; 0x800491 <g_mcu_rxhead>
    2604:	89 81       	ldd	r24, Y+1	; 0x01
    2606:	29 81       	ldd	r18, Y+1	; 0x01
    2608:	91 e0       	ldi	r25, 0x01	; 1
    260a:	8a 30       	cpi	r24, 0x0A	; 10
    260c:	09 f0       	breq	.+2      	; 0x2610 <__vector_18+0x52>
    260e:	90 e0       	ldi	r25, 0x00	; 0
    2610:	81 e0       	ldi	r24, 0x01	; 1
    2612:	2d 30       	cpi	r18, 0x0D	; 13
    2614:	09 f0       	breq	.+2      	; 0x2618 <__vector_18+0x5a>
    2616:	80 e0       	ldi	r24, 0x00	; 0
    2618:	89 2b       	or	r24, r25
    261a:	29 f0       	breq	.+10     	; 0x2626 <__vector_18+0x68>
    261c:	80 91 90 04 	lds	r24, 0x0490	; 0x800490 <g_mcu_rxcount>
    2620:	8f 5f       	subi	r24, 0xFF	; 255
    2622:	80 93 90 04 	sts	0x0490, r24	; 0x800490 <g_mcu_rxcount>
    2626:	e0 91 98 04 	lds	r30, 0x0498	; 0x800498 <g_mcu_rs232RxCallback>
    262a:	f0 91 99 04 	lds	r31, 0x0499	; 0x800499 <g_mcu_rs232RxCallback+0x1>
    262e:	30 97       	sbiw	r30, 0x00	; 0
    2630:	11 f0       	breq	.+4      	; 0x2636 <__vector_18+0x78>
    2632:	89 81       	ldd	r24, Y+1	; 0x01
    2634:	09 95       	icall
    2636:	0f 90       	pop	r0
    2638:	df 91       	pop	r29
    263a:	cf 91       	pop	r28
    263c:	ff 91       	pop	r31
    263e:	ef 91       	pop	r30
    2640:	bf 91       	pop	r27
    2642:	af 91       	pop	r26
    2644:	9f 91       	pop	r25
    2646:	8f 91       	pop	r24
    2648:	7f 91       	pop	r23
    264a:	6f 91       	pop	r22
    264c:	5f 91       	pop	r21
    264e:	4f 91       	pop	r20
    2650:	3f 91       	pop	r19
    2652:	2f 91       	pop	r18
    2654:	0f 90       	pop	r0
    2656:	0f be       	out	0x3f, r0	; 63
    2658:	0f 90       	pop	r0
    265a:	1f 90       	pop	r1
    265c:	18 95       	reti

0000265e <__vector_5>:
    265e:	78 94       	sei
    2660:	1f 92       	push	r1
    2662:	0f 92       	push	r0
    2664:	0f b6       	in	r0, 0x3f	; 63
    2666:	0f 92       	push	r0
    2668:	11 24       	eor	r1, r1
    266a:	2f 93       	push	r18
    266c:	3f 93       	push	r19
    266e:	4f 93       	push	r20
    2670:	5f 93       	push	r21
    2672:	6f 93       	push	r22
    2674:	7f 93       	push	r23
    2676:	8f 93       	push	r24
    2678:	9f 93       	push	r25
    267a:	af 93       	push	r26
    267c:	bf 93       	push	r27
    267e:	ef 93       	push	r30
    2680:	ff 93       	push	r31
    2682:	e0 91 96 04 	lds	r30, 0x0496	; 0x800496 <mcu_limit_trigger_callback>
    2686:	f0 91 97 04 	lds	r31, 0x0497	; 0x800497 <mcu_limit_trigger_callback+0x1>
    268a:	30 97       	sbiw	r30, 0x00	; 0
    268c:	39 f0       	breq	.+14     	; 0x269c <__vector_5+0x3e>
    268e:	99 b1       	in	r25, 0x09	; 9
    2690:	89 b1       	in	r24, 0x09	; 9
    2692:	98 13       	cpse	r25, r24
    2694:	03 c0       	rjmp	.+6      	; 0x269c <__vector_5+0x3e>
    2696:	89 b1       	in	r24, 0x09	; 9
    2698:	80 7e       	andi	r24, 0xE0	; 224
    269a:	09 95       	icall
    269c:	ff 91       	pop	r31
    269e:	ef 91       	pop	r30
    26a0:	bf 91       	pop	r27
    26a2:	af 91       	pop	r26
    26a4:	9f 91       	pop	r25
    26a6:	8f 91       	pop	r24
    26a8:	7f 91       	pop	r23
    26aa:	6f 91       	pop	r22
    26ac:	5f 91       	pop	r21
    26ae:	4f 91       	pop	r20
    26b0:	3f 91       	pop	r19
    26b2:	2f 91       	pop	r18
    26b4:	0f 90       	pop	r0
    26b6:	0f be       	out	0x3f, r0	; 63
    26b8:	0f 90       	pop	r0
    26ba:	1f 90       	pop	r1
    26bc:	18 95       	reti

000026be <__vector_12>:
    26be:	78 94       	sei
    26c0:	1f 92       	push	r1
    26c2:	0f 92       	push	r0
    26c4:	0f b6       	in	r0, 0x3f	; 63
    26c6:	0f 92       	push	r0
    26c8:	11 24       	eor	r1, r1
    26ca:	2f 93       	push	r18
    26cc:	3f 93       	push	r19
    26ce:	4f 93       	push	r20
    26d0:	5f 93       	push	r21
    26d2:	6f 93       	push	r22
    26d4:	7f 93       	push	r23
    26d6:	8f 93       	push	r24
    26d8:	9f 93       	push	r25
    26da:	af 93       	push	r26
    26dc:	bf 93       	push	r27
    26de:	ef 93       	push	r30
    26e0:	ff 93       	push	r31
    26e2:	e0 91 9e 04 	lds	r30, 0x049E	; 0x80049e <g_mcu_stepResetCallback>
    26e6:	f0 91 9f 04 	lds	r31, 0x049F	; 0x80049f <g_mcu_stepResetCallback+0x1>
    26ea:	30 97       	sbiw	r30, 0x00	; 0
    26ec:	09 f0       	breq	.+2      	; 0x26f0 <__vector_12+0x32>
    26ee:	09 95       	icall
    26f0:	ff 91       	pop	r31
    26f2:	ef 91       	pop	r30
    26f4:	bf 91       	pop	r27
    26f6:	af 91       	pop	r26
    26f8:	9f 91       	pop	r25
    26fa:	8f 91       	pop	r24
    26fc:	7f 91       	pop	r23
    26fe:	6f 91       	pop	r22
    2700:	5f 91       	pop	r21
    2702:	4f 91       	pop	r20
    2704:	3f 91       	pop	r19
    2706:	2f 91       	pop	r18
    2708:	0f 90       	pop	r0
    270a:	0f be       	out	0x3f, r0	; 63
    270c:	0f 90       	pop	r0
    270e:	1f 90       	pop	r1
    2710:	18 95       	reti

00002712 <__vector_11>:
    2712:	78 94       	sei
    2714:	1f 92       	push	r1
    2716:	0f 92       	push	r0
    2718:	0f b6       	in	r0, 0x3f	; 63
    271a:	0f 92       	push	r0
    271c:	11 24       	eor	r1, r1
    271e:	2f 93       	push	r18
    2720:	3f 93       	push	r19
    2722:	4f 93       	push	r20
    2724:	5f 93       	push	r21
    2726:	6f 93       	push	r22
    2728:	7f 93       	push	r23
    272a:	8f 93       	push	r24
    272c:	9f 93       	push	r25
    272e:	af 93       	push	r26
    2730:	bf 93       	push	r27
    2732:	ef 93       	push	r30
    2734:	ff 93       	push	r31
    2736:	e0 91 9c 04 	lds	r30, 0x049C	; 0x80049c <g_mcu_stepCallback>
    273a:	f0 91 9d 04 	lds	r31, 0x049D	; 0x80049d <g_mcu_stepCallback+0x1>
    273e:	30 97       	sbiw	r30, 0x00	; 0
    2740:	09 f0       	breq	.+2      	; 0x2744 <__vector_11+0x32>
    2742:	09 95       	icall
    2744:	ff 91       	pop	r31
    2746:	ef 91       	pop	r30
    2748:	bf 91       	pop	r27
    274a:	af 91       	pop	r26
    274c:	9f 91       	pop	r25
    274e:	8f 91       	pop	r24
    2750:	7f 91       	pop	r23
    2752:	6f 91       	pop	r22
    2754:	5f 91       	pop	r21
    2756:	4f 91       	pop	r20
    2758:	3f 91       	pop	r19
    275a:	2f 91       	pop	r18
    275c:	0f 90       	pop	r0
    275e:	0f be       	out	0x3f, r0	; 63
    2760:	0f 90       	pop	r0
    2762:	1f 90       	pop	r1
    2764:	18 95       	reti

00002766 <main>:
    2766:	0e 94 87 12 	call	0x250e	; 0x250e <cnc_init>
    276a:	0e 94 32 12 	call	0x2464	; 0x2464 <cnc_run>

0000276e <vfprintf>:
    276e:	a0 e1       	ldi	r26, 0x10	; 16
    2770:	b0 e0       	ldi	r27, 0x00	; 0
    2772:	ed eb       	ldi	r30, 0xBD	; 189
    2774:	f3 e1       	ldi	r31, 0x13	; 19
    2776:	0c 94 34 17 	jmp	0x2e68	; 0x2e68 <__prologue_saves__>
    277a:	7c 01       	movw	r14, r24
    277c:	1b 01       	movw	r2, r22
    277e:	6a 01       	movw	r12, r20
    2780:	fc 01       	movw	r30, r24
    2782:	17 82       	std	Z+7, r1	; 0x07
    2784:	16 82       	std	Z+6, r1	; 0x06
    2786:	83 81       	ldd	r24, Z+3	; 0x03
    2788:	81 ff       	sbrs	r24, 1
    278a:	44 c3       	rjmp	.+1672   	; 0x2e14 <vfprintf+0x6a6>
    278c:	9e 01       	movw	r18, r28
    278e:	2f 5f       	subi	r18, 0xFF	; 255
    2790:	3f 4f       	sbci	r19, 0xFF	; 255
    2792:	39 01       	movw	r6, r18
    2794:	f7 01       	movw	r30, r14
    2796:	93 81       	ldd	r25, Z+3	; 0x03
    2798:	f1 01       	movw	r30, r2
    279a:	93 fd       	sbrc	r25, 3
    279c:	85 91       	lpm	r24, Z+
    279e:	93 ff       	sbrs	r25, 3
    27a0:	81 91       	ld	r24, Z+
    27a2:	1f 01       	movw	r2, r30
    27a4:	88 23       	and	r24, r24
    27a6:	09 f4       	brne	.+2      	; 0x27aa <vfprintf+0x3c>
    27a8:	31 c3       	rjmp	.+1634   	; 0x2e0c <vfprintf+0x69e>
    27aa:	85 32       	cpi	r24, 0x25	; 37
    27ac:	39 f4       	brne	.+14     	; 0x27bc <vfprintf+0x4e>
    27ae:	93 fd       	sbrc	r25, 3
    27b0:	85 91       	lpm	r24, Z+
    27b2:	93 ff       	sbrs	r25, 3
    27b4:	81 91       	ld	r24, Z+
    27b6:	1f 01       	movw	r2, r30
    27b8:	85 32       	cpi	r24, 0x25	; 37
    27ba:	39 f4       	brne	.+14     	; 0x27ca <vfprintf+0x5c>
    27bc:	b7 01       	movw	r22, r14
    27be:	90 e0       	ldi	r25, 0x00	; 0
    27c0:	0e 94 6f 18 	call	0x30de	; 0x30de <fputc>
    27c4:	56 01       	movw	r10, r12
    27c6:	65 01       	movw	r12, r10
    27c8:	e5 cf       	rjmp	.-54     	; 0x2794 <vfprintf+0x26>
    27ca:	10 e0       	ldi	r17, 0x00	; 0
    27cc:	51 2c       	mov	r5, r1
    27ce:	91 2c       	mov	r9, r1
    27d0:	ff e1       	ldi	r31, 0x1F	; 31
    27d2:	f9 15       	cp	r31, r9
    27d4:	d8 f0       	brcs	.+54     	; 0x280c <vfprintf+0x9e>
    27d6:	8b 32       	cpi	r24, 0x2B	; 43
    27d8:	79 f0       	breq	.+30     	; 0x27f8 <vfprintf+0x8a>
    27da:	38 f4       	brcc	.+14     	; 0x27ea <vfprintf+0x7c>
    27dc:	80 32       	cpi	r24, 0x20	; 32
    27de:	79 f0       	breq	.+30     	; 0x27fe <vfprintf+0x90>
    27e0:	83 32       	cpi	r24, 0x23	; 35
    27e2:	a1 f4       	brne	.+40     	; 0x280c <vfprintf+0x9e>
    27e4:	f9 2d       	mov	r31, r9
    27e6:	f0 61       	ori	r31, 0x10	; 16
    27e8:	2e c0       	rjmp	.+92     	; 0x2846 <vfprintf+0xd8>
    27ea:	8d 32       	cpi	r24, 0x2D	; 45
    27ec:	61 f0       	breq	.+24     	; 0x2806 <vfprintf+0x98>
    27ee:	80 33       	cpi	r24, 0x30	; 48
    27f0:	69 f4       	brne	.+26     	; 0x280c <vfprintf+0x9e>
    27f2:	29 2d       	mov	r18, r9
    27f4:	21 60       	ori	r18, 0x01	; 1
    27f6:	2d c0       	rjmp	.+90     	; 0x2852 <vfprintf+0xe4>
    27f8:	39 2d       	mov	r19, r9
    27fa:	32 60       	ori	r19, 0x02	; 2
    27fc:	93 2e       	mov	r9, r19
    27fe:	89 2d       	mov	r24, r9
    2800:	84 60       	ori	r24, 0x04	; 4
    2802:	98 2e       	mov	r9, r24
    2804:	2a c0       	rjmp	.+84     	; 0x285a <vfprintf+0xec>
    2806:	e9 2d       	mov	r30, r9
    2808:	e8 60       	ori	r30, 0x08	; 8
    280a:	15 c0       	rjmp	.+42     	; 0x2836 <vfprintf+0xc8>
    280c:	97 fc       	sbrc	r9, 7
    280e:	2d c0       	rjmp	.+90     	; 0x286a <vfprintf+0xfc>
    2810:	20 ed       	ldi	r18, 0xD0	; 208
    2812:	28 0f       	add	r18, r24
    2814:	2a 30       	cpi	r18, 0x0A	; 10
    2816:	88 f4       	brcc	.+34     	; 0x283a <vfprintf+0xcc>
    2818:	96 fe       	sbrs	r9, 6
    281a:	06 c0       	rjmp	.+12     	; 0x2828 <vfprintf+0xba>
    281c:	3a e0       	ldi	r19, 0x0A	; 10
    281e:	13 9f       	mul	r17, r19
    2820:	20 0d       	add	r18, r0
    2822:	11 24       	eor	r1, r1
    2824:	12 2f       	mov	r17, r18
    2826:	19 c0       	rjmp	.+50     	; 0x285a <vfprintf+0xec>
    2828:	8a e0       	ldi	r24, 0x0A	; 10
    282a:	58 9e       	mul	r5, r24
    282c:	20 0d       	add	r18, r0
    282e:	11 24       	eor	r1, r1
    2830:	52 2e       	mov	r5, r18
    2832:	e9 2d       	mov	r30, r9
    2834:	e0 62       	ori	r30, 0x20	; 32
    2836:	9e 2e       	mov	r9, r30
    2838:	10 c0       	rjmp	.+32     	; 0x285a <vfprintf+0xec>
    283a:	8e 32       	cpi	r24, 0x2E	; 46
    283c:	31 f4       	brne	.+12     	; 0x284a <vfprintf+0xdc>
    283e:	96 fc       	sbrc	r9, 6
    2840:	e5 c2       	rjmp	.+1482   	; 0x2e0c <vfprintf+0x69e>
    2842:	f9 2d       	mov	r31, r9
    2844:	f0 64       	ori	r31, 0x40	; 64
    2846:	9f 2e       	mov	r9, r31
    2848:	08 c0       	rjmp	.+16     	; 0x285a <vfprintf+0xec>
    284a:	8c 36       	cpi	r24, 0x6C	; 108
    284c:	21 f4       	brne	.+8      	; 0x2856 <vfprintf+0xe8>
    284e:	29 2d       	mov	r18, r9
    2850:	20 68       	ori	r18, 0x80	; 128
    2852:	92 2e       	mov	r9, r18
    2854:	02 c0       	rjmp	.+4      	; 0x285a <vfprintf+0xec>
    2856:	88 36       	cpi	r24, 0x68	; 104
    2858:	41 f4       	brne	.+16     	; 0x286a <vfprintf+0xfc>
    285a:	f1 01       	movw	r30, r2
    285c:	93 fd       	sbrc	r25, 3
    285e:	85 91       	lpm	r24, Z+
    2860:	93 ff       	sbrs	r25, 3
    2862:	81 91       	ld	r24, Z+
    2864:	1f 01       	movw	r2, r30
    2866:	81 11       	cpse	r24, r1
    2868:	b3 cf       	rjmp	.-154    	; 0x27d0 <vfprintf+0x62>
    286a:	9b eb       	ldi	r25, 0xBB	; 187
    286c:	98 0f       	add	r25, r24
    286e:	93 30       	cpi	r25, 0x03	; 3
    2870:	20 f4       	brcc	.+8      	; 0x287a <vfprintf+0x10c>
    2872:	99 2d       	mov	r25, r9
    2874:	90 61       	ori	r25, 0x10	; 16
    2876:	80 5e       	subi	r24, 0xE0	; 224
    2878:	07 c0       	rjmp	.+14     	; 0x2888 <vfprintf+0x11a>
    287a:	9b e9       	ldi	r25, 0x9B	; 155
    287c:	98 0f       	add	r25, r24
    287e:	93 30       	cpi	r25, 0x03	; 3
    2880:	08 f0       	brcs	.+2      	; 0x2884 <vfprintf+0x116>
    2882:	66 c1       	rjmp	.+716    	; 0x2b50 <vfprintf+0x3e2>
    2884:	99 2d       	mov	r25, r9
    2886:	9f 7e       	andi	r25, 0xEF	; 239
    2888:	96 ff       	sbrs	r25, 6
    288a:	16 e0       	ldi	r17, 0x06	; 6
    288c:	9f 73       	andi	r25, 0x3F	; 63
    288e:	99 2e       	mov	r9, r25
    2890:	85 36       	cpi	r24, 0x65	; 101
    2892:	19 f4       	brne	.+6      	; 0x289a <vfprintf+0x12c>
    2894:	90 64       	ori	r25, 0x40	; 64
    2896:	99 2e       	mov	r9, r25
    2898:	08 c0       	rjmp	.+16     	; 0x28aa <vfprintf+0x13c>
    289a:	86 36       	cpi	r24, 0x66	; 102
    289c:	21 f4       	brne	.+8      	; 0x28a6 <vfprintf+0x138>
    289e:	39 2f       	mov	r19, r25
    28a0:	30 68       	ori	r19, 0x80	; 128
    28a2:	93 2e       	mov	r9, r19
    28a4:	02 c0       	rjmp	.+4      	; 0x28aa <vfprintf+0x13c>
    28a6:	11 11       	cpse	r17, r1
    28a8:	11 50       	subi	r17, 0x01	; 1
    28aa:	97 fe       	sbrs	r9, 7
    28ac:	07 c0       	rjmp	.+14     	; 0x28bc <vfprintf+0x14e>
    28ae:	1c 33       	cpi	r17, 0x3C	; 60
    28b0:	50 f4       	brcc	.+20     	; 0x28c6 <vfprintf+0x158>
    28b2:	44 24       	eor	r4, r4
    28b4:	43 94       	inc	r4
    28b6:	41 0e       	add	r4, r17
    28b8:	27 e0       	ldi	r18, 0x07	; 7
    28ba:	0b c0       	rjmp	.+22     	; 0x28d2 <vfprintf+0x164>
    28bc:	18 30       	cpi	r17, 0x08	; 8
    28be:	38 f0       	brcs	.+14     	; 0x28ce <vfprintf+0x160>
    28c0:	27 e0       	ldi	r18, 0x07	; 7
    28c2:	17 e0       	ldi	r17, 0x07	; 7
    28c4:	05 c0       	rjmp	.+10     	; 0x28d0 <vfprintf+0x162>
    28c6:	27 e0       	ldi	r18, 0x07	; 7
    28c8:	9c e3       	ldi	r25, 0x3C	; 60
    28ca:	49 2e       	mov	r4, r25
    28cc:	02 c0       	rjmp	.+4      	; 0x28d2 <vfprintf+0x164>
    28ce:	21 2f       	mov	r18, r17
    28d0:	41 2c       	mov	r4, r1
    28d2:	56 01       	movw	r10, r12
    28d4:	84 e0       	ldi	r24, 0x04	; 4
    28d6:	a8 0e       	add	r10, r24
    28d8:	b1 1c       	adc	r11, r1
    28da:	f6 01       	movw	r30, r12
    28dc:	60 81       	ld	r22, Z
    28de:	71 81       	ldd	r23, Z+1	; 0x01
    28e0:	82 81       	ldd	r24, Z+2	; 0x02
    28e2:	93 81       	ldd	r25, Z+3	; 0x03
    28e4:	04 2d       	mov	r16, r4
    28e6:	a3 01       	movw	r20, r6
    28e8:	0e 94 6b 17 	call	0x2ed6	; 0x2ed6 <__ftoa_engine>
    28ec:	6c 01       	movw	r12, r24
    28ee:	f9 81       	ldd	r31, Y+1	; 0x01
    28f0:	fc 87       	std	Y+12, r31	; 0x0c
    28f2:	f0 ff       	sbrs	r31, 0
    28f4:	02 c0       	rjmp	.+4      	; 0x28fa <vfprintf+0x18c>
    28f6:	f3 ff       	sbrs	r31, 3
    28f8:	06 c0       	rjmp	.+12     	; 0x2906 <vfprintf+0x198>
    28fa:	91 fc       	sbrc	r9, 1
    28fc:	06 c0       	rjmp	.+12     	; 0x290a <vfprintf+0x19c>
    28fe:	92 fe       	sbrs	r9, 2
    2900:	06 c0       	rjmp	.+12     	; 0x290e <vfprintf+0x1a0>
    2902:	00 e2       	ldi	r16, 0x20	; 32
    2904:	05 c0       	rjmp	.+10     	; 0x2910 <vfprintf+0x1a2>
    2906:	0d e2       	ldi	r16, 0x2D	; 45
    2908:	03 c0       	rjmp	.+6      	; 0x2910 <vfprintf+0x1a2>
    290a:	0b e2       	ldi	r16, 0x2B	; 43
    290c:	01 c0       	rjmp	.+2      	; 0x2910 <vfprintf+0x1a2>
    290e:	00 e0       	ldi	r16, 0x00	; 0
    2910:	8c 85       	ldd	r24, Y+12	; 0x0c
    2912:	8c 70       	andi	r24, 0x0C	; 12
    2914:	19 f0       	breq	.+6      	; 0x291c <vfprintf+0x1ae>
    2916:	01 11       	cpse	r16, r1
    2918:	5a c2       	rjmp	.+1204   	; 0x2dce <vfprintf+0x660>
    291a:	9b c2       	rjmp	.+1334   	; 0x2e52 <vfprintf+0x6e4>
    291c:	97 fe       	sbrs	r9, 7
    291e:	10 c0       	rjmp	.+32     	; 0x2940 <vfprintf+0x1d2>
    2920:	4c 0c       	add	r4, r12
    2922:	fc 85       	ldd	r31, Y+12	; 0x0c
    2924:	f4 ff       	sbrs	r31, 4
    2926:	04 c0       	rjmp	.+8      	; 0x2930 <vfprintf+0x1c2>
    2928:	8a 81       	ldd	r24, Y+2	; 0x02
    292a:	81 33       	cpi	r24, 0x31	; 49
    292c:	09 f4       	brne	.+2      	; 0x2930 <vfprintf+0x1c2>
    292e:	4a 94       	dec	r4
    2930:	14 14       	cp	r1, r4
    2932:	74 f5       	brge	.+92     	; 0x2990 <vfprintf+0x222>
    2934:	28 e0       	ldi	r18, 0x08	; 8
    2936:	24 15       	cp	r18, r4
    2938:	78 f5       	brcc	.+94     	; 0x2998 <vfprintf+0x22a>
    293a:	88 e0       	ldi	r24, 0x08	; 8
    293c:	48 2e       	mov	r4, r24
    293e:	2c c0       	rjmp	.+88     	; 0x2998 <vfprintf+0x22a>
    2940:	96 fc       	sbrc	r9, 6
    2942:	2a c0       	rjmp	.+84     	; 0x2998 <vfprintf+0x22a>
    2944:	81 2f       	mov	r24, r17
    2946:	90 e0       	ldi	r25, 0x00	; 0
    2948:	8c 15       	cp	r24, r12
    294a:	9d 05       	cpc	r25, r13
    294c:	9c f0       	brlt	.+38     	; 0x2974 <vfprintf+0x206>
    294e:	3c ef       	ldi	r19, 0xFC	; 252
    2950:	c3 16       	cp	r12, r19
    2952:	3f ef       	ldi	r19, 0xFF	; 255
    2954:	d3 06       	cpc	r13, r19
    2956:	74 f0       	brlt	.+28     	; 0x2974 <vfprintf+0x206>
    2958:	89 2d       	mov	r24, r9
    295a:	80 68       	ori	r24, 0x80	; 128
    295c:	98 2e       	mov	r9, r24
    295e:	0a c0       	rjmp	.+20     	; 0x2974 <vfprintf+0x206>
    2960:	e2 e0       	ldi	r30, 0x02	; 2
    2962:	f0 e0       	ldi	r31, 0x00	; 0
    2964:	ec 0f       	add	r30, r28
    2966:	fd 1f       	adc	r31, r29
    2968:	e1 0f       	add	r30, r17
    296a:	f1 1d       	adc	r31, r1
    296c:	80 81       	ld	r24, Z
    296e:	80 33       	cpi	r24, 0x30	; 48
    2970:	19 f4       	brne	.+6      	; 0x2978 <vfprintf+0x20a>
    2972:	11 50       	subi	r17, 0x01	; 1
    2974:	11 11       	cpse	r17, r1
    2976:	f4 cf       	rjmp	.-24     	; 0x2960 <vfprintf+0x1f2>
    2978:	97 fe       	sbrs	r9, 7
    297a:	0e c0       	rjmp	.+28     	; 0x2998 <vfprintf+0x22a>
    297c:	44 24       	eor	r4, r4
    297e:	43 94       	inc	r4
    2980:	41 0e       	add	r4, r17
    2982:	81 2f       	mov	r24, r17
    2984:	90 e0       	ldi	r25, 0x00	; 0
    2986:	c8 16       	cp	r12, r24
    2988:	d9 06       	cpc	r13, r25
    298a:	2c f4       	brge	.+10     	; 0x2996 <vfprintf+0x228>
    298c:	1c 19       	sub	r17, r12
    298e:	04 c0       	rjmp	.+8      	; 0x2998 <vfprintf+0x22a>
    2990:	44 24       	eor	r4, r4
    2992:	43 94       	inc	r4
    2994:	01 c0       	rjmp	.+2      	; 0x2998 <vfprintf+0x22a>
    2996:	10 e0       	ldi	r17, 0x00	; 0
    2998:	97 fe       	sbrs	r9, 7
    299a:	06 c0       	rjmp	.+12     	; 0x29a8 <vfprintf+0x23a>
    299c:	1c 14       	cp	r1, r12
    299e:	1d 04       	cpc	r1, r13
    29a0:	34 f4       	brge	.+12     	; 0x29ae <vfprintf+0x240>
    29a2:	c6 01       	movw	r24, r12
    29a4:	01 96       	adiw	r24, 0x01	; 1
    29a6:	05 c0       	rjmp	.+10     	; 0x29b2 <vfprintf+0x244>
    29a8:	85 e0       	ldi	r24, 0x05	; 5
    29aa:	90 e0       	ldi	r25, 0x00	; 0
    29ac:	02 c0       	rjmp	.+4      	; 0x29b2 <vfprintf+0x244>
    29ae:	81 e0       	ldi	r24, 0x01	; 1
    29b0:	90 e0       	ldi	r25, 0x00	; 0
    29b2:	01 11       	cpse	r16, r1
    29b4:	01 96       	adiw	r24, 0x01	; 1
    29b6:	11 23       	and	r17, r17
    29b8:	31 f0       	breq	.+12     	; 0x29c6 <vfprintf+0x258>
    29ba:	21 2f       	mov	r18, r17
    29bc:	30 e0       	ldi	r19, 0x00	; 0
    29be:	2f 5f       	subi	r18, 0xFF	; 255
    29c0:	3f 4f       	sbci	r19, 0xFF	; 255
    29c2:	82 0f       	add	r24, r18
    29c4:	93 1f       	adc	r25, r19
    29c6:	25 2d       	mov	r18, r5
    29c8:	30 e0       	ldi	r19, 0x00	; 0
    29ca:	82 17       	cp	r24, r18
    29cc:	93 07       	cpc	r25, r19
    29ce:	14 f4       	brge	.+4      	; 0x29d4 <vfprintf+0x266>
    29d0:	58 1a       	sub	r5, r24
    29d2:	01 c0       	rjmp	.+2      	; 0x29d6 <vfprintf+0x268>
    29d4:	51 2c       	mov	r5, r1
    29d6:	89 2d       	mov	r24, r9
    29d8:	89 70       	andi	r24, 0x09	; 9
    29da:	49 f4       	brne	.+18     	; 0x29ee <vfprintf+0x280>
    29dc:	55 20       	and	r5, r5
    29de:	39 f0       	breq	.+14     	; 0x29ee <vfprintf+0x280>
    29e0:	b7 01       	movw	r22, r14
    29e2:	80 e2       	ldi	r24, 0x20	; 32
    29e4:	90 e0       	ldi	r25, 0x00	; 0
    29e6:	0e 94 6f 18 	call	0x30de	; 0x30de <fputc>
    29ea:	5a 94       	dec	r5
    29ec:	f7 cf       	rjmp	.-18     	; 0x29dc <vfprintf+0x26e>
    29ee:	00 23       	and	r16, r16
    29f0:	29 f0       	breq	.+10     	; 0x29fc <vfprintf+0x28e>
    29f2:	b7 01       	movw	r22, r14
    29f4:	80 2f       	mov	r24, r16
    29f6:	90 e0       	ldi	r25, 0x00	; 0
    29f8:	0e 94 6f 18 	call	0x30de	; 0x30de <fputc>
    29fc:	93 fc       	sbrc	r9, 3
    29fe:	09 c0       	rjmp	.+18     	; 0x2a12 <vfprintf+0x2a4>
    2a00:	55 20       	and	r5, r5
    2a02:	39 f0       	breq	.+14     	; 0x2a12 <vfprintf+0x2a4>
    2a04:	b7 01       	movw	r22, r14
    2a06:	80 e3       	ldi	r24, 0x30	; 48
    2a08:	90 e0       	ldi	r25, 0x00	; 0
    2a0a:	0e 94 6f 18 	call	0x30de	; 0x30de <fputc>
    2a0e:	5a 94       	dec	r5
    2a10:	f7 cf       	rjmp	.-18     	; 0x2a00 <vfprintf+0x292>
    2a12:	97 fe       	sbrs	r9, 7
    2a14:	4c c0       	rjmp	.+152    	; 0x2aae <vfprintf+0x340>
    2a16:	46 01       	movw	r8, r12
    2a18:	d7 fe       	sbrs	r13, 7
    2a1a:	02 c0       	rjmp	.+4      	; 0x2a20 <vfprintf+0x2b2>
    2a1c:	81 2c       	mov	r8, r1
    2a1e:	91 2c       	mov	r9, r1
    2a20:	c6 01       	movw	r24, r12
    2a22:	88 19       	sub	r24, r8
    2a24:	99 09       	sbc	r25, r9
    2a26:	f3 01       	movw	r30, r6
    2a28:	e8 0f       	add	r30, r24
    2a2a:	f9 1f       	adc	r31, r25
    2a2c:	fe 87       	std	Y+14, r31	; 0x0e
    2a2e:	ed 87       	std	Y+13, r30	; 0x0d
    2a30:	96 01       	movw	r18, r12
    2a32:	24 19       	sub	r18, r4
    2a34:	31 09       	sbc	r19, r1
    2a36:	38 8b       	std	Y+16, r19	; 0x10
    2a38:	2f 87       	std	Y+15, r18	; 0x0f
    2a3a:	01 2f       	mov	r16, r17
    2a3c:	10 e0       	ldi	r17, 0x00	; 0
    2a3e:	11 95       	neg	r17
    2a40:	01 95       	neg	r16
    2a42:	11 09       	sbc	r17, r1
    2a44:	3f ef       	ldi	r19, 0xFF	; 255
    2a46:	83 16       	cp	r8, r19
    2a48:	93 06       	cpc	r9, r19
    2a4a:	29 f4       	brne	.+10     	; 0x2a56 <vfprintf+0x2e8>
    2a4c:	b7 01       	movw	r22, r14
    2a4e:	8e e2       	ldi	r24, 0x2E	; 46
    2a50:	90 e0       	ldi	r25, 0x00	; 0
    2a52:	0e 94 6f 18 	call	0x30de	; 0x30de <fputc>
    2a56:	c8 14       	cp	r12, r8
    2a58:	d9 04       	cpc	r13, r9
    2a5a:	4c f0       	brlt	.+18     	; 0x2a6e <vfprintf+0x300>
    2a5c:	8f 85       	ldd	r24, Y+15	; 0x0f
    2a5e:	98 89       	ldd	r25, Y+16	; 0x10
    2a60:	88 15       	cp	r24, r8
    2a62:	99 05       	cpc	r25, r9
    2a64:	24 f4       	brge	.+8      	; 0x2a6e <vfprintf+0x300>
    2a66:	ed 85       	ldd	r30, Y+13	; 0x0d
    2a68:	fe 85       	ldd	r31, Y+14	; 0x0e
    2a6a:	81 81       	ldd	r24, Z+1	; 0x01
    2a6c:	01 c0       	rjmp	.+2      	; 0x2a70 <vfprintf+0x302>
    2a6e:	80 e3       	ldi	r24, 0x30	; 48
    2a70:	f1 e0       	ldi	r31, 0x01	; 1
    2a72:	8f 1a       	sub	r8, r31
    2a74:	91 08       	sbc	r9, r1
    2a76:	2d 85       	ldd	r18, Y+13	; 0x0d
    2a78:	3e 85       	ldd	r19, Y+14	; 0x0e
    2a7a:	2f 5f       	subi	r18, 0xFF	; 255
    2a7c:	3f 4f       	sbci	r19, 0xFF	; 255
    2a7e:	3e 87       	std	Y+14, r19	; 0x0e
    2a80:	2d 87       	std	Y+13, r18	; 0x0d
    2a82:	80 16       	cp	r8, r16
    2a84:	91 06       	cpc	r9, r17
    2a86:	2c f0       	brlt	.+10     	; 0x2a92 <vfprintf+0x324>
    2a88:	b7 01       	movw	r22, r14
    2a8a:	90 e0       	ldi	r25, 0x00	; 0
    2a8c:	0e 94 6f 18 	call	0x30de	; 0x30de <fputc>
    2a90:	d9 cf       	rjmp	.-78     	; 0x2a44 <vfprintf+0x2d6>
    2a92:	c8 14       	cp	r12, r8
    2a94:	d9 04       	cpc	r13, r9
    2a96:	41 f4       	brne	.+16     	; 0x2aa8 <vfprintf+0x33a>
    2a98:	9a 81       	ldd	r25, Y+2	; 0x02
    2a9a:	96 33       	cpi	r25, 0x36	; 54
    2a9c:	20 f4       	brcc	.+8      	; 0x2aa6 <vfprintf+0x338>
    2a9e:	95 33       	cpi	r25, 0x35	; 53
    2aa0:	19 f4       	brne	.+6      	; 0x2aa8 <vfprintf+0x33a>
    2aa2:	3c 85       	ldd	r19, Y+12	; 0x0c
    2aa4:	34 ff       	sbrs	r19, 4
    2aa6:	81 e3       	ldi	r24, 0x31	; 49
    2aa8:	b7 01       	movw	r22, r14
    2aaa:	90 e0       	ldi	r25, 0x00	; 0
    2aac:	4e c0       	rjmp	.+156    	; 0x2b4a <vfprintf+0x3dc>
    2aae:	8a 81       	ldd	r24, Y+2	; 0x02
    2ab0:	81 33       	cpi	r24, 0x31	; 49
    2ab2:	19 f0       	breq	.+6      	; 0x2aba <vfprintf+0x34c>
    2ab4:	9c 85       	ldd	r25, Y+12	; 0x0c
    2ab6:	9f 7e       	andi	r25, 0xEF	; 239
    2ab8:	9c 87       	std	Y+12, r25	; 0x0c
    2aba:	b7 01       	movw	r22, r14
    2abc:	90 e0       	ldi	r25, 0x00	; 0
    2abe:	0e 94 6f 18 	call	0x30de	; 0x30de <fputc>
    2ac2:	11 11       	cpse	r17, r1
    2ac4:	05 c0       	rjmp	.+10     	; 0x2ad0 <vfprintf+0x362>
    2ac6:	94 fc       	sbrc	r9, 4
    2ac8:	18 c0       	rjmp	.+48     	; 0x2afa <vfprintf+0x38c>
    2aca:	85 e6       	ldi	r24, 0x65	; 101
    2acc:	90 e0       	ldi	r25, 0x00	; 0
    2ace:	17 c0       	rjmp	.+46     	; 0x2afe <vfprintf+0x390>
    2ad0:	b7 01       	movw	r22, r14
    2ad2:	8e e2       	ldi	r24, 0x2E	; 46
    2ad4:	90 e0       	ldi	r25, 0x00	; 0
    2ad6:	0e 94 6f 18 	call	0x30de	; 0x30de <fputc>
    2ada:	1e 5f       	subi	r17, 0xFE	; 254
    2adc:	82 e0       	ldi	r24, 0x02	; 2
    2ade:	01 e0       	ldi	r16, 0x01	; 1
    2ae0:	08 0f       	add	r16, r24
    2ae2:	f3 01       	movw	r30, r6
    2ae4:	e8 0f       	add	r30, r24
    2ae6:	f1 1d       	adc	r31, r1
    2ae8:	80 81       	ld	r24, Z
    2aea:	b7 01       	movw	r22, r14
    2aec:	90 e0       	ldi	r25, 0x00	; 0
    2aee:	0e 94 6f 18 	call	0x30de	; 0x30de <fputc>
    2af2:	80 2f       	mov	r24, r16
    2af4:	01 13       	cpse	r16, r17
    2af6:	f3 cf       	rjmp	.-26     	; 0x2ade <vfprintf+0x370>
    2af8:	e6 cf       	rjmp	.-52     	; 0x2ac6 <vfprintf+0x358>
    2afa:	85 e4       	ldi	r24, 0x45	; 69
    2afc:	90 e0       	ldi	r25, 0x00	; 0
    2afe:	b7 01       	movw	r22, r14
    2b00:	0e 94 6f 18 	call	0x30de	; 0x30de <fputc>
    2b04:	d7 fc       	sbrc	r13, 7
    2b06:	06 c0       	rjmp	.+12     	; 0x2b14 <vfprintf+0x3a6>
    2b08:	c1 14       	cp	r12, r1
    2b0a:	d1 04       	cpc	r13, r1
    2b0c:	41 f4       	brne	.+16     	; 0x2b1e <vfprintf+0x3b0>
    2b0e:	ec 85       	ldd	r30, Y+12	; 0x0c
    2b10:	e4 ff       	sbrs	r30, 4
    2b12:	05 c0       	rjmp	.+10     	; 0x2b1e <vfprintf+0x3b0>
    2b14:	d1 94       	neg	r13
    2b16:	c1 94       	neg	r12
    2b18:	d1 08       	sbc	r13, r1
    2b1a:	8d e2       	ldi	r24, 0x2D	; 45
    2b1c:	01 c0       	rjmp	.+2      	; 0x2b20 <vfprintf+0x3b2>
    2b1e:	8b e2       	ldi	r24, 0x2B	; 43
    2b20:	b7 01       	movw	r22, r14
    2b22:	90 e0       	ldi	r25, 0x00	; 0
    2b24:	0e 94 6f 18 	call	0x30de	; 0x30de <fputc>
    2b28:	80 e3       	ldi	r24, 0x30	; 48
    2b2a:	2a e0       	ldi	r18, 0x0A	; 10
    2b2c:	c2 16       	cp	r12, r18
    2b2e:	d1 04       	cpc	r13, r1
    2b30:	2c f0       	brlt	.+10     	; 0x2b3c <vfprintf+0x3ce>
    2b32:	8f 5f       	subi	r24, 0xFF	; 255
    2b34:	fa e0       	ldi	r31, 0x0A	; 10
    2b36:	cf 1a       	sub	r12, r31
    2b38:	d1 08       	sbc	r13, r1
    2b3a:	f7 cf       	rjmp	.-18     	; 0x2b2a <vfprintf+0x3bc>
    2b3c:	b7 01       	movw	r22, r14
    2b3e:	90 e0       	ldi	r25, 0x00	; 0
    2b40:	0e 94 6f 18 	call	0x30de	; 0x30de <fputc>
    2b44:	b7 01       	movw	r22, r14
    2b46:	c6 01       	movw	r24, r12
    2b48:	c0 96       	adiw	r24, 0x30	; 48
    2b4a:	0e 94 6f 18 	call	0x30de	; 0x30de <fputc>
    2b4e:	54 c1       	rjmp	.+680    	; 0x2df8 <vfprintf+0x68a>
    2b50:	83 36       	cpi	r24, 0x63	; 99
    2b52:	31 f0       	breq	.+12     	; 0x2b60 <vfprintf+0x3f2>
    2b54:	83 37       	cpi	r24, 0x73	; 115
    2b56:	79 f0       	breq	.+30     	; 0x2b76 <vfprintf+0x408>
    2b58:	83 35       	cpi	r24, 0x53	; 83
    2b5a:	09 f0       	breq	.+2      	; 0x2b5e <vfprintf+0x3f0>
    2b5c:	56 c0       	rjmp	.+172    	; 0x2c0a <vfprintf+0x49c>
    2b5e:	20 c0       	rjmp	.+64     	; 0x2ba0 <vfprintf+0x432>
    2b60:	56 01       	movw	r10, r12
    2b62:	32 e0       	ldi	r19, 0x02	; 2
    2b64:	a3 0e       	add	r10, r19
    2b66:	b1 1c       	adc	r11, r1
    2b68:	f6 01       	movw	r30, r12
    2b6a:	80 81       	ld	r24, Z
    2b6c:	89 83       	std	Y+1, r24	; 0x01
    2b6e:	01 e0       	ldi	r16, 0x01	; 1
    2b70:	10 e0       	ldi	r17, 0x00	; 0
    2b72:	63 01       	movw	r12, r6
    2b74:	12 c0       	rjmp	.+36     	; 0x2b9a <vfprintf+0x42c>
    2b76:	56 01       	movw	r10, r12
    2b78:	f2 e0       	ldi	r31, 0x02	; 2
    2b7a:	af 0e       	add	r10, r31
    2b7c:	b1 1c       	adc	r11, r1
    2b7e:	f6 01       	movw	r30, r12
    2b80:	c0 80       	ld	r12, Z
    2b82:	d1 80       	ldd	r13, Z+1	; 0x01
    2b84:	96 fe       	sbrs	r9, 6
    2b86:	03 c0       	rjmp	.+6      	; 0x2b8e <vfprintf+0x420>
    2b88:	61 2f       	mov	r22, r17
    2b8a:	70 e0       	ldi	r23, 0x00	; 0
    2b8c:	02 c0       	rjmp	.+4      	; 0x2b92 <vfprintf+0x424>
    2b8e:	6f ef       	ldi	r22, 0xFF	; 255
    2b90:	7f ef       	ldi	r23, 0xFF	; 255
    2b92:	c6 01       	movw	r24, r12
    2b94:	0e 94 64 18 	call	0x30c8	; 0x30c8 <strnlen>
    2b98:	8c 01       	movw	r16, r24
    2b9a:	f9 2d       	mov	r31, r9
    2b9c:	ff 77       	andi	r31, 0x7F	; 127
    2b9e:	14 c0       	rjmp	.+40     	; 0x2bc8 <vfprintf+0x45a>
    2ba0:	56 01       	movw	r10, r12
    2ba2:	22 e0       	ldi	r18, 0x02	; 2
    2ba4:	a2 0e       	add	r10, r18
    2ba6:	b1 1c       	adc	r11, r1
    2ba8:	f6 01       	movw	r30, r12
    2baa:	c0 80       	ld	r12, Z
    2bac:	d1 80       	ldd	r13, Z+1	; 0x01
    2bae:	96 fe       	sbrs	r9, 6
    2bb0:	03 c0       	rjmp	.+6      	; 0x2bb8 <vfprintf+0x44a>
    2bb2:	61 2f       	mov	r22, r17
    2bb4:	70 e0       	ldi	r23, 0x00	; 0
    2bb6:	02 c0       	rjmp	.+4      	; 0x2bbc <vfprintf+0x44e>
    2bb8:	6f ef       	ldi	r22, 0xFF	; 255
    2bba:	7f ef       	ldi	r23, 0xFF	; 255
    2bbc:	c6 01       	movw	r24, r12
    2bbe:	0e 94 59 18 	call	0x30b2	; 0x30b2 <strnlen_P>
    2bc2:	8c 01       	movw	r16, r24
    2bc4:	f9 2d       	mov	r31, r9
    2bc6:	f0 68       	ori	r31, 0x80	; 128
    2bc8:	9f 2e       	mov	r9, r31
    2bca:	f3 fd       	sbrc	r31, 3
    2bcc:	1a c0       	rjmp	.+52     	; 0x2c02 <vfprintf+0x494>
    2bce:	85 2d       	mov	r24, r5
    2bd0:	90 e0       	ldi	r25, 0x00	; 0
    2bd2:	08 17       	cp	r16, r24
    2bd4:	19 07       	cpc	r17, r25
    2bd6:	a8 f4       	brcc	.+42     	; 0x2c02 <vfprintf+0x494>
    2bd8:	b7 01       	movw	r22, r14
    2bda:	80 e2       	ldi	r24, 0x20	; 32
    2bdc:	90 e0       	ldi	r25, 0x00	; 0
    2bde:	0e 94 6f 18 	call	0x30de	; 0x30de <fputc>
    2be2:	5a 94       	dec	r5
    2be4:	f4 cf       	rjmp	.-24     	; 0x2bce <vfprintf+0x460>
    2be6:	f6 01       	movw	r30, r12
    2be8:	97 fc       	sbrc	r9, 7
    2bea:	85 91       	lpm	r24, Z+
    2bec:	97 fe       	sbrs	r9, 7
    2bee:	81 91       	ld	r24, Z+
    2bf0:	6f 01       	movw	r12, r30
    2bf2:	b7 01       	movw	r22, r14
    2bf4:	90 e0       	ldi	r25, 0x00	; 0
    2bf6:	0e 94 6f 18 	call	0x30de	; 0x30de <fputc>
    2bfa:	51 10       	cpse	r5, r1
    2bfc:	5a 94       	dec	r5
    2bfe:	01 50       	subi	r16, 0x01	; 1
    2c00:	11 09       	sbc	r17, r1
    2c02:	01 15       	cp	r16, r1
    2c04:	11 05       	cpc	r17, r1
    2c06:	79 f7       	brne	.-34     	; 0x2be6 <vfprintf+0x478>
    2c08:	f7 c0       	rjmp	.+494    	; 0x2df8 <vfprintf+0x68a>
    2c0a:	84 36       	cpi	r24, 0x64	; 100
    2c0c:	11 f0       	breq	.+4      	; 0x2c12 <vfprintf+0x4a4>
    2c0e:	89 36       	cpi	r24, 0x69	; 105
    2c10:	61 f5       	brne	.+88     	; 0x2c6a <vfprintf+0x4fc>
    2c12:	56 01       	movw	r10, r12
    2c14:	97 fe       	sbrs	r9, 7
    2c16:	09 c0       	rjmp	.+18     	; 0x2c2a <vfprintf+0x4bc>
    2c18:	24 e0       	ldi	r18, 0x04	; 4
    2c1a:	a2 0e       	add	r10, r18
    2c1c:	b1 1c       	adc	r11, r1
    2c1e:	f6 01       	movw	r30, r12
    2c20:	60 81       	ld	r22, Z
    2c22:	71 81       	ldd	r23, Z+1	; 0x01
    2c24:	82 81       	ldd	r24, Z+2	; 0x02
    2c26:	93 81       	ldd	r25, Z+3	; 0x03
    2c28:	0a c0       	rjmp	.+20     	; 0x2c3e <vfprintf+0x4d0>
    2c2a:	f2 e0       	ldi	r31, 0x02	; 2
    2c2c:	af 0e       	add	r10, r31
    2c2e:	b1 1c       	adc	r11, r1
    2c30:	f6 01       	movw	r30, r12
    2c32:	60 81       	ld	r22, Z
    2c34:	71 81       	ldd	r23, Z+1	; 0x01
    2c36:	07 2e       	mov	r0, r23
    2c38:	00 0c       	add	r0, r0
    2c3a:	88 0b       	sbc	r24, r24
    2c3c:	99 0b       	sbc	r25, r25
    2c3e:	f9 2d       	mov	r31, r9
    2c40:	ff 76       	andi	r31, 0x6F	; 111
    2c42:	9f 2e       	mov	r9, r31
    2c44:	97 ff       	sbrs	r25, 7
    2c46:	09 c0       	rjmp	.+18     	; 0x2c5a <vfprintf+0x4ec>
    2c48:	90 95       	com	r25
    2c4a:	80 95       	com	r24
    2c4c:	70 95       	com	r23
    2c4e:	61 95       	neg	r22
    2c50:	7f 4f       	sbci	r23, 0xFF	; 255
    2c52:	8f 4f       	sbci	r24, 0xFF	; 255
    2c54:	9f 4f       	sbci	r25, 0xFF	; 255
    2c56:	f0 68       	ori	r31, 0x80	; 128
    2c58:	9f 2e       	mov	r9, r31
    2c5a:	2a e0       	ldi	r18, 0x0A	; 10
    2c5c:	30 e0       	ldi	r19, 0x00	; 0
    2c5e:	a3 01       	movw	r20, r6
    2c60:	0e 94 ab 18 	call	0x3156	; 0x3156 <__ultoa_invert>
    2c64:	c8 2e       	mov	r12, r24
    2c66:	c6 18       	sub	r12, r6
    2c68:	3f c0       	rjmp	.+126    	; 0x2ce8 <vfprintf+0x57a>
    2c6a:	09 2d       	mov	r16, r9
    2c6c:	85 37       	cpi	r24, 0x75	; 117
    2c6e:	21 f4       	brne	.+8      	; 0x2c78 <vfprintf+0x50a>
    2c70:	0f 7e       	andi	r16, 0xEF	; 239
    2c72:	2a e0       	ldi	r18, 0x0A	; 10
    2c74:	30 e0       	ldi	r19, 0x00	; 0
    2c76:	1d c0       	rjmp	.+58     	; 0x2cb2 <vfprintf+0x544>
    2c78:	09 7f       	andi	r16, 0xF9	; 249
    2c7a:	8f 36       	cpi	r24, 0x6F	; 111
    2c7c:	91 f0       	breq	.+36     	; 0x2ca2 <vfprintf+0x534>
    2c7e:	18 f4       	brcc	.+6      	; 0x2c86 <vfprintf+0x518>
    2c80:	88 35       	cpi	r24, 0x58	; 88
    2c82:	59 f0       	breq	.+22     	; 0x2c9a <vfprintf+0x52c>
    2c84:	c3 c0       	rjmp	.+390    	; 0x2e0c <vfprintf+0x69e>
    2c86:	80 37       	cpi	r24, 0x70	; 112
    2c88:	19 f0       	breq	.+6      	; 0x2c90 <vfprintf+0x522>
    2c8a:	88 37       	cpi	r24, 0x78	; 120
    2c8c:	11 f0       	breq	.+4      	; 0x2c92 <vfprintf+0x524>
    2c8e:	be c0       	rjmp	.+380    	; 0x2e0c <vfprintf+0x69e>
    2c90:	00 61       	ori	r16, 0x10	; 16
    2c92:	04 ff       	sbrs	r16, 4
    2c94:	09 c0       	rjmp	.+18     	; 0x2ca8 <vfprintf+0x53a>
    2c96:	04 60       	ori	r16, 0x04	; 4
    2c98:	07 c0       	rjmp	.+14     	; 0x2ca8 <vfprintf+0x53a>
    2c9a:	94 fe       	sbrs	r9, 4
    2c9c:	08 c0       	rjmp	.+16     	; 0x2cae <vfprintf+0x540>
    2c9e:	06 60       	ori	r16, 0x06	; 6
    2ca0:	06 c0       	rjmp	.+12     	; 0x2cae <vfprintf+0x540>
    2ca2:	28 e0       	ldi	r18, 0x08	; 8
    2ca4:	30 e0       	ldi	r19, 0x00	; 0
    2ca6:	05 c0       	rjmp	.+10     	; 0x2cb2 <vfprintf+0x544>
    2ca8:	20 e1       	ldi	r18, 0x10	; 16
    2caa:	30 e0       	ldi	r19, 0x00	; 0
    2cac:	02 c0       	rjmp	.+4      	; 0x2cb2 <vfprintf+0x544>
    2cae:	20 e1       	ldi	r18, 0x10	; 16
    2cb0:	32 e0       	ldi	r19, 0x02	; 2
    2cb2:	56 01       	movw	r10, r12
    2cb4:	07 ff       	sbrs	r16, 7
    2cb6:	09 c0       	rjmp	.+18     	; 0x2cca <vfprintf+0x55c>
    2cb8:	84 e0       	ldi	r24, 0x04	; 4
    2cba:	a8 0e       	add	r10, r24
    2cbc:	b1 1c       	adc	r11, r1
    2cbe:	f6 01       	movw	r30, r12
    2cc0:	60 81       	ld	r22, Z
    2cc2:	71 81       	ldd	r23, Z+1	; 0x01
    2cc4:	82 81       	ldd	r24, Z+2	; 0x02
    2cc6:	93 81       	ldd	r25, Z+3	; 0x03
    2cc8:	08 c0       	rjmp	.+16     	; 0x2cda <vfprintf+0x56c>
    2cca:	f2 e0       	ldi	r31, 0x02	; 2
    2ccc:	af 0e       	add	r10, r31
    2cce:	b1 1c       	adc	r11, r1
    2cd0:	f6 01       	movw	r30, r12
    2cd2:	60 81       	ld	r22, Z
    2cd4:	71 81       	ldd	r23, Z+1	; 0x01
    2cd6:	80 e0       	ldi	r24, 0x00	; 0
    2cd8:	90 e0       	ldi	r25, 0x00	; 0
    2cda:	a3 01       	movw	r20, r6
    2cdc:	0e 94 ab 18 	call	0x3156	; 0x3156 <__ultoa_invert>
    2ce0:	c8 2e       	mov	r12, r24
    2ce2:	c6 18       	sub	r12, r6
    2ce4:	0f 77       	andi	r16, 0x7F	; 127
    2ce6:	90 2e       	mov	r9, r16
    2ce8:	96 fe       	sbrs	r9, 6
    2cea:	0b c0       	rjmp	.+22     	; 0x2d02 <vfprintf+0x594>
    2cec:	09 2d       	mov	r16, r9
    2cee:	0e 7f       	andi	r16, 0xFE	; 254
    2cf0:	c1 16       	cp	r12, r17
    2cf2:	50 f4       	brcc	.+20     	; 0x2d08 <vfprintf+0x59a>
    2cf4:	94 fe       	sbrs	r9, 4
    2cf6:	0a c0       	rjmp	.+20     	; 0x2d0c <vfprintf+0x59e>
    2cf8:	92 fc       	sbrc	r9, 2
    2cfa:	08 c0       	rjmp	.+16     	; 0x2d0c <vfprintf+0x59e>
    2cfc:	09 2d       	mov	r16, r9
    2cfe:	0e 7e       	andi	r16, 0xEE	; 238
    2d00:	05 c0       	rjmp	.+10     	; 0x2d0c <vfprintf+0x59e>
    2d02:	dc 2c       	mov	r13, r12
    2d04:	09 2d       	mov	r16, r9
    2d06:	03 c0       	rjmp	.+6      	; 0x2d0e <vfprintf+0x5a0>
    2d08:	dc 2c       	mov	r13, r12
    2d0a:	01 c0       	rjmp	.+2      	; 0x2d0e <vfprintf+0x5a0>
    2d0c:	d1 2e       	mov	r13, r17
    2d0e:	04 ff       	sbrs	r16, 4
    2d10:	0d c0       	rjmp	.+26     	; 0x2d2c <vfprintf+0x5be>
    2d12:	fe 01       	movw	r30, r28
    2d14:	ec 0d       	add	r30, r12
    2d16:	f1 1d       	adc	r31, r1
    2d18:	80 81       	ld	r24, Z
    2d1a:	80 33       	cpi	r24, 0x30	; 48
    2d1c:	11 f4       	brne	.+4      	; 0x2d22 <vfprintf+0x5b4>
    2d1e:	09 7e       	andi	r16, 0xE9	; 233
    2d20:	09 c0       	rjmp	.+18     	; 0x2d34 <vfprintf+0x5c6>
    2d22:	02 ff       	sbrs	r16, 2
    2d24:	06 c0       	rjmp	.+12     	; 0x2d32 <vfprintf+0x5c4>
    2d26:	d3 94       	inc	r13
    2d28:	d3 94       	inc	r13
    2d2a:	04 c0       	rjmp	.+8      	; 0x2d34 <vfprintf+0x5c6>
    2d2c:	80 2f       	mov	r24, r16
    2d2e:	86 78       	andi	r24, 0x86	; 134
    2d30:	09 f0       	breq	.+2      	; 0x2d34 <vfprintf+0x5c6>
    2d32:	d3 94       	inc	r13
    2d34:	03 fd       	sbrc	r16, 3
    2d36:	11 c0       	rjmp	.+34     	; 0x2d5a <vfprintf+0x5ec>
    2d38:	00 ff       	sbrs	r16, 0
    2d3a:	06 c0       	rjmp	.+12     	; 0x2d48 <vfprintf+0x5da>
    2d3c:	1c 2d       	mov	r17, r12
    2d3e:	d5 14       	cp	r13, r5
    2d40:	80 f4       	brcc	.+32     	; 0x2d62 <vfprintf+0x5f4>
    2d42:	15 0d       	add	r17, r5
    2d44:	1d 19       	sub	r17, r13
    2d46:	0d c0       	rjmp	.+26     	; 0x2d62 <vfprintf+0x5f4>
    2d48:	d5 14       	cp	r13, r5
    2d4a:	58 f4       	brcc	.+22     	; 0x2d62 <vfprintf+0x5f4>
    2d4c:	b7 01       	movw	r22, r14
    2d4e:	80 e2       	ldi	r24, 0x20	; 32
    2d50:	90 e0       	ldi	r25, 0x00	; 0
    2d52:	0e 94 6f 18 	call	0x30de	; 0x30de <fputc>
    2d56:	d3 94       	inc	r13
    2d58:	f7 cf       	rjmp	.-18     	; 0x2d48 <vfprintf+0x5da>
    2d5a:	d5 14       	cp	r13, r5
    2d5c:	10 f4       	brcc	.+4      	; 0x2d62 <vfprintf+0x5f4>
    2d5e:	5d 18       	sub	r5, r13
    2d60:	01 c0       	rjmp	.+2      	; 0x2d64 <vfprintf+0x5f6>
    2d62:	51 2c       	mov	r5, r1
    2d64:	04 ff       	sbrs	r16, 4
    2d66:	10 c0       	rjmp	.+32     	; 0x2d88 <vfprintf+0x61a>
    2d68:	b7 01       	movw	r22, r14
    2d6a:	80 e3       	ldi	r24, 0x30	; 48
    2d6c:	90 e0       	ldi	r25, 0x00	; 0
    2d6e:	0e 94 6f 18 	call	0x30de	; 0x30de <fputc>
    2d72:	02 ff       	sbrs	r16, 2
    2d74:	17 c0       	rjmp	.+46     	; 0x2da4 <vfprintf+0x636>
    2d76:	01 fd       	sbrc	r16, 1
    2d78:	03 c0       	rjmp	.+6      	; 0x2d80 <vfprintf+0x612>
    2d7a:	88 e7       	ldi	r24, 0x78	; 120
    2d7c:	90 e0       	ldi	r25, 0x00	; 0
    2d7e:	02 c0       	rjmp	.+4      	; 0x2d84 <vfprintf+0x616>
    2d80:	88 e5       	ldi	r24, 0x58	; 88
    2d82:	90 e0       	ldi	r25, 0x00	; 0
    2d84:	b7 01       	movw	r22, r14
    2d86:	0c c0       	rjmp	.+24     	; 0x2da0 <vfprintf+0x632>
    2d88:	80 2f       	mov	r24, r16
    2d8a:	86 78       	andi	r24, 0x86	; 134
    2d8c:	59 f0       	breq	.+22     	; 0x2da4 <vfprintf+0x636>
    2d8e:	01 ff       	sbrs	r16, 1
    2d90:	02 c0       	rjmp	.+4      	; 0x2d96 <vfprintf+0x628>
    2d92:	8b e2       	ldi	r24, 0x2B	; 43
    2d94:	01 c0       	rjmp	.+2      	; 0x2d98 <vfprintf+0x62a>
    2d96:	80 e2       	ldi	r24, 0x20	; 32
    2d98:	07 fd       	sbrc	r16, 7
    2d9a:	8d e2       	ldi	r24, 0x2D	; 45
    2d9c:	b7 01       	movw	r22, r14
    2d9e:	90 e0       	ldi	r25, 0x00	; 0
    2da0:	0e 94 6f 18 	call	0x30de	; 0x30de <fputc>
    2da4:	c1 16       	cp	r12, r17
    2da6:	38 f4       	brcc	.+14     	; 0x2db6 <vfprintf+0x648>
    2da8:	b7 01       	movw	r22, r14
    2daa:	80 e3       	ldi	r24, 0x30	; 48
    2dac:	90 e0       	ldi	r25, 0x00	; 0
    2dae:	0e 94 6f 18 	call	0x30de	; 0x30de <fputc>
    2db2:	11 50       	subi	r17, 0x01	; 1
    2db4:	f7 cf       	rjmp	.-18     	; 0x2da4 <vfprintf+0x636>
    2db6:	ca 94       	dec	r12
    2db8:	f3 01       	movw	r30, r6
    2dba:	ec 0d       	add	r30, r12
    2dbc:	f1 1d       	adc	r31, r1
    2dbe:	80 81       	ld	r24, Z
    2dc0:	b7 01       	movw	r22, r14
    2dc2:	90 e0       	ldi	r25, 0x00	; 0
    2dc4:	0e 94 6f 18 	call	0x30de	; 0x30de <fputc>
    2dc8:	c1 10       	cpse	r12, r1
    2dca:	f5 cf       	rjmp	.-22     	; 0x2db6 <vfprintf+0x648>
    2dcc:	15 c0       	rjmp	.+42     	; 0x2df8 <vfprintf+0x68a>
    2dce:	f4 e0       	ldi	r31, 0x04	; 4
    2dd0:	f5 15       	cp	r31, r5
    2dd2:	60 f5       	brcc	.+88     	; 0x2e2c <vfprintf+0x6be>
    2dd4:	84 e0       	ldi	r24, 0x04	; 4
    2dd6:	58 1a       	sub	r5, r24
    2dd8:	93 fe       	sbrs	r9, 3
    2dda:	1f c0       	rjmp	.+62     	; 0x2e1a <vfprintf+0x6ac>
    2ddc:	01 11       	cpse	r16, r1
    2dde:	27 c0       	rjmp	.+78     	; 0x2e2e <vfprintf+0x6c0>
    2de0:	2c 85       	ldd	r18, Y+12	; 0x0c
    2de2:	23 ff       	sbrs	r18, 3
    2de4:	2a c0       	rjmp	.+84     	; 0x2e3a <vfprintf+0x6cc>
    2de6:	0e ed       	ldi	r16, 0xDE	; 222
    2de8:	11 e0       	ldi	r17, 0x01	; 1
    2dea:	39 2d       	mov	r19, r9
    2dec:	30 71       	andi	r19, 0x10	; 16
    2dee:	93 2e       	mov	r9, r19
    2df0:	f8 01       	movw	r30, r16
    2df2:	84 91       	lpm	r24, Z
    2df4:	81 11       	cpse	r24, r1
    2df6:	24 c0       	rjmp	.+72     	; 0x2e40 <vfprintf+0x6d2>
    2df8:	55 20       	and	r5, r5
    2dfa:	09 f4       	brne	.+2      	; 0x2dfe <vfprintf+0x690>
    2dfc:	e4 cc       	rjmp	.-1592   	; 0x27c6 <vfprintf+0x58>
    2dfe:	b7 01       	movw	r22, r14
    2e00:	80 e2       	ldi	r24, 0x20	; 32
    2e02:	90 e0       	ldi	r25, 0x00	; 0
    2e04:	0e 94 6f 18 	call	0x30de	; 0x30de <fputc>
    2e08:	5a 94       	dec	r5
    2e0a:	f6 cf       	rjmp	.-20     	; 0x2df8 <vfprintf+0x68a>
    2e0c:	f7 01       	movw	r30, r14
    2e0e:	86 81       	ldd	r24, Z+6	; 0x06
    2e10:	97 81       	ldd	r25, Z+7	; 0x07
    2e12:	26 c0       	rjmp	.+76     	; 0x2e60 <vfprintf+0x6f2>
    2e14:	8f ef       	ldi	r24, 0xFF	; 255
    2e16:	9f ef       	ldi	r25, 0xFF	; 255
    2e18:	23 c0       	rjmp	.+70     	; 0x2e60 <vfprintf+0x6f2>
    2e1a:	b7 01       	movw	r22, r14
    2e1c:	80 e2       	ldi	r24, 0x20	; 32
    2e1e:	90 e0       	ldi	r25, 0x00	; 0
    2e20:	0e 94 6f 18 	call	0x30de	; 0x30de <fputc>
    2e24:	5a 94       	dec	r5
    2e26:	51 10       	cpse	r5, r1
    2e28:	f8 cf       	rjmp	.-16     	; 0x2e1a <vfprintf+0x6ac>
    2e2a:	d8 cf       	rjmp	.-80     	; 0x2ddc <vfprintf+0x66e>
    2e2c:	51 2c       	mov	r5, r1
    2e2e:	b7 01       	movw	r22, r14
    2e30:	80 2f       	mov	r24, r16
    2e32:	90 e0       	ldi	r25, 0x00	; 0
    2e34:	0e 94 6f 18 	call	0x30de	; 0x30de <fputc>
    2e38:	d3 cf       	rjmp	.-90     	; 0x2de0 <vfprintf+0x672>
    2e3a:	02 ee       	ldi	r16, 0xE2	; 226
    2e3c:	11 e0       	ldi	r17, 0x01	; 1
    2e3e:	d5 cf       	rjmp	.-86     	; 0x2dea <vfprintf+0x67c>
    2e40:	91 10       	cpse	r9, r1
    2e42:	80 52       	subi	r24, 0x20	; 32
    2e44:	b7 01       	movw	r22, r14
    2e46:	90 e0       	ldi	r25, 0x00	; 0
    2e48:	0e 94 6f 18 	call	0x30de	; 0x30de <fputc>
    2e4c:	0f 5f       	subi	r16, 0xFF	; 255
    2e4e:	1f 4f       	sbci	r17, 0xFF	; 255
    2e50:	cf cf       	rjmp	.-98     	; 0x2df0 <vfprintf+0x682>
    2e52:	23 e0       	ldi	r18, 0x03	; 3
    2e54:	25 15       	cp	r18, r5
    2e56:	10 f4       	brcc	.+4      	; 0x2e5c <vfprintf+0x6ee>
    2e58:	83 e0       	ldi	r24, 0x03	; 3
    2e5a:	bd cf       	rjmp	.-134    	; 0x2dd6 <vfprintf+0x668>
    2e5c:	51 2c       	mov	r5, r1
    2e5e:	c0 cf       	rjmp	.-128    	; 0x2de0 <vfprintf+0x672>
    2e60:	60 96       	adiw	r28, 0x10	; 16
    2e62:	e2 e1       	ldi	r30, 0x12	; 18
    2e64:	0c 94 50 17 	jmp	0x2ea0	; 0x2ea0 <__epilogue_restores__>

00002e68 <__prologue_saves__>:
    2e68:	2f 92       	push	r2
    2e6a:	3f 92       	push	r3
    2e6c:	4f 92       	push	r4
    2e6e:	5f 92       	push	r5
    2e70:	6f 92       	push	r6
    2e72:	7f 92       	push	r7
    2e74:	8f 92       	push	r8
    2e76:	9f 92       	push	r9
    2e78:	af 92       	push	r10
    2e7a:	bf 92       	push	r11
    2e7c:	cf 92       	push	r12
    2e7e:	df 92       	push	r13
    2e80:	ef 92       	push	r14
    2e82:	ff 92       	push	r15
    2e84:	0f 93       	push	r16
    2e86:	1f 93       	push	r17
    2e88:	cf 93       	push	r28
    2e8a:	df 93       	push	r29
    2e8c:	cd b7       	in	r28, 0x3d	; 61
    2e8e:	de b7       	in	r29, 0x3e	; 62
    2e90:	ca 1b       	sub	r28, r26
    2e92:	db 0b       	sbc	r29, r27
    2e94:	0f b6       	in	r0, 0x3f	; 63
    2e96:	f8 94       	cli
    2e98:	de bf       	out	0x3e, r29	; 62
    2e9a:	0f be       	out	0x3f, r0	; 63
    2e9c:	cd bf       	out	0x3d, r28	; 61
    2e9e:	09 94       	ijmp

00002ea0 <__epilogue_restores__>:
    2ea0:	2a 88       	ldd	r2, Y+18	; 0x12
    2ea2:	39 88       	ldd	r3, Y+17	; 0x11
    2ea4:	48 88       	ldd	r4, Y+16	; 0x10
    2ea6:	5f 84       	ldd	r5, Y+15	; 0x0f
    2ea8:	6e 84       	ldd	r6, Y+14	; 0x0e
    2eaa:	7d 84       	ldd	r7, Y+13	; 0x0d
    2eac:	8c 84       	ldd	r8, Y+12	; 0x0c
    2eae:	9b 84       	ldd	r9, Y+11	; 0x0b
    2eb0:	aa 84       	ldd	r10, Y+10	; 0x0a
    2eb2:	b9 84       	ldd	r11, Y+9	; 0x09
    2eb4:	c8 84       	ldd	r12, Y+8	; 0x08
    2eb6:	df 80       	ldd	r13, Y+7	; 0x07
    2eb8:	ee 80       	ldd	r14, Y+6	; 0x06
    2eba:	fd 80       	ldd	r15, Y+5	; 0x05
    2ebc:	0c 81       	ldd	r16, Y+4	; 0x04
    2ebe:	1b 81       	ldd	r17, Y+3	; 0x03
    2ec0:	aa 81       	ldd	r26, Y+2	; 0x02
    2ec2:	b9 81       	ldd	r27, Y+1	; 0x01
    2ec4:	ce 0f       	add	r28, r30
    2ec6:	d1 1d       	adc	r29, r1
    2ec8:	0f b6       	in	r0, 0x3f	; 63
    2eca:	f8 94       	cli
    2ecc:	de bf       	out	0x3e, r29	; 62
    2ece:	0f be       	out	0x3f, r0	; 63
    2ed0:	cd bf       	out	0x3d, r28	; 61
    2ed2:	ed 01       	movw	r28, r26
    2ed4:	08 95       	ret

00002ed6 <__ftoa_engine>:
    2ed6:	28 30       	cpi	r18, 0x08	; 8
    2ed8:	08 f0       	brcs	.+2      	; 0x2edc <__ftoa_engine+0x6>
    2eda:	27 e0       	ldi	r18, 0x07	; 7
    2edc:	33 27       	eor	r19, r19
    2ede:	da 01       	movw	r26, r20
    2ee0:	99 0f       	add	r25, r25
    2ee2:	31 1d       	adc	r19, r1
    2ee4:	87 fd       	sbrc	r24, 7
    2ee6:	91 60       	ori	r25, 0x01	; 1
    2ee8:	00 96       	adiw	r24, 0x00	; 0
    2eea:	61 05       	cpc	r22, r1
    2eec:	71 05       	cpc	r23, r1
    2eee:	39 f4       	brne	.+14     	; 0x2efe <__ftoa_engine+0x28>
    2ef0:	32 60       	ori	r19, 0x02	; 2
    2ef2:	2e 5f       	subi	r18, 0xFE	; 254
    2ef4:	3d 93       	st	X+, r19
    2ef6:	30 e3       	ldi	r19, 0x30	; 48
    2ef8:	2a 95       	dec	r18
    2efa:	e1 f7       	brne	.-8      	; 0x2ef4 <__ftoa_engine+0x1e>
    2efc:	08 95       	ret
    2efe:	9f 3f       	cpi	r25, 0xFF	; 255
    2f00:	30 f0       	brcs	.+12     	; 0x2f0e <__ftoa_engine+0x38>
    2f02:	80 38       	cpi	r24, 0x80	; 128
    2f04:	71 05       	cpc	r23, r1
    2f06:	61 05       	cpc	r22, r1
    2f08:	09 f0       	breq	.+2      	; 0x2f0c <__ftoa_engine+0x36>
    2f0a:	3c 5f       	subi	r19, 0xFC	; 252
    2f0c:	3c 5f       	subi	r19, 0xFC	; 252
    2f0e:	3d 93       	st	X+, r19
    2f10:	91 30       	cpi	r25, 0x01	; 1
    2f12:	08 f0       	brcs	.+2      	; 0x2f16 <__ftoa_engine+0x40>
    2f14:	80 68       	ori	r24, 0x80	; 128
    2f16:	91 1d       	adc	r25, r1
    2f18:	df 93       	push	r29
    2f1a:	cf 93       	push	r28
    2f1c:	1f 93       	push	r17
    2f1e:	0f 93       	push	r16
    2f20:	ff 92       	push	r15
    2f22:	ef 92       	push	r14
    2f24:	19 2f       	mov	r17, r25
    2f26:	98 7f       	andi	r25, 0xF8	; 248
    2f28:	96 95       	lsr	r25
    2f2a:	e9 2f       	mov	r30, r25
    2f2c:	96 95       	lsr	r25
    2f2e:	96 95       	lsr	r25
    2f30:	e9 0f       	add	r30, r25
    2f32:	ff 27       	eor	r31, r31
    2f34:	e0 5c       	subi	r30, 0xC0	; 192
    2f36:	fd 4f       	sbci	r31, 0xFD	; 253
    2f38:	99 27       	eor	r25, r25
    2f3a:	33 27       	eor	r19, r19
    2f3c:	ee 24       	eor	r14, r14
    2f3e:	ff 24       	eor	r15, r15
    2f40:	a7 01       	movw	r20, r14
    2f42:	e7 01       	movw	r28, r14
    2f44:	05 90       	lpm	r0, Z+
    2f46:	08 94       	sec
    2f48:	07 94       	ror	r0
    2f4a:	28 f4       	brcc	.+10     	; 0x2f56 <__ftoa_engine+0x80>
    2f4c:	36 0f       	add	r19, r22
    2f4e:	e7 1e       	adc	r14, r23
    2f50:	f8 1e       	adc	r15, r24
    2f52:	49 1f       	adc	r20, r25
    2f54:	51 1d       	adc	r21, r1
    2f56:	66 0f       	add	r22, r22
    2f58:	77 1f       	adc	r23, r23
    2f5a:	88 1f       	adc	r24, r24
    2f5c:	99 1f       	adc	r25, r25
    2f5e:	06 94       	lsr	r0
    2f60:	a1 f7       	brne	.-24     	; 0x2f4a <__ftoa_engine+0x74>
    2f62:	05 90       	lpm	r0, Z+
    2f64:	07 94       	ror	r0
    2f66:	28 f4       	brcc	.+10     	; 0x2f72 <__ftoa_engine+0x9c>
    2f68:	e7 0e       	add	r14, r23
    2f6a:	f8 1e       	adc	r15, r24
    2f6c:	49 1f       	adc	r20, r25
    2f6e:	56 1f       	adc	r21, r22
    2f70:	c1 1d       	adc	r28, r1
    2f72:	77 0f       	add	r23, r23
    2f74:	88 1f       	adc	r24, r24
    2f76:	99 1f       	adc	r25, r25
    2f78:	66 1f       	adc	r22, r22
    2f7a:	06 94       	lsr	r0
    2f7c:	a1 f7       	brne	.-24     	; 0x2f66 <__ftoa_engine+0x90>
    2f7e:	05 90       	lpm	r0, Z+
    2f80:	07 94       	ror	r0
    2f82:	28 f4       	brcc	.+10     	; 0x2f8e <__ftoa_engine+0xb8>
    2f84:	f8 0e       	add	r15, r24
    2f86:	49 1f       	adc	r20, r25
    2f88:	56 1f       	adc	r21, r22
    2f8a:	c7 1f       	adc	r28, r23
    2f8c:	d1 1d       	adc	r29, r1
    2f8e:	88 0f       	add	r24, r24
    2f90:	99 1f       	adc	r25, r25
    2f92:	66 1f       	adc	r22, r22
    2f94:	77 1f       	adc	r23, r23
    2f96:	06 94       	lsr	r0
    2f98:	a1 f7       	brne	.-24     	; 0x2f82 <__ftoa_engine+0xac>
    2f9a:	05 90       	lpm	r0, Z+
    2f9c:	07 94       	ror	r0
    2f9e:	20 f4       	brcc	.+8      	; 0x2fa8 <__ftoa_engine+0xd2>
    2fa0:	49 0f       	add	r20, r25
    2fa2:	56 1f       	adc	r21, r22
    2fa4:	c7 1f       	adc	r28, r23
    2fa6:	d8 1f       	adc	r29, r24
    2fa8:	99 0f       	add	r25, r25
    2faa:	66 1f       	adc	r22, r22
    2fac:	77 1f       	adc	r23, r23
    2fae:	88 1f       	adc	r24, r24
    2fb0:	06 94       	lsr	r0
    2fb2:	a9 f7       	brne	.-22     	; 0x2f9e <__ftoa_engine+0xc8>
    2fb4:	84 91       	lpm	r24, Z
    2fb6:	10 95       	com	r17
    2fb8:	17 70       	andi	r17, 0x07	; 7
    2fba:	41 f0       	breq	.+16     	; 0x2fcc <__ftoa_engine+0xf6>
    2fbc:	d6 95       	lsr	r29
    2fbe:	c7 95       	ror	r28
    2fc0:	57 95       	ror	r21
    2fc2:	47 95       	ror	r20
    2fc4:	f7 94       	ror	r15
    2fc6:	e7 94       	ror	r14
    2fc8:	1a 95       	dec	r17
